
kernel.elf:     file format elf32-littlearm


Disassembly of section .text:

00008000 <__start>:
    8000:	e59ff018 	ldr	pc, [pc, #24]	; 8020 <reset_addr>
    8004:	e59ff018 	ldr	pc, [pc, #24]	; 8024 <undefined_instruction_addr>
    8008:	e59ff018 	ldr	pc, [pc, #24]	; 8028 <software_interrupt_addr>
    800c:	e59ff018 	ldr	pc, [pc, #24]	; 802c <prefetch_abort_addr>
    8010:	e59ff018 	ldr	pc, [pc, #24]	; 8030 <data_abort_addr>
    8014:	e59ff018 	ldr	pc, [pc, #24]	; 8034 <unused_handler_addr>
    8018:	e59ff018 	ldr	pc, [pc, #24]	; 8038 <interrupt_addr>
    801c:	e59ff018 	ldr	pc, [pc, #24]	; 803c <fast_interrupt_addr>

00008020 <reset_addr>:
    8020:	00008040 	andeq	r8, r0, r0, asr #32

00008024 <undefined_instruction_addr>:
    8024:	00008844 	andeq	r8, r0, r4, asr #16

00008028 <software_interrupt_addr>:
    8028:	00009fe0 	andeq	r9, r0, r0, ror #31

0000802c <prefetch_abort_addr>:
    802c:	00008858 	andeq	r8, r0, r8, asr r8

00008030 <data_abort_addr>:
    8030:	0000886c 	andeq	r8, r0, ip, ror #16

00008034 <unused_handler_addr>:
    8034:	00008040 	andeq	r8, r0, r0, asr #32

00008038 <interrupt_addr>:
    8038:	000087a4 	andeq	r8, r0, r4, lsr #15

0000803c <fast_interrupt_addr>:
    803c:	00008880 	andeq	r8, r0, r0, lsl #17

00008040 <reset>:
    8040:	e59f3074 	ldr	r3, [pc, #116]	; 80bc <reset_count>
    8044:	e3530000 	cmp	r3, #0
    8048:	0a000001 	beq	8054 <first_boot>
    804c:	e51ff004 	ldr	pc, [pc, #-4]	; 8050 <reset_error_addr>

00008050 <reset_error_addr>:
    8050:	00008894 	muleq	r0, r4, r8

00008054 <first_boot>:
    8054:	e2833001 	add	r3, r3, #1
    8058:	e58f305c 	str	r3, [pc, #92]	; 80bc <reset_count>
    805c:	e3a0d902 	mov	sp, #32768	; 0x8000
    8060:	e3a030d2 	mov	r3, #210	; 0xd2
    8064:	e121f003 	msr	CPSR_c, r3
    8068:	e3a0d901 	mov	sp, #16384	; 0x4000
    806c:	e3a030d3 	mov	r3, #211	; 0xd3
    8070:	e121f003 	msr	CPSR_c, r3
    8074:	e59f3044 	ldr	r3, [pc, #68]	; 80c0 <reset_count+0x4>
    8078:	e3a04000 	mov	r4, #0
    807c:	e8b31fe0 	ldm	r3!, {r5, r6, r7, r8, r9, sl, fp, ip}
    8080:	e8a41fe0 	stmia	r4!, {r5, r6, r7, r8, r9, sl, fp, ip}
    8084:	e8b31fe0 	ldm	r3!, {r5, r6, r7, r8, r9, sl, fp, ip}
    8088:	e8a41fe0 	stmia	r4!, {r5, r6, r7, r8, r9, sl, fp, ip}
    808c:	e59f4030 	ldr	r4, [pc, #48]	; 80c4 <reset_count+0x8>
    8090:	e59f9030 	ldr	r9, [pc, #48]	; 80c8 <reset_count+0xc>
    8094:	e3a05000 	mov	r5, #0

00008098 <clear_bss>:
    8098:	e5845000 	str	r5, [r4]
    809c:	e2844004 	add	r4, r4, #4
    80a0:	e1540009 	cmp	r4, r9
    80a4:	dafffffb 	ble	8098 <clear_bss>
    80a8:	e59f3018 	ldr	r3, [pc, #24]	; 80c8 <reset_count+0xc>
    80ac:	e59f4018 	ldr	r4, [pc, #24]	; 80cc <reset_count+0x10>
    80b0:	e12fff34 	blx	r4

000080b4 <wait_forever>:
    80b4:	e320f002 	wfe
    80b8:	eafffffd 	b	80b4 <wait_forever>

000080bc <reset_count>:
    80bc:	00000000 	andeq	r0, r0, r0
    80c0:	00008000 	andeq	r8, r0, r0
    80c4:	0000e000 	andeq	lr, r0, r0
    80c8:	00020000 	andeq	r0, r2, r0
    80cc:	000080d0 	ldrdeq	r8, [r0], -r0

000080d0 <kernel_main>:
    80d0:	e92d41f0 	push	{r4, r5, r6, r7, r8, lr}
    80d4:	e3a00010 	mov	r0, #16
    80d8:	e24dd020 	sub	sp, sp, #32
    80dc:	e1a04002 	mov	r4, r2
    80e0:	e1a07003 	mov	r7, r3
    80e4:	e1a06001 	mov	r6, r1
    80e8:	eb00055f 	bl	966c <memory_allocate>
    80ec:	e28d100c 	add	r1, sp, #12
    80f0:	e1a08000 	mov	r8, r0
    80f4:	e1a00004 	mov	r0, r4
    80f8:	eb00012d 	bl	85b4 <atags_detect>
    80fc:	e59f516c 	ldr	r5, [pc, #364]	; 8270 <kernel_main+0x1a0>
    8100:	e59d3014 	ldr	r3, [sp, #20]
    8104:	e5853000 	str	r3, [r5]
    8108:	eb000655 	bl	9a64 <uart_init>
    810c:	eb0004ad 	bl	93c8 <led_init>
    8110:	eb000800 	bl	a118 <timer_init>
    8114:	e10f3000 	mrs	r3, CPSR
    8118:	e3c33080 	bic	r3, r3, #128	; 0x80
    811c:	e12ff003 	msr	CPSR_fsxc, r3
    8120:	e59f014c 	ldr	r0, [pc, #332]	; 8274 <kernel_main+0x1a4>
    8124:	eb0005f0 	bl	98ec <printk>
    8128:	eb00067e 	bl	9b28 <uart_getc>
    812c:	e1a01006 	mov	r1, r6
    8130:	e59f0140 	ldr	r0, [pc, #320]	; 8278 <kernel_main+0x1a8>
    8134:	eb0005ec 	bl	98ec <printk>
    8138:	e59f313c 	ldr	r3, [pc, #316]	; 827c <kernel_main+0x1ac>
    813c:	e1560003 	cmp	r6, r3
    8140:	059f0138 	ldreq	r0, [pc, #312]	; 8280 <kernel_main+0x1b0>
    8144:	159f0138 	ldrne	r0, [pc, #312]	; 8284 <kernel_main+0x1b4>
    8148:	eb0005e7 	bl	98ec <printk>
    814c:	e59f0134 	ldr	r0, [pc, #308]	; 8288 <kernel_main+0x1b8>
    8150:	eb0005e5 	bl	98ec <printk>
    8154:	e59f0130 	ldr	r0, [pc, #304]	; 828c <kernel_main+0x1bc>
    8158:	eb0005e3 	bl	98ec <printk>
    815c:	e5951000 	ldr	r1, [r5]
    8160:	e2412001 	sub	r2, r1, #1
    8164:	e3520005 	cmp	r2, #5
    8168:	979ff102 	ldrls	pc, [pc, r2, lsl #2]
    816c:	ea00003c 	b	8264 <kernel_main+0x194>
    8170:	00008228 	andeq	r8, r0, r8, lsr #4
    8174:	00008234 	andeq	r8, r0, r4, lsr r2
    8178:	00008240 	andeq	r8, r0, r0, asr #4
    817c:	0000824c 	andeq	r8, r0, ip, asr #4
    8180:	00008258 	andeq	r8, r0, r8, asr r2
    8184:	00008188 	andeq	r8, r0, r8, lsl #3
    8188:	e59f0100 	ldr	r0, [pc, #256]	; 8290 <kernel_main+0x1c0>
    818c:	eb0005d6 	bl	98ec <printk>
    8190:	e59f00f0 	ldr	r0, [pc, #240]	; 8288 <kernel_main+0x1b8>
    8194:	eb0005d4 	bl	98ec <printk>
    8198:	e1a00004 	mov	r0, r4
    819c:	eb00008a 	bl	83cc <atags_dump>
    81a0:	e59d4010 	ldr	r4, [sp, #16]
    81a4:	e1a01007 	mov	r1, r7
    81a8:	e1a00004 	mov	r0, r4
    81ac:	eb000501 	bl	95b8 <memory_init>
    81b0:	e1a01004 	mov	r1, r4
    81b4:	e3a00000 	mov	r0, #0
    81b8:	eb00056d 	bl	9774 <enable_mmu>
    81bc:	e3a0700d 	mov	r7, #13
    81c0:	eb000658 	bl	9b28 <uart_getc>
    81c4:	e28d0004 	add	r0, sp, #4
    81c8:	ef000000 	svc	0x00000000
    81cc:	e3a010aa 	mov	r1, #170	; 0xaa
    81d0:	e1a00008 	mov	r0, r8
    81d4:	e3a02010 	mov	r2, #16
    81d8:	eb0006df 	bl	9d5c <memset>
    81dc:	e28d0008 	add	r0, sp, #8
    81e0:	ef000000 	svc	0x00000000
    81e4:	e59d3004 	ldr	r3, [sp, #4]
    81e8:	e59d1008 	ldr	r1, [sp, #8]
    81ec:	e59f00a0 	ldr	r0, [pc, #160]	; 8294 <kernel_main+0x1c4>
    81f0:	e0631001 	rsb	r1, r3, r1
    81f4:	eb0005bc 	bl	98ec <printk>
    81f8:	e59f0098 	ldr	r0, [pc, #152]	; 8298 <kernel_main+0x1c8>
    81fc:	eb0005ba 	bl	98ec <printk>
    8200:	e321f0df 	msr	CPSR_c, #223	; 0xdf
    8204:	e3a0da02 	mov	sp, #8192	; 0x2000
    8208:	e321f0d3 	msr	CPSR_c, #211	; 0xd3
    820c:	e59f3088 	ldr	r3, [pc, #136]	; 829c <kernel_main+0x1cc>
    8210:	e3a00010 	mov	r0, #16
    8214:	e169f000 	msr	SPSR_fc, r0
    8218:	e1a0e003 	mov	lr, r3
    821c:	e1b0f00e 	movs	pc, lr
    8220:	e28dd020 	add	sp, sp, #32
    8224:	e8bd81f0 	pop	{r4, r5, r6, r7, r8, pc}
    8228:	e59f0070 	ldr	r0, [pc, #112]	; 82a0 <kernel_main+0x1d0>
    822c:	eb0005ae 	bl	98ec <printk>
    8230:	eaffffd6 	b	8190 <kernel_main+0xc0>
    8234:	e59f0068 	ldr	r0, [pc, #104]	; 82a4 <kernel_main+0x1d4>
    8238:	eb0005ab 	bl	98ec <printk>
    823c:	eaffffd3 	b	8190 <kernel_main+0xc0>
    8240:	e59f0060 	ldr	r0, [pc, #96]	; 82a8 <kernel_main+0x1d8>
    8244:	eb0005a8 	bl	98ec <printk>
    8248:	eaffffd0 	b	8190 <kernel_main+0xc0>
    824c:	e59f0058 	ldr	r0, [pc, #88]	; 82ac <kernel_main+0x1dc>
    8250:	eb0005a5 	bl	98ec <printk>
    8254:	eaffffcd 	b	8190 <kernel_main+0xc0>
    8258:	e59f0050 	ldr	r0, [pc, #80]	; 82b0 <kernel_main+0x1e0>
    825c:	eb0005a2 	bl	98ec <printk>
    8260:	eaffffca 	b	8190 <kernel_main+0xc0>
    8264:	e59f0048 	ldr	r0, [pc, #72]	; 82b4 <kernel_main+0x1e4>
    8268:	eb00059f 	bl	98ec <printk>
    826c:	eaffffc7 	b	8190 <kernel_main+0xc0>
    8270:	0000c000 	andeq	ip, r0, r0
    8274:	0000b020 	andeq	fp, r0, r0, lsr #32
    8278:	0000b058 	andeq	fp, r0, r8, asr r0
    827c:	00000c42 	andeq	r0, r0, r2, asr #24
    8280:	0000b070 	andeq	fp, r0, r0, ror r0
    8284:	0000b080 	andeq	fp, r0, r0, lsl #1
    8288:	0000b760 	andeq	fp, r0, r0, ror #14
    828c:	0000b094 	muleq	r0, r4, r0
    8290:	0000b0b8 	strheq	fp, [r0], -r8
    8294:	0000b0d4 	ldrdeq	fp, [r0], -r4
    8298:	0000b0dc 	ldrdeq	fp, [r0], -ip
    829c:	0000a170 	andeq	sl, r0, r0, ror r1
    82a0:	0000b0a4 	andeq	fp, r0, r4, lsr #1
    82a4:	0000b0ac 	andeq	fp, r0, ip, lsr #1
    82a8:	0000b0a8 	andeq	fp, r0, r8, lsr #1
    82ac:	0000b0b0 	strheq	fp, [r0], -r0
    82b0:	0000b0b4 	strheq	fp, [r0], -r4
    82b4:	0000b0c8 	andeq	fp, r0, r8, asr #1

000082b8 <parse_cmdline_int>:
    82b8:	e92d47f0 	push	{r4, r5, r6, r7, r8, r9, sl, lr}
    82bc:	e1a08001 	mov	r8, r1
    82c0:	e1a0a000 	mov	sl, r0
    82c4:	eb000698 	bl	9d2c <strlen>
    82c8:	e1a06000 	mov	r6, r0
    82cc:	e1a00008 	mov	r0, r8
    82d0:	eb000695 	bl	9d2c <strlen>
    82d4:	e5da3000 	ldrb	r3, [sl]
    82d8:	e1a07000 	mov	r7, r0
    82dc:	e3530000 	cmp	r3, #0
    82e0:	0a000030 	beq	83a8 <parse_cmdline_int+0xf0>
    82e4:	e1560000 	cmp	r6, r0
    82e8:	3a00002e 	bcc	83a8 <parse_cmdline_int+0xf0>
    82ec:	e1e0900a 	mvn	r9, sl
    82f0:	e0809009 	add	r9, r0, r9
    82f4:	e28a4001 	add	r4, sl, #1
    82f8:	e1a05000 	mov	r5, r0
    82fc:	e1a0100a 	mov	r1, sl
    8300:	ea000006 	b	8320 <parse_cmdline_int+0x68>
    8304:	e5d43000 	ldrb	r3, [r4]
    8308:	e2844001 	add	r4, r4, #1
    830c:	e3530000 	cmp	r3, #0
    8310:	e0895004 	add	r5, r9, r4
    8314:	0a000023 	beq	83a8 <parse_cmdline_int+0xf0>
    8318:	e1560005 	cmp	r6, r5
    831c:	3a000021 	bcc	83a8 <parse_cmdline_int+0xf0>
    8320:	e1a00008 	mov	r0, r8
    8324:	e1a02007 	mov	r2, r7
    8328:	eb00062f 	bl	9bec <strncmp>
    832c:	e3500000 	cmp	r0, #0
    8330:	e1a01004 	mov	r1, r4
    8334:	1afffff2 	bne	8304 <parse_cmdline_int+0x4c>
    8338:	e2852001 	add	r2, r5, #1
    833c:	e7da3002 	ldrb	r3, [sl, r2]
    8340:	e3530030 	cmp	r3, #48	; 0x30
    8344:	0a000019 	beq	83b0 <parse_cmdline_int+0xf8>
    8348:	e3a0100a 	mov	r1, #10
    834c:	e0823007 	add	r3, r2, r7
    8350:	e1560003 	cmp	r6, r3
    8354:	3a000013 	bcc	83a8 <parse_cmdline_int+0xf0>
    8358:	e7da3002 	ldrb	r3, [sl, r2]
    835c:	e08a2002 	add	r2, sl, r2
    8360:	e31300df 	tst	r3, #223	; 0xdf
    8364:	0a00000f 	beq	83a8 <parse_cmdline_int+0xf0>
    8368:	e26aa001 	rsb	sl, sl, #1
    836c:	e087700a 	add	r7, r7, sl
    8370:	e3a00000 	mov	r0, #0
    8374:	ea000002 	b	8384 <parse_cmdline_int+0xcc>
    8378:	e5f23001 	ldrb	r3, [r2, #1]!
    837c:	e31300df 	tst	r3, #223	; 0xdf
    8380:	08bd87f0 	popeq	{r4, r5, r6, r7, r8, r9, sl, pc}
    8384:	e0000190 	mul	r0, r0, r1
    8388:	e3530039 	cmp	r3, #57	; 0x39
    838c:	92400030 	subls	r0, r0, #48	; 0x30
    8390:	82400057 	subhi	r0, r0, #87	; 0x57
    8394:	e0800003 	add	r0, r0, r3
    8398:	e0873002 	add	r3, r7, r2
    839c:	e1560003 	cmp	r6, r3
    83a0:	2afffff4 	bcs	8378 <parse_cmdline_int+0xc0>
    83a4:	e8bd87f0 	pop	{r4, r5, r6, r7, r8, r9, sl, pc}
    83a8:	e3a00000 	mov	r0, #0
    83ac:	e8bd87f0 	pop	{r4, r5, r6, r7, r8, r9, sl, pc}
    83b0:	e08a3005 	add	r3, sl, r5
    83b4:	e5d33002 	ldrb	r3, [r3, #2]
    83b8:	e3530078 	cmp	r3, #120	; 0x78
    83bc:	02852003 	addeq	r2, r5, #3
    83c0:	03a01010 	moveq	r1, #16
    83c4:	1affffdf 	bne	8348 <parse_cmdline_int+0x90>
    83c8:	eaffffdf 	b	834c <parse_cmdline_int+0x94>

000083cc <atags_dump>:
    83cc:	e92d47f0 	push	{r4, r5, r6, r7, r8, r9, sl, lr}
    83d0:	e1a04000 	mov	r4, r0
    83d4:	e59f018c 	ldr	r0, [pc, #396]	; 8568 <atags_dump+0x19c>
    83d8:	eb000543 	bl	98ec <printk>
    83dc:	e59f8188 	ldr	r8, [pc, #392]	; 856c <atags_dump+0x1a0>
    83e0:	e59f9188 	ldr	r9, [pc, #392]	; 8570 <atags_dump+0x1a4>
    83e4:	e59fa188 	ldr	sl, [pc, #392]	; 8574 <atags_dump+0x1a8>
    83e8:	e5941004 	ldr	r1, [r4, #4]
    83ec:	e5947000 	ldr	r7, [r4]
    83f0:	e1510008 	cmp	r1, r8
    83f4:	0a000011 	beq	8440 <atags_dump+0x74>
    83f8:	9a000016 	bls	8458 <atags_dump+0x8c>
    83fc:	e1510009 	cmp	r1, r9
    8400:	0a00003a 	beq	84f0 <atags_dump+0x124>
    8404:	8a000021 	bhi	8490 <atags_dump+0xc4>
    8408:	e59f3168 	ldr	r3, [pc, #360]	; 8578 <atags_dump+0x1ac>
    840c:	e1510003 	cmp	r1, r3
    8410:	0a00002e 	beq	84d0 <atags_dump+0x104>
    8414:	e2833001 	add	r3, r3, #1
    8418:	e1510003 	cmp	r1, r3
    841c:	1a000018 	bne	8484 <atags_dump+0xb8>
    8420:	e5941008 	ldr	r1, [r4, #8]
    8424:	e59f0150 	ldr	r0, [pc, #336]	; 857c <atags_dump+0x1b0>
    8428:	e0844107 	add	r4, r4, r7, lsl #2
    842c:	eb00052e 	bl	98ec <printk>
    8430:	e5941004 	ldr	r1, [r4, #4]
    8434:	e5947000 	ldr	r7, [r4]
    8438:	e1510008 	cmp	r1, r8
    843c:	1affffed 	bne	83f8 <atags_dump+0x2c>
    8440:	e59f0138 	ldr	r0, [pc, #312]	; 8580 <atags_dump+0x1b4>
    8444:	e2841008 	add	r1, r4, #8
    8448:	e891000e 	ldm	r1, {r1, r2, r3}
    844c:	eb000526 	bl	98ec <printk>
    8450:	e0844107 	add	r4, r4, r7, lsl #2
    8454:	eaffffe3 	b	83e8 <atags_dump+0x1c>
    8458:	e59f3124 	ldr	r3, [pc, #292]	; 8584 <atags_dump+0x1b8>
    845c:	e1510003 	cmp	r1, r3
    8460:	0a000020 	beq	84e8 <atags_dump+0x11c>
    8464:	9a000014 	bls	84bc <atags_dump+0xf0>
    8468:	e59f3118 	ldr	r3, [pc, #280]	; 8588 <atags_dump+0x1bc>
    846c:	e1510003 	cmp	r1, r3
    8470:	0a000022 	beq	8500 <atags_dump+0x134>
    8474:	e2833001 	add	r3, r3, #1
    8478:	e1510003 	cmp	r1, r3
    847c:	059f0108 	ldreq	r0, [pc, #264]	; 858c <atags_dump+0x1c0>
    8480:	0affffef 	beq	8444 <atags_dump+0x78>
    8484:	e59f0104 	ldr	r0, [pc, #260]	; 8590 <atags_dump+0x1c4>
    8488:	eb000517 	bl	98ec <printk>
    848c:	eaffffd5 	b	83e8 <atags_dump+0x1c>
    8490:	e151000a 	cmp	r1, sl
    8494:	0a000020 	beq	851c <atags_dump+0x150>
    8498:	e59f30f4 	ldr	r3, [pc, #244]	; 8594 <atags_dump+0x1c8>
    849c:	e1510003 	cmp	r1, r3
    84a0:	1afffff7 	bne	8484 <atags_dump+0xb8>
    84a4:	e594100c 	ldr	r1, [r4, #12]
    84a8:	e5942008 	ldr	r2, [r4, #8]
    84ac:	e59f00e4 	ldr	r0, [pc, #228]	; 8598 <atags_dump+0x1cc>
    84b0:	eb00050d 	bl	98ec <printk>
    84b4:	e0844107 	add	r4, r4, r7, lsl #2
    84b8:	eaffffca 	b	83e8 <atags_dump+0x1c>
    84bc:	e3510000 	cmp	r1, #0
    84c0:	1affffef 	bne	8484 <atags_dump+0xb8>
    84c4:	e8bd47f0 	pop	{r4, r5, r6, r7, r8, r9, sl, lr}
    84c8:	e59f00cc 	ldr	r0, [pc, #204]	; 859c <atags_dump+0x1d0>
    84cc:	ea000506 	b	98ec <printk>
    84d0:	e5941008 	ldr	r1, [r4, #8]
    84d4:	e594200c 	ldr	r2, [r4, #12]
    84d8:	e59f00c0 	ldr	r0, [pc, #192]	; 85a0 <atags_dump+0x1d4>
    84dc:	eb000502 	bl	98ec <printk>
    84e0:	e0844107 	add	r4, r4, r7, lsl #2
    84e4:	eaffffbf 	b	83e8 <atags_dump+0x1c>
    84e8:	e59f00b4 	ldr	r0, [pc, #180]	; 85a4 <atags_dump+0x1d8>
    84ec:	eaffffd4 	b	8444 <atags_dump+0x78>
    84f0:	e59f00b0 	ldr	r0, [pc, #176]	; 85a8 <atags_dump+0x1dc>
    84f4:	e0844107 	add	r4, r4, r7, lsl #2
    84f8:	eb0004fb 	bl	98ec <printk>
    84fc:	eaffffb9 	b	83e8 <atags_dump+0x1c>
    8500:	e5941008 	ldr	r1, [r4, #8]
    8504:	e594300c 	ldr	r3, [r4, #12]
    8508:	e59f009c 	ldr	r0, [pc, #156]	; 85ac <atags_dump+0x1e0>
    850c:	e1a02a21 	lsr	r2, r1, #20
    8510:	eb0004f5 	bl	98ec <printk>
    8514:	e0844107 	add	r4, r4, r7, lsl #2
    8518:	eaffffb2 	b	83e8 <atags_dump+0x1c>
    851c:	e2846008 	add	r6, r4, #8
    8520:	e1a00006 	mov	r0, r6
    8524:	eb000600 	bl	9d2c <strlen>
    8528:	e1a05000 	mov	r5, r0
    852c:	e1a01000 	mov	r1, r0
    8530:	e59f0078 	ldr	r0, [pc, #120]	; 85b0 <atags_dump+0x1e4>
    8534:	eb0004ec 	bl	98ec <printk>
    8538:	e3550000 	cmp	r5, #0
    853c:	da000005 	ble	8558 <atags_dump+0x18c>
    8540:	e1a00006 	mov	r0, r6
    8544:	e2455c01 	sub	r5, r5, #256	; 0x100
    8548:	eb0004e7 	bl	98ec <printk>
    854c:	e3550000 	cmp	r5, #0
    8550:	e2866c01 	add	r6, r6, #256	; 0x100
    8554:	cafffff9 	bgt	8540 <atags_dump+0x174>
    8558:	e59f003c 	ldr	r0, [pc, #60]	; 859c <atags_dump+0x1d0>
    855c:	e0844107 	add	r4, r4, r7, lsl #2
    8560:	eb0004e1 	bl	98ec <printk>
    8564:	eaffff9f 	b	83e8 <atags_dump+0x1c>
    8568:	0000b0f4 	strdeq	fp, [r0], -r4
    856c:	54410004 	strbpl	r0, [r1], #-4
    8570:	54410008 	strbpl	r0, [r1], #-8
    8574:	54410009 	strbpl	r0, [r1], #-9
    8578:	54410006 	strbpl	r0, [r1], #-6
    857c:	0000b22c 	andeq	fp, r0, ip, lsr #4
    8580:	0000b1bc 			; <UNDEFINED> instruction: 0x0000b1bc
    8584:	54410001 	strbpl	r0, [r1], #-1
    8588:	54410002 	strbpl	r0, [r1], #-2
    858c:	0000b174 	andeq	fp, r0, r4, ror r1
    8590:	0000b270 	andeq	fp, r0, r0, ror r2
    8594:	54420005 	strbpl	r0, [r2], #-5
    8598:	0000b1e8 	andeq	fp, r0, r8, ror #3
    859c:	0000b760 	andeq	fp, r0, r0, ror #14
    85a0:	0000b208 	andeq	fp, r0, r8, lsl #4
    85a4:	0000b11c 	andeq	fp, r0, ip, lsl r1
    85a8:	0000b244 	andeq	fp, r0, r4, asr #4
    85ac:	0000b14c 	andeq	fp, r0, ip, asr #2
    85b0:	0000b258 	andeq	fp, r0, r8, asr r2

000085b4 <atags_detect>:
    85b4:	e92d47f0 	push	{r4, r5, r6, r7, r8, r9, sl, lr}
    85b8:	e1a07001 	mov	r7, r1
    85bc:	e1a04000 	mov	r4, r0
    85c0:	e3a01000 	mov	r1, #0
    85c4:	e1a00007 	mov	r0, r7
    85c8:	e3a02014 	mov	r2, #20
    85cc:	eb0005e2 	bl	9d5c <memset>
    85d0:	e59f619c 	ldr	r6, [pc, #412]	; 8774 <atags_detect+0x1c0>
    85d4:	e59f819c 	ldr	r8, [pc, #412]	; 8778 <atags_detect+0x1c4>
    85d8:	e59f919c 	ldr	r9, [pc, #412]	; 877c <atags_detect+0x1c8>
    85dc:	e5943004 	ldr	r3, [r4, #4]
    85e0:	e5945000 	ldr	r5, [r4]
    85e4:	e1530006 	cmp	r3, r6
    85e8:	0a000009 	beq	8614 <atags_detect+0x60>
    85ec:	9a00000e 	bls	862c <atags_detect+0x78>
    85f0:	e1530008 	cmp	r3, r8
    85f4:	0a000006 	beq	8614 <atags_detect+0x60>
    85f8:	8a000019 	bhi	8664 <atags_detect+0xb0>
    85fc:	e59f217c 	ldr	r2, [pc, #380]	; 8780 <atags_detect+0x1cc>
    8600:	e1530002 	cmp	r3, r2
    8604:	0a000002 	beq	8614 <atags_detect+0x60>
    8608:	e2822001 	add	r2, r2, #1
    860c:	e1530002 	cmp	r3, r2
    8610:	1a000018 	bne	8678 <atags_detect+0xc4>
    8614:	e0844105 	add	r4, r4, r5, lsl #2
    8618:	e5943004 	ldr	r3, [r4, #4]
    861c:	e5945000 	ldr	r5, [r4]
    8620:	e1530006 	cmp	r3, r6
    8624:	0afffffa 	beq	8614 <atags_detect+0x60>
    8628:	8afffff0 	bhi	85f0 <atags_detect+0x3c>
    862c:	e59f2150 	ldr	r2, [pc, #336]	; 8784 <atags_detect+0x1d0>
    8630:	e1530002 	cmp	r3, r2
    8634:	0afffff6 	beq	8614 <atags_detect+0x60>
    8638:	9a000011 	bls	8684 <atags_detect+0xd0>
    863c:	e59f2144 	ldr	r2, [pc, #324]	; 8788 <atags_detect+0x1d4>
    8640:	e1530002 	cmp	r3, r2
    8644:	1affffef 	bne	8608 <atags_detect+0x54>
    8648:	e594300c 	ldr	r3, [r4, #12]
    864c:	e594a008 	ldr	sl, [r4, #8]
    8650:	e3530000 	cmp	r3, #0
    8654:	1a000031 	bne	8720 <atags_detect+0x16c>
    8658:	e587a004 	str	sl, [r7, #4]
    865c:	e0844105 	add	r4, r4, r5, lsl #2
    8660:	eaffffdd 	b	85dc <atags_detect+0x28>
    8664:	e1530009 	cmp	r3, r9
    8668:	0a00000a 	beq	8698 <atags_detect+0xe4>
    866c:	e59f2118 	ldr	r2, [pc, #280]	; 878c <atags_detect+0x1d8>
    8670:	e1530002 	cmp	r3, r2
    8674:	0affffe6 	beq	8614 <atags_detect+0x60>
    8678:	e59f0110 	ldr	r0, [pc, #272]	; 8790 <atags_detect+0x1dc>
    867c:	eb00049a 	bl	98ec <printk>
    8680:	eaffffd5 	b	85dc <atags_detect+0x28>
    8684:	e3530000 	cmp	r3, #0
    8688:	08bd87f0 	popeq	{r4, r5, r6, r7, r8, r9, sl, pc}
    868c:	e59f00fc 	ldr	r0, [pc, #252]	; 8790 <atags_detect+0x1dc>
    8690:	eb000495 	bl	98ec <printk>
    8694:	eaffffd0 	b	85dc <atags_detect+0x28>
    8698:	e284a008 	add	sl, r4, #8
    869c:	e59f10f0 	ldr	r1, [pc, #240]	; 8794 <atags_detect+0x1e0>
    86a0:	e1a0000a 	mov	r0, sl
    86a4:	ebffff03 	bl	82b8 <parse_cmdline_int>
    86a8:	e59f10e8 	ldr	r1, [pc, #232]	; 8798 <atags_detect+0x1e4>
    86ac:	e587000c 	str	r0, [r7, #12]
    86b0:	e1a0000a 	mov	r0, sl
    86b4:	ebfffeff 	bl	82b8 <parse_cmdline_int>
    86b8:	e59f10dc 	ldr	r1, [pc, #220]	; 879c <atags_detect+0x1e8>
    86bc:	e5870010 	str	r0, [r7, #16]
    86c0:	e1a0000a 	mov	r0, sl
    86c4:	ebfffefb 	bl	82b8 <parse_cmdline_int>
    86c8:	e2403002 	sub	r3, r0, #2
    86cc:	e5870000 	str	r0, [r7]
    86d0:	e3530010 	cmp	r3, #16
    86d4:	979ff103 	ldrls	pc, [pc, r3, lsl #2]
    86d8:	ea000022 	b	8768 <atags_detect+0x1b4>
    86dc:	00008738 	andeq	r8, r0, r8, lsr r7
    86e0:	00008738 	andeq	r8, r0, r8, lsr r7
    86e4:	00008738 	andeq	r8, r0, r8, lsr r7
    86e8:	00008738 	andeq	r8, r0, r8, lsr r7
    86ec:	00008738 	andeq	r8, r0, r8, lsr r7
    86f0:	00008744 	andeq	r8, r0, r4, asr #14
    86f4:	00008744 	andeq	r8, r0, r4, asr #14
    86f8:	00008744 	andeq	r8, r0, r4, asr #14
    86fc:	00008768 	andeq	r8, r0, r8, ror #14
    8700:	00008768 	andeq	r8, r0, r8, ror #14
    8704:	00008768 	andeq	r8, r0, r8, ror #14
    8708:	00008738 	andeq	r8, r0, r8, lsr r7
    870c:	00008738 	andeq	r8, r0, r8, lsr r7
    8710:	00008738 	andeq	r8, r0, r8, lsr r7
    8714:	00008750 	andeq	r8, r0, r0, asr r7
    8718:	0000875c 	andeq	r8, r0, ip, asr r7
    871c:	0000872c 	andeq	r8, r0, ip, lsr #14
    8720:	e59f0078 	ldr	r0, [pc, #120]	; 87a0 <atags_detect+0x1ec>
    8724:	eb000470 	bl	98ec <printk>
    8728:	eaffffca 	b	8658 <atags_detect+0xa4>
    872c:	e3a03003 	mov	r3, #3
    8730:	e5873008 	str	r3, [r7, #8]
    8734:	eaffffb6 	b	8614 <atags_detect+0x60>
    8738:	e3a03002 	mov	r3, #2
    873c:	e5873008 	str	r3, [r7, #8]
    8740:	eaffffb3 	b	8614 <atags_detect+0x60>
    8744:	e3a03001 	mov	r3, #1
    8748:	e5873008 	str	r3, [r7, #8]
    874c:	eaffffb0 	b	8614 <atags_detect+0x60>
    8750:	e3a03004 	mov	r3, #4
    8754:	e5873008 	str	r3, [r7, #8]
    8758:	eaffffad 	b	8614 <atags_detect+0x60>
    875c:	e3a03006 	mov	r3, #6
    8760:	e5873008 	str	r3, [r7, #8]
    8764:	eaffffaa 	b	8614 <atags_detect+0x60>
    8768:	e3a03000 	mov	r3, #0
    876c:	e5873008 	str	r3, [r7, #8]
    8770:	eaffffa7 	b	8614 <atags_detect+0x60>
    8774:	54410004 	strbpl	r0, [r1], #-4
    8778:	54410008 	strbpl	r0, [r1], #-8
    877c:	54410009 	strbpl	r0, [r1], #-9
    8780:	54410006 	strbpl	r0, [r1], #-6
    8784:	54410001 	strbpl	r0, [r1], #-1
    8788:	54410002 	strbpl	r0, [r1], #-2
    878c:	54420005 	strbpl	r0, [r2], #-5
    8790:	0000b2dc 	ldrdeq	fp, [r0], -ip
    8794:	0000b2c4 	andeq	fp, r0, r4, asr #5
    8798:	0000b2cc 	andeq	fp, r0, ip, asr #5
    879c:	0000b2d8 	ldrdeq	fp, [r0], -r8
    87a0:	0000b288 	andeq	fp, r0, r8, lsl #5

000087a4 <interrupt_handler>:
    87a4:	e24ee004 	sub	lr, lr, #4
    87a8:	e92d503f 	push	{r0, r1, r2, r3, r4, r5, ip, lr}
    87ac:	e59f1078 	ldr	r1, [pc, #120]	; 882c <interrupt_handler+0x88>
    87b0:	e5911000 	ldr	r1, [r1]
    87b4:	e3110001 	tst	r1, #1
    87b8:	0a000016 	beq	8818 <interrupt_handler+0x74>
    87bc:	e59f306c 	ldr	r3, [pc, #108]	; 8830 <interrupt_handler+0x8c>
    87c0:	e3a02001 	mov	r2, #1
    87c4:	e5832000 	str	r2, [r3]
    87c8:	e59f3064 	ldr	r3, [pc, #100]	; 8834 <interrupt_handler+0x90>
    87cc:	e59f1064 	ldr	r1, [pc, #100]	; 8838 <interrupt_handler+0x94>
    87d0:	e5932000 	ldr	r2, [r3]
    87d4:	e5911000 	ldr	r1, [r1]
    87d8:	e2822001 	add	r2, r2, #1
    87dc:	e3510000 	cmp	r1, #0
    87e0:	e5832000 	str	r2, [r3]
    87e4:	08fd903f 	ldmeq	sp!, {r0, r1, r2, r3, r4, r5, ip, pc}^
    87e8:	e59f404c 	ldr	r4, [pc, #76]	; 883c <interrupt_handler+0x98>
    87ec:	e5943000 	ldr	r3, [r4]
    87f0:	e2833001 	add	r3, r3, #1
    87f4:	e3530020 	cmp	r3, #32
    87f8:	e5843000 	str	r3, [r4]
    87fc:	0a000008 	beq	8824 <interrupt_handler+0x80>
    8800:	e3530040 	cmp	r3, #64	; 0x40
    8804:	18fd903f 	ldmne	sp!, {r0, r1, r2, r3, r4, r5, ip, pc}^
    8808:	eb000305 	bl	9424 <led_on>
    880c:	e3a03000 	mov	r3, #0
    8810:	e5843000 	str	r3, [r4]
    8814:	e8fd903f 	ldm	sp!, {r0, r1, r2, r3, r4, r5, ip, pc}^
    8818:	e59f0020 	ldr	r0, [pc, #32]	; 8840 <interrupt_handler+0x9c>
    881c:	eb000432 	bl	98ec <printk>
    8820:	e8fd903f 	ldm	sp!, {r0, r1, r2, r3, r4, r5, ip, pc}^
    8824:	eb000308 	bl	944c <led_off>
    8828:	e8fd903f 	ldm	sp!, {r0, r1, r2, r3, r4, r5, ip, pc}^
    882c:	2000b200 	andcs	fp, r0, r0, lsl #4
    8830:	2000b40c 	andcs	fp, r0, ip, lsl #8
    8834:	0001166c 	andeq	r1, r1, ip, ror #12
    8838:	0000c004 	andeq	ip, r0, r4
    883c:	00010000 	andeq	r0, r1, r0
    8840:	0000b2f4 	strdeq	fp, [r0], -r4

00008844 <undefined_handler>:
    8844:	e92d500f 	push	{r0, r1, r2, r3, ip, lr}
    8848:	e59f0004 	ldr	r0, [pc, #4]	; 8854 <undefined_handler+0x10>
    884c:	eb000426 	bl	98ec <printk>
    8850:	eafffffe 	b	8850 <undefined_handler+0xc>
    8854:	0000b30c 	andeq	fp, r0, ip, lsl #6

00008858 <prefetch_handler>:
    8858:	e92d500f 	push	{r0, r1, r2, r3, ip, lr}
    885c:	e59f0004 	ldr	r0, [pc, #4]	; 8868 <prefetch_handler+0x10>
    8860:	eb000421 	bl	98ec <printk>
    8864:	eafffffe 	b	8864 <prefetch_handler+0xc>
    8868:	0000b324 	andeq	fp, r0, r4, lsr #6

0000886c <data_handler>:
    886c:	e92d500f 	push	{r0, r1, r2, r3, ip, lr}
    8870:	e59f0004 	ldr	r0, [pc, #4]	; 887c <data_handler+0x10>
    8874:	eb00041c 	bl	98ec <printk>
    8878:	eafffffe 	b	8878 <data_handler+0xc>
    887c:	0000b338 	andeq	fp, r0, r8, lsr r3

00008880 <fiq_handler>:
    8880:	e92d401f 	push	{r0, r1, r2, r3, r4, lr}
    8884:	e59f0004 	ldr	r0, [pc, #4]	; 8890 <fiq_handler+0x10>
    8888:	eb000417 	bl	98ec <printk>
    888c:	eafffffe 	b	888c <fiq_handler+0xc>
    8890:	0000b348 	andeq	fp, r0, r8, asr #6

00008894 <reset_error>:
    8894:	e92d4008 	push	{r3, lr}
    8898:	e59f0004 	ldr	r0, [pc, #4]	; 88a4 <reset_error+0x10>
    889c:	eb000412 	bl	98ec <printk>
    88a0:	eafffffe 	b	88a0 <reset_error+0xc>
    88a4:	0000b358 	andeq	fp, r0, r8, asr r3

000088a8 <console_write>:
    88a8:	e92d4038 	push	{r3, r4, r5, lr}
    88ac:	e1a05000 	mov	r5, r0
    88b0:	e1a04001 	mov	r4, r1
    88b4:	eb000108 	bl	8cdc <framebuffer_console_write>
    88b8:	e1a00005 	mov	r0, r5
    88bc:	e1a01004 	mov	r1, r4
    88c0:	e8bd4038 	pop	{r3, r4, r5, lr}
    88c4:	ea0004ad 	b	9b80 <uart_write>

000088c8 <console_read>:
    88c8:	e92d40f8 	push	{r3, r4, r5, r6, r7, lr}
    88cc:	e2517000 	subs	r7, r1, #0
    88d0:	e1a06000 	mov	r6, r0
    88d4:	0a00000d 	beq	8910 <console_read+0x48>
    88d8:	e3a05000 	mov	r5, #0
    88dc:	e1a04005 	mov	r4, r5
    88e0:	ea000003 	b	88f4 <console_read+0x2c>
    88e4:	e2844001 	add	r4, r4, #1
    88e8:	e1540007 	cmp	r4, r7
    88ec:	e1a05004 	mov	r5, r4
    88f0:	0a000004 	beq	8908 <console_read+0x40>
    88f4:	eb000495 	bl	9b50 <uart_getc_noblock>
    88f8:	e6ef0070 	uxtb	r0, r0
    88fc:	e3500000 	cmp	r0, #0
    8900:	e7c60005 	strb	r0, [r6, r5]
    8904:	1afffff6 	bne	88e4 <console_read+0x1c>
    8908:	e1a00004 	mov	r0, r4
    890c:	e8bd80f8 	pop	{r3, r4, r5, r6, r7, pc}
    8910:	e1a04007 	mov	r4, r7
    8914:	eafffffb 	b	8908 <console_read+0x40>

00008918 <dump_framebuffer_info.constprop.0>:
    8918:	e92d41f0 	push	{r4, r5, r6, r7, r8, lr}
    891c:	e59fc048 	ldr	ip, [pc, #72]	; 896c <dump_framebuffer_info.constprop.0+0x54>
    8920:	e24dd020 	sub	sp, sp, #32
    8924:	e89c010e 	ldm	ip, {r1, r2, r3, r8}
    8928:	e59c7010 	ldr	r7, [ip, #16]
    892c:	e59c6014 	ldr	r6, [ip, #20]
    8930:	e59c5018 	ldr	r5, [ip, #24]
    8934:	e59c401c 	ldr	r4, [ip, #28]
    8938:	e59ce020 	ldr	lr, [ip, #32]
    893c:	e59cc024 	ldr	ip, [ip, #36]	; 0x24
    8940:	e59f0028 	ldr	r0, [pc, #40]	; 8970 <dump_framebuffer_info.constprop.0+0x58>
    8944:	e58d8000 	str	r8, [sp]
    8948:	e58d7004 	str	r7, [sp, #4]
    894c:	e58d6008 	str	r6, [sp, #8]
    8950:	e58d500c 	str	r5, [sp, #12]
    8954:	e58d4010 	str	r4, [sp, #16]
    8958:	e58de014 	str	lr, [sp, #20]
    895c:	e58dc018 	str	ip, [sp, #24]
    8960:	eb0003e1 	bl	98ec <printk>
    8964:	e28dd020 	add	sp, sp, #32
    8968:	e8bd81f0 	pop	{r4, r5, r6, r7, r8, pc}
    896c:	00010010 	andeq	r0, r1, r0, lsl r0
    8970:	0000b36c 	andeq	fp, r0, ip, ror #6

00008974 <framebuffer_ready>:
    8974:	e59f3004 	ldr	r3, [pc, #4]	; 8980 <framebuffer_ready+0xc>
    8978:	e5930028 	ldr	r0, [r3, #40]	; 0x28
    897c:	e12fff1e 	bx	lr
    8980:	00010010 	andeq	r0, r1, r0, lsl r0

00008984 <framebuffer_init>:
    8984:	e92d4070 	push	{r4, r5, r6, lr}
    8988:	e59f40d0 	ldr	r4, [pc, #208]	; 8a60 <framebuffer_init+0xdc>
    898c:	e1a0c000 	mov	ip, r0
    8990:	e1a03001 	mov	r3, r1
    8994:	e3a05000 	mov	r5, #0
    8998:	e1a01004 	mov	r1, r4
    899c:	e5842014 	str	r2, [r4, #20]
    89a0:	e59f00bc 	ldr	r0, [pc, #188]	; 8a64 <framebuffer_init+0xe0>
    89a4:	e59f20bc 	ldr	r2, [pc, #188]	; 8a68 <framebuffer_init+0xe4>
    89a8:	e584c000 	str	ip, [r4]
    89ac:	e9841008 	stmib	r4, {r3, ip}
    89b0:	e584300c 	str	r3, [r4, #12]
    89b4:	e5845010 	str	r5, [r4, #16]
    89b8:	e5845018 	str	r5, [r4, #24]
    89bc:	e584501c 	str	r5, [r4, #28]
    89c0:	e5845020 	str	r5, [r4, #32]
    89c4:	e5845024 	str	r5, [r4, #36]	; 0x24
    89c8:	eb0003c7 	bl	98ec <printk>
    89cc:	e59f0098 	ldr	r0, [pc, #152]	; 8a6c <framebuffer_init+0xe8>
    89d0:	eb0003c5 	bl	98ec <printk>
    89d4:	ebffffcf 	bl	8918 <dump_framebuffer_info.constprop.0>
    89d8:	e2840101 	add	r0, r4, #1073741824	; 0x40000000
    89dc:	e3a01001 	mov	r1, #1
    89e0:	eb0002a2 	bl	9470 <mailbox_write>
    89e4:	e1500005 	cmp	r0, r5
    89e8:	ba000014 	blt	8a40 <framebuffer_init+0xbc>
    89ec:	e3a00001 	mov	r0, #1
    89f0:	eb0002c8 	bl	9518 <mailbox_read>
    89f4:	e1a06000 	mov	r6, r0
    89f8:	e59f0070 	ldr	r0, [pc, #112]	; 8a70 <framebuffer_init+0xec>
    89fc:	eb0003ba 	bl	98ec <printk>
    8a00:	ebffffc4 	bl	8918 <dump_framebuffer_info.constprop.0>
    8a04:	e3760001 	cmn	r6, #1
    8a08:	0a000010 	beq	8a50 <framebuffer_init+0xcc>
    8a0c:	e8941040 	ldm	r4, {r6, ip}
    8a10:	e5945020 	ldr	r5, [r4, #32]
    8a14:	e5941010 	ldr	r1, [r4, #16]
    8a18:	e5942014 	ldr	r2, [r4, #20]
    8a1c:	e3a03001 	mov	r3, #1
    8a20:	e584504c 	str	r5, [r4, #76]	; 0x4c
    8a24:	e1a00005 	mov	r0, r5
    8a28:	e584602c 	str	r6, [r4, #44]	; 0x2c
    8a2c:	e584c030 	str	ip, [r4, #48]	; 0x30
    8a30:	e584103c 	str	r1, [r4, #60]	; 0x3c
    8a34:	e5842040 	str	r2, [r4, #64]	; 0x40
    8a38:	e5843028 	str	r3, [r4, #40]	; 0x28
    8a3c:	e8bd8070 	pop	{r4, r5, r6, pc}
    8a40:	e59f002c 	ldr	r0, [pc, #44]	; 8a74 <framebuffer_init+0xf0>
    8a44:	eb0003a8 	bl	98ec <printk>
    8a48:	e1a00005 	mov	r0, r5
    8a4c:	e8bd8070 	pop	{r4, r5, r6, pc}
    8a50:	e59f0020 	ldr	r0, [pc, #32]	; 8a78 <framebuffer_init+0xf4>
    8a54:	eb0003a4 	bl	98ec <printk>
    8a58:	e1a00005 	mov	r0, r5
    8a5c:	e8bd8070 	pop	{r4, r5, r6, pc}
    8a60:	00010010 	andeq	r0, r1, r0, lsl r0
    8a64:	0000b3b0 			; <UNDEFINED> instruction: 0x0000b3b0
    8a68:	2000b880 	andcs	fp, r0, r0, lsl #17
    8a6c:	0000b3d8 	ldrdeq	fp, [r0], -r8
    8a70:	0000b400 	andeq	fp, r0, r0, lsl #8
    8a74:	0000b3e8 	andeq	fp, r0, r8, ror #7
    8a78:	0000b40c 	andeq	fp, r0, ip, lsl #8

00008a7c <framebuffer_hline>:
    8a7c:	e92d0070 	push	{r4, r5, r6}
    8a80:	e59f506c 	ldr	r5, [pc, #108]	; 8af4 <framebuffer_hline+0x78>
    8a84:	e20048ff 	and	r4, r0, #16711680	; 0xff0000
    8a88:	e200ccff 	and	ip, r0, #65280	; 0xff00
    8a8c:	e1510002 	cmp	r1, r2
    8a90:	e1a04844 	asr	r4, r4, #16
    8a94:	e1a0c44c 	asr	ip, ip, #8
    8a98:	e6ef0070 	uxtb	r0, r0
    8a9c:	e5956020 	ldr	r6, [r5, #32]
    8aa0:	aa000010 	bge	8ae8 <framebuffer_hline+0x6c>
    8aa4:	e595503c 	ldr	r5, [r5, #60]	; 0x3c
    8aa8:	e0811081 	add	r1, r1, r1, lsl #1
    8aac:	e0050395 	mul	r5, r5, r3
    8ab0:	e0822082 	add	r2, r2, r2, lsl #1
    8ab4:	e0811005 	add	r1, r1, r5
    8ab8:	e0855006 	add	r5, r5, r6
    8abc:	e0811006 	add	r1, r1, r6
    8ac0:	e0852002 	add	r2, r5, r2
    8ac4:	e6ef4074 	uxtb	r4, r4
    8ac8:	e6efc07c 	uxtb	ip, ip
    8acc:	e6ef3070 	uxtb	r3, r0
    8ad0:	e5c14000 	strb	r4, [r1]
    8ad4:	e5c1c001 	strb	ip, [r1, #1]
    8ad8:	e5c13002 	strb	r3, [r1, #2]
    8adc:	e2811003 	add	r1, r1, #3
    8ae0:	e1510002 	cmp	r1, r2
    8ae4:	1afffff9 	bne	8ad0 <framebuffer_hline+0x54>
    8ae8:	e3a00000 	mov	r0, #0
    8aec:	e8bd0070 	pop	{r4, r5, r6}
    8af0:	e12fff1e 	bx	lr
    8af4:	00010010 	andeq	r0, r1, r0, lsl r0

00008af8 <framebuffer_vline>:
    8af8:	e59fc064 	ldr	ip, [pc, #100]	; 8b64 <framebuffer_vline+0x6c>
    8afc:	e92d0070 	push	{r4, r5, r6}
    8b00:	e1510002 	cmp	r1, r2
    8b04:	e20058ff 	and	r5, r0, #16711680	; 0xff0000
    8b08:	e2004cff 	and	r4, r0, #65280	; 0xff00
    8b0c:	e1a05845 	asr	r5, r5, #16
    8b10:	e1a04444 	asr	r4, r4, #8
    8b14:	e6ef0070 	uxtb	r0, r0
    8b18:	e59c6020 	ldr	r6, [ip, #32]
    8b1c:	aa00000d 	bge	8b58 <framebuffer_vline+0x60>
    8b20:	e59cc03c 	ldr	ip, [ip, #60]	; 0x3c
    8b24:	e0833083 	add	r3, r3, r3, lsl #1
    8b28:	e023319c 	mla	r3, ip, r1, r3
    8b2c:	e6ef5075 	uxtb	r5, r5
    8b30:	e0833006 	add	r3, r3, r6
    8b34:	e6ef4074 	uxtb	r4, r4
    8b38:	e6ef0070 	uxtb	r0, r0
    8b3c:	e2811001 	add	r1, r1, #1
    8b40:	e1510002 	cmp	r1, r2
    8b44:	e5c35000 	strb	r5, [r3]
    8b48:	e5c34001 	strb	r4, [r3, #1]
    8b4c:	e5c30002 	strb	r0, [r3, #2]
    8b50:	e083300c 	add	r3, r3, ip
    8b54:	1afffff8 	bne	8b3c <framebuffer_vline+0x44>
    8b58:	e3a00000 	mov	r0, #0
    8b5c:	e8bd0070 	pop	{r4, r5, r6}
    8b60:	e12fff1e 	bx	lr
    8b64:	00010010 	andeq	r0, r1, r0, lsl r0

00008b68 <framebuffer_clear_screen>:
    8b68:	e92d40f8 	push	{r3, r4, r5, r6, r7, lr}
    8b6c:	e59f303c 	ldr	r3, [pc, #60]	; 8bb0 <framebuffer_clear_screen+0x48>
    8b70:	e1a06000 	mov	r6, r0
    8b74:	e5935030 	ldr	r5, [r3, #48]	; 0x30
    8b78:	e3550000 	cmp	r5, #0
    8b7c:	da000009 	ble	8ba8 <framebuffer_clear_screen+0x40>
    8b80:	e593702c 	ldr	r7, [r3, #44]	; 0x2c
    8b84:	e3a04000 	mov	r4, #0
    8b88:	e1a03004 	mov	r3, r4
    8b8c:	e1a00006 	mov	r0, r6
    8b90:	e3a01000 	mov	r1, #0
    8b94:	e1a02007 	mov	r2, r7
    8b98:	e2844001 	add	r4, r4, #1
    8b9c:	ebffffb6 	bl	8a7c <framebuffer_hline>
    8ba0:	e1540005 	cmp	r4, r5
    8ba4:	1afffff7 	bne	8b88 <framebuffer_clear_screen+0x20>
    8ba8:	e3a00000 	mov	r0, #0
    8bac:	e8bd80f8 	pop	{r3, r4, r5, r6, r7, pc}
    8bb0:	00010010 	andeq	r0, r1, r0, lsl r0

00008bb4 <framebuffer_putpixel>:
    8bb4:	e59f3030 	ldr	r3, [pc, #48]	; 8bec <framebuffer_putpixel+0x38>
    8bb8:	e0811081 	add	r1, r1, r1, lsl #1
    8bbc:	e593c03c 	ldr	ip, [r3, #60]	; 0x3c
    8bc0:	e5933020 	ldr	r3, [r3, #32]
    8bc4:	e022129c 	mla	r2, ip, r2, r1
    8bc8:	e52d4004 	push	{r4}		; (str r4, [sp, #-4]!)
    8bcc:	e1a04820 	lsr	r4, r0, #16
    8bd0:	e7e34002 	strb	r4, [r3, r2]!
    8bd4:	e1a02420 	lsr	r2, r0, #8
    8bd8:	e5c30002 	strb	r0, [r3, #2]
    8bdc:	e5c32001 	strb	r2, [r3, #1]
    8be0:	e3a00000 	mov	r0, #0
    8be4:	e49d4004 	pop	{r4}		; (ldr r4, [sp], #4)
    8be8:	e12fff1e 	bx	lr
    8bec:	00010010 	andeq	r0, r1, r0, lsl r0

00008bf0 <framebuffer_gradient>:
    8bf0:	e3a00000 	mov	r0, #0
    8bf4:	e12fff1e 	bx	lr

00008bf8 <framebuffer_console_setfont>:
    8bf8:	e92d4008 	push	{r3, lr}
    8bfc:	e59f3024 	ldr	r3, [pc, #36]	; 8c28 <framebuffer_console_setfont+0x30>
    8c00:	e59f2024 	ldr	r2, [pc, #36]	; 8c2c <framebuffer_console_setfont+0x34>
    8c04:	e283c004 	add	ip, r3, #4
    8c08:	e3a01010 	mov	r1, #16
    8c0c:	e59f001c 	ldr	r0, [pc, #28]	; 8c30 <framebuffer_console_setfont+0x38>
    8c10:	e583c000 	str	ip, [r3]
    8c14:	e5021ff4 	str	r1, [r2, #-4084]	; 0xff4
    8c18:	eb000333 	bl	98ec <printk>
    8c1c:	e8bd4008 	pop	{r3, lr}
    8c20:	e3a00000 	mov	r0, #0
    8c24:	eaffffcf 	b	8b68 <framebuffer_clear_screen>
    8c28:	0000c008 	andeq	ip, r0, r8
    8c2c:	0000e000 	andeq	lr, r0, r0
    8c30:	0000b424 	andeq	fp, r0, r4, lsr #8

00008c34 <framebuffer_console_clear>:
    8c34:	e92d4070 	push	{r4, r5, r6, lr}
    8c38:	e59f5048 	ldr	r5, [pc, #72]	; 8c88 <framebuffer_console_clear+0x54>
    8c3c:	e3a00000 	mov	r0, #0
    8c40:	ebffffc8 	bl	8b68 <framebuffer_clear_screen>
    8c44:	e3a04000 	mov	r4, #0
    8c48:	e2856eaf 	add	r6, r5, #2800	; 0xaf0
    8c4c:	e3a0c020 	mov	ip, #32
    8c50:	e3a00007 	mov	r0, #7
    8c54:	e3a03000 	mov	r3, #0
    8c58:	e0851004 	add	r1, r5, r4
    8c5c:	e0862004 	add	r2, r6, r4
    8c60:	e7c1c003 	strb	ip, [r1, r3]
    8c64:	e7c20003 	strb	r0, [r2, r3]
    8c68:	e2833001 	add	r3, r3, #1
    8c6c:	e3530050 	cmp	r3, #80	; 0x50
    8c70:	1afffffa 	bne	8c60 <framebuffer_console_clear+0x2c>
    8c74:	e2844050 	add	r4, r4, #80	; 0x50
    8c78:	e3540eaf 	cmp	r4, #2800	; 0xaf0
    8c7c:	1afffff4 	bne	8c54 <framebuffer_console_clear+0x20>
    8c80:	e3a00000 	mov	r0, #0
    8c84:	e8bd8070 	pop	{r4, r5, r6, pc}
    8c88:	00010070 	andeq	r0, r1, r0, ror r0

00008c8c <framebuffer_console_home>:
    8c8c:	e59f300c 	ldr	r3, [pc, #12]	; 8ca0 <framebuffer_console_home+0x14>
    8c90:	e3a00000 	mov	r0, #0
    8c94:	e5030a18 	str	r0, [r3, #-2584]	; 0xa18
    8c98:	e5030a14 	str	r0, [r3, #-2580]	; 0xa14
    8c9c:	e12fff1e 	bx	lr
    8ca0:	00012068 	andeq	r2, r1, r8, rrx

00008ca4 <framebuffer_console_init>:
    8ca4:	e92d4008 	push	{r3, lr}
    8ca8:	ebffffe1 	bl	8c34 <framebuffer_console_clear>
    8cac:	e59f300c 	ldr	r3, [pc, #12]	; 8cc0 <framebuffer_console_init+0x1c>
    8cb0:	e3a00000 	mov	r0, #0
    8cb4:	e5030a18 	str	r0, [r3, #-2584]	; 0xa18
    8cb8:	e5030a14 	str	r0, [r3, #-2580]	; 0xa14
    8cbc:	e8bd8008 	pop	{r3, pc}
    8cc0:	00012068 	andeq	r2, r1, r8, rrx

00008cc4 <framebuffer_console_push>:
    8cc4:	e92d4008 	push	{r3, lr}
    8cc8:	ebffff29 	bl	8974 <framebuffer_ready>
    8ccc:	e3500000 	cmp	r0, #0
    8cd0:	13a00000 	movne	r0, #0
    8cd4:	03e00000 	mvneq	r0, #0
    8cd8:	e8bd8008 	pop	{r3, pc}

00008cdc <framebuffer_console_write>:
    8cdc:	e92d4ff0 	push	{r4, r5, r6, r7, r8, r9, sl, fp, lr}
    8ce0:	e251b000 	subs	fp, r1, #0
    8ce4:	e24dd024 	sub	sp, sp, #36	; 0x24
    8ce8:	e1a0a000 	mov	sl, r0
    8cec:	da000041 	ble	8df8 <framebuffer_console_write+0x11c>
    8cf0:	e59f62c4 	ldr	r6, [pc, #708]	; 8fbc <framebuffer_console_write+0x2e0>
    8cf4:	e59f82c4 	ldr	r8, [pc, #708]	; 8fc0 <framebuffer_console_write+0x2e4>
    8cf8:	e59f42c4 	ldr	r4, [pc, #708]	; 8fc4 <framebuffer_console_write+0x2e8>
    8cfc:	e59f72c4 	ldr	r7, [pc, #708]	; 8fc8 <framebuffer_console_write+0x2ec>
    8d00:	e1a09006 	mov	r9, r6
    8d04:	e3a05000 	mov	r5, #0
    8d08:	ea000002 	b	8d18 <framebuffer_console_write+0x3c>
    8d0c:	e2855001 	add	r5, r5, #1
    8d10:	e15b0005 	cmp	fp, r5
    8d14:	da000037 	ble	8df8 <framebuffer_console_write+0x11c>
    8d18:	e7da3005 	ldrb	r3, [sl, r5]
    8d1c:	e353000d 	cmp	r3, #13
    8d20:	0a000038 	beq	8e08 <framebuffer_console_write+0x12c>
    8d24:	e353000a 	cmp	r3, #10
    8d28:	0a00003b 	beq	8e1c <framebuffer_console_write+0x140>
    8d2c:	e3530009 	cmp	r3, #9
    8d30:	0a00003f 	beq	8e34 <framebuffer_console_write+0x158>
    8d34:	e3530008 	cmp	r3, #8
    8d38:	0a000043 	beq	8e4c <framebuffer_console_write+0x170>
    8d3c:	e353001b 	cmp	r3, #27
    8d40:	0a000048 	beq	8e68 <framebuffer_console_write+0x18c>
    8d44:	e5160a14 	ldr	r0, [r6, #-2580]	; 0xa14
    8d48:	e5162a18 	ldr	r2, [r6, #-2584]	; 0xa18
    8d4c:	e080e100 	add	lr, r0, r0, lsl #2
    8d50:	e082e20e 	add	lr, r2, lr, lsl #4
    8d54:	e1a01008 	mov	r1, r8
    8d58:	e517cff0 	ldr	ip, [r7, #-4080]	; 0xff0
    8d5c:	e7e1300e 	strb	r3, [r1, lr]!
    8d60:	e516ea10 	ldr	lr, [r6, #-2576]	; 0xa10
    8d64:	e20cc00f 	and	ip, ip, #15
    8d68:	e2822001 	add	r2, r2, #1
    8d6c:	e18cc20e 	orr	ip, ip, lr, lsl #4
    8d70:	e1a03000 	mov	r3, r0
    8d74:	e5062a18 	str	r2, [r6, #-2584]	; 0xa18
    8d78:	e5c1caf0 	strb	ip, [r1, #2800]	; 0xaf0
    8d7c:	e352004f 	cmp	r2, #79	; 0x4f
    8d80:	c2833001 	addgt	r3, r3, #1
    8d84:	c3a02000 	movgt	r2, #0
    8d88:	c5063a14 	strgt	r3, [r6, #-2580]	; 0xa14
    8d8c:	c5062a18 	strgt	r2, [r6, #-2584]	; 0xa18
    8d90:	e3530022 	cmp	r3, #34	; 0x22
    8d94:	daffffdc 	ble	8d0c <framebuffer_console_write+0x30>
    8d98:	e3a00000 	mov	r0, #0
    8d9c:	ebffff71 	bl	8b68 <framebuffer_clear_screen>
    8da0:	e59f0218 	ldr	r0, [pc, #536]	; 8fc0 <framebuffer_console_write+0x2e4>
    8da4:	e3a02eaa 	mov	r2, #2720	; 0xaa0
    8da8:	e2801050 	add	r1, r0, #80	; 0x50
    8dac:	eb0003be 	bl	9cac <memcpy>
    8db0:	e59f0214 	ldr	r0, [pc, #532]	; 8fcc <framebuffer_console_write+0x2f0>
    8db4:	e3a02eaa 	mov	r2, #2720	; 0xaa0
    8db8:	e2801050 	add	r1, r0, #80	; 0x50
    8dbc:	eb0003ba 	bl	9cac <memcpy>
    8dc0:	e59f3208 	ldr	r3, [pc, #520]	; 8fd0 <framebuffer_console_write+0x2f4>
    8dc4:	e3a00020 	mov	r0, #32
    8dc8:	e2832eaf 	add	r2, r3, #2800	; 0xaf0
    8dcc:	e3a01007 	mov	r1, #7
    8dd0:	e5e30001 	strb	r0, [r3, #1]!
    8dd4:	e1530004 	cmp	r3, r4
    8dd8:	e5e21001 	strb	r1, [r2, #1]!
    8ddc:	1afffffb 	bne	8dd0 <framebuffer_console_write+0xf4>
    8de0:	e5163a14 	ldr	r3, [r6, #-2580]	; 0xa14
    8de4:	e2855001 	add	r5, r5, #1
    8de8:	e2433001 	sub	r3, r3, #1
    8dec:	e15b0005 	cmp	fp, r5
    8df0:	e5063a14 	str	r3, [r6, #-2580]	; 0xa14
    8df4:	caffffc7 	bgt	8d18 <framebuffer_console_write+0x3c>
    8df8:	ebfffedd 	bl	8974 <framebuffer_ready>
    8dfc:	e3a00000 	mov	r0, #0
    8e00:	e28dd024 	add	sp, sp, #36	; 0x24
    8e04:	e8bd8ff0 	pop	{r4, r5, r6, r7, r8, r9, sl, fp, pc}
    8e08:	e5163a14 	ldr	r3, [r6, #-2580]	; 0xa14
    8e0c:	e5162a18 	ldr	r2, [r6, #-2584]	; 0xa18
    8e10:	e2833001 	add	r3, r3, #1
    8e14:	e5063a14 	str	r3, [r6, #-2580]	; 0xa14
    8e18:	eaffffd7 	b	8d7c <framebuffer_console_write+0xa0>
    8e1c:	e5163a14 	ldr	r3, [r6, #-2580]	; 0xa14
    8e20:	e3a02000 	mov	r2, #0
    8e24:	e2833001 	add	r3, r3, #1
    8e28:	e5063a14 	str	r3, [r6, #-2580]	; 0xa14
    8e2c:	e5062a18 	str	r2, [r6, #-2584]	; 0xa18
    8e30:	eaffffd6 	b	8d90 <framebuffer_console_write+0xb4>
    8e34:	e5162a18 	ldr	r2, [r6, #-2584]	; 0xa18
    8e38:	e5163a14 	ldr	r3, [r6, #-2580]	; 0xa14
    8e3c:	e2822008 	add	r2, r2, #8
    8e40:	e3c22007 	bic	r2, r2, #7
    8e44:	e5062a18 	str	r2, [r6, #-2584]	; 0xa18
    8e48:	eaffffcb 	b	8d7c <framebuffer_console_write+0xa0>
    8e4c:	e5162a18 	ldr	r2, [r6, #-2584]	; 0xa18
    8e50:	e2422001 	sub	r2, r2, #1
    8e54:	e3520000 	cmp	r2, #0
    8e58:	e5062a18 	str	r2, [r6, #-2584]	; 0xa18
    8e5c:	ba000009 	blt	8e88 <framebuffer_console_write+0x1ac>
    8e60:	e5193a14 	ldr	r3, [r9, #-2580]	; 0xa14
    8e64:	eaffffc4 	b	8d7c <framebuffer_console_write+0xa0>
    8e68:	e2853001 	add	r3, r5, #1
    8e6c:	e7da2003 	ldrb	r2, [sl, r3]
    8e70:	e352005b 	cmp	r2, #91	; 0x5b
    8e74:	0a000007 	beq	8e98 <framebuffer_console_write+0x1bc>
    8e78:	e1a05003 	mov	r5, r3
    8e7c:	e5162a18 	ldr	r2, [r6, #-2584]	; 0xa18
    8e80:	e5163a14 	ldr	r3, [r6, #-2580]	; 0xa14
    8e84:	eaffffbc 	b	8d7c <framebuffer_console_write+0xa0>
    8e88:	e3a03000 	mov	r3, #0
    8e8c:	e5093a18 	str	r3, [r9, #-2584]	; 0xa18
    8e90:	e5193a14 	ldr	r3, [r9, #-2580]	; 0xa14
    8e94:	eaffffbd 	b	8d90 <framebuffer_console_write+0xb4>
    8e98:	e2855002 	add	r5, r5, #2
    8e9c:	e7da2005 	ldrb	r2, [sl, r5]
    8ea0:	e3c23020 	bic	r3, r2, #32
    8ea4:	e2433041 	sub	r3, r3, #65	; 0x41
    8ea8:	e6ef3073 	uxtb	r3, r3
    8eac:	e3530019 	cmp	r3, #25
    8eb0:	83a03000 	movhi	r3, #0
    8eb4:	828d000c 	addhi	r0, sp, #12
    8eb8:	9a000036 	bls	8f98 <framebuffer_console_write+0x2bc>
    8ebc:	e2855001 	add	r5, r5, #1
    8ec0:	e7c02003 	strb	r2, [r0, r3]
    8ec4:	e7da2005 	ldrb	r2, [sl, r5]
    8ec8:	e2833001 	add	r3, r3, #1
    8ecc:	e3c21020 	bic	r1, r2, #32
    8ed0:	e2411041 	sub	r1, r1, #65	; 0x41
    8ed4:	e6ef1071 	uxtb	r1, r1
    8ed8:	e3510019 	cmp	r1, #25
    8edc:	8afffff6 	bhi	8ebc <framebuffer_console_write+0x1e0>
    8ee0:	e2830001 	add	r0, r3, #1
    8ee4:	e28d1020 	add	r1, sp, #32
    8ee8:	e0813003 	add	r3, r1, r3
    8eec:	e0810000 	add	r0, r1, r0
    8ef0:	e3a01000 	mov	r1, #0
    8ef4:	e5432014 	strb	r2, [r3, #-20]
    8ef8:	e5401014 	strb	r1, [r0, #-20]
    8efc:	e5533014 	ldrb	r3, [r3, #-20]
    8f00:	e353004a 	cmp	r3, #74	; 0x4a
    8f04:	0a000026 	beq	8fa4 <framebuffer_console_write+0x2c8>
    8f08:	e353006d 	cmp	r3, #109	; 0x6d
    8f0c:	0a000002 	beq	8f1c <framebuffer_console_write+0x240>
    8f10:	e5162a18 	ldr	r2, [r6, #-2584]	; 0xa18
    8f14:	e5163a14 	ldr	r3, [r6, #-2580]	; 0xa14
    8f18:	eaffff97 	b	8d7c <framebuffer_console_write+0xa0>
    8f1c:	e5dd300c 	ldrb	r3, [sp, #12]
    8f20:	e3530000 	cmp	r3, #0
    8f24:	0afffff9 	beq	8f10 <framebuffer_console_write+0x234>
    8f28:	e5170ff0 	ldr	r0, [r7, #-4080]	; 0xff0
    8f2c:	e5162a10 	ldr	r2, [r6, #-2576]	; 0xa10
    8f30:	e28dc00c 	add	ip, sp, #12
    8f34:	ea00000d 	b	8f70 <framebuffer_console_write+0x294>
    8f38:	e3510000 	cmp	r1, #0
    8f3c:	01a02001 	moveq	r2, r1
    8f40:	03a00007 	moveq	r0, #7
    8f44:	0a000006 	beq	8f64 <framebuffer_console_write+0x288>
    8f48:	e241301e 	sub	r3, r1, #30
    8f4c:	e3530007 	cmp	r3, #7
    8f50:	e2411028 	sub	r1, r1, #40	; 0x28
    8f54:	91a00003 	movls	r0, r3
    8f58:	e3510007 	cmp	r1, #7
    8f5c:	91a02001 	movls	r2, r1
    8f60:	e3a01000 	mov	r1, #0
    8f64:	e5fc3001 	ldrb	r3, [ip, #1]!
    8f68:	e3530000 	cmp	r3, #0
    8f6c:	0a000006 	beq	8f8c <framebuffer_console_write+0x2b0>
    8f70:	e353003b 	cmp	r3, #59	; 0x3b
    8f74:	1353006d 	cmpne	r3, #109	; 0x6d
    8f78:	0affffee 	beq	8f38 <framebuffer_console_write+0x25c>
    8f7c:	e0811101 	add	r1, r1, r1, lsl #2
    8f80:	e2433030 	sub	r3, r3, #48	; 0x30
    8f84:	e0831081 	add	r1, r3, r1, lsl #1
    8f88:	eafffff5 	b	8f64 <framebuffer_console_write+0x288>
    8f8c:	e5070ff0 	str	r0, [r7, #-4080]	; 0xff0
    8f90:	e5062a10 	str	r2, [r6, #-2576]	; 0xa10
    8f94:	eaffffdd 	b	8f10 <framebuffer_console_write+0x234>
    8f98:	e3a00001 	mov	r0, #1
    8f9c:	e3a03000 	mov	r3, #0
    8fa0:	eaffffcf 	b	8ee4 <framebuffer_console_write+0x208>
    8fa4:	e58d1004 	str	r1, [sp, #4]
    8fa8:	ebffff21 	bl	8c34 <framebuffer_console_clear>
    8fac:	e59d1004 	ldr	r1, [sp, #4]
    8fb0:	e5061a18 	str	r1, [r6, #-2584]	; 0xa18
    8fb4:	e5061a14 	str	r1, [r6, #-2580]	; 0xa14
    8fb8:	eaffff53 	b	8d0c <framebuffer_console_write+0x30>
    8fbc:	00012068 	andeq	r2, r1, r8, rrx
    8fc0:	00010070 	andeq	r0, r1, r0, ror r0
    8fc4:	00010b5f 	andeq	r0, r1, pc, asr fp
    8fc8:	0000e000 	andeq	lr, r0, r0
    8fcc:	00010b60 	andeq	r0, r1, r0, ror #22
    8fd0:	00010b0f 	andeq	r0, r1, pc, lsl #22

00008fd4 <framebuffer_console_val>:
    8fd4:	e350004f 	cmp	r0, #79	; 0x4f
    8fd8:	ca000006 	bgt	8ff8 <framebuffer_console_val+0x24>
    8fdc:	e3510022 	cmp	r1, #34	; 0x22
    8fe0:	ca000004 	bgt	8ff8 <framebuffer_console_val+0x24>
    8fe4:	e0811101 	add	r1, r1, r1, lsl #2
    8fe8:	e59f3010 	ldr	r3, [pc, #16]	; 9000 <framebuffer_console_val+0x2c>
    8fec:	e0800201 	add	r0, r0, r1, lsl #4
    8ff0:	e7d30000 	ldrb	r0, [r3, r0]
    8ff4:	e12fff1e 	bx	lr
    8ff8:	e3e00000 	mvn	r0, #0
    8ffc:	e12fff1e 	bx	lr
    9000:	00010070 	andeq	r0, r1, r0, ror r0

00009004 <framebuffer_console_putchar>:
    9004:	e3a00000 	mov	r0, #0
    9008:	e12fff1e 	bx	lr

0000900c <gpio_request>:
    900c:	e3500036 	cmp	r0, #54	; 0x36
    9010:	e92d41f0 	push	{r4, r5, r6, r7, r8, lr}
    9014:	e1a08001 	mov	r8, r1
    9018:	ca00001a 	bgt	9088 <gpio_request+0x7c>
    901c:	e59fc08c 	ldr	ip, [pc, #140]	; 90b0 <gpio_request+0xa4>
    9020:	e2601020 	rsb	r1, r0, #32
    9024:	e1cc40d0 	ldrd	r4, [ip]
    9028:	e1a02034 	lsr	r2, r4, r0
    902c:	e1822115 	orr	r2, r2, r5, lsl r1
    9030:	e240e020 	sub	lr, r0, #32
    9034:	e1822e35 	orr	r2, r2, r5, lsr lr
    9038:	e1a03035 	lsr	r3, r5, r0
    903c:	e3a06001 	mov	r6, #1
    9040:	e3a07000 	mov	r7, #0
    9044:	e0022006 	and	r2, r2, r6
    9048:	e0033007 	and	r3, r3, r7
    904c:	e1926003 	orrs	r6, r2, r3
    9050:	1a000011 	bne	909c <gpio_request+0x90>
    9054:	e3a03001 	mov	r3, #1
    9058:	e1a07e13 	lsl	r7, r3, lr
    905c:	e1a06013 	lsl	r6, r3, r0
    9060:	e1877133 	orr	r7, r7, r3, lsr r1
    9064:	e1a02008 	mov	r2, r8
    9068:	e1a01000 	mov	r1, r0
    906c:	e1844006 	orr	r4, r4, r6
    9070:	e1855007 	orr	r5, r5, r7
    9074:	e59f0038 	ldr	r0, [pc, #56]	; 90b4 <gpio_request+0xa8>
    9078:	e1cc40f0 	strd	r4, [ip]
    907c:	eb00021a 	bl	98ec <printk>
    9080:	e3a00000 	mov	r0, #0
    9084:	e8bd81f0 	pop	{r4, r5, r6, r7, r8, pc}
    9088:	e1a01000 	mov	r1, r0
    908c:	e59f0024 	ldr	r0, [pc, #36]	; 90b8 <gpio_request+0xac>
    9090:	eb000215 	bl	98ec <printk>
    9094:	e3e00000 	mvn	r0, #0
    9098:	e8bd81f0 	pop	{r4, r5, r6, r7, r8, pc}
    909c:	e1a01000 	mov	r1, r0
    90a0:	e59f0014 	ldr	r0, [pc, #20]	; 90bc <gpio_request+0xb0>
    90a4:	eb000210 	bl	98ec <printk>
    90a8:	e3e00000 	mvn	r0, #0
    90ac:	e8bd81f0 	pop	{r4, r5, r6, r7, r8, pc}
    90b0:	00011660 	andeq	r1, r1, r0, ror #12
    90b4:	0000b460 	andeq	fp, r0, r0, ror #8
    90b8:	0000b438 	andeq	fp, r0, r8, lsr r4
    90bc:	0000b448 	andeq	fp, r0, r8, asr #8

000090c0 <gpio_free>:
    90c0:	e3500036 	cmp	r0, #54	; 0x36
    90c4:	e92d4038 	push	{r3, r4, r5, lr}
    90c8:	ca00000f 	bgt	910c <gpio_free+0x4c>
    90cc:	e3a01001 	mov	r1, #1
    90d0:	e240c020 	sub	ip, r0, #32
    90d4:	e1a03c11 	lsl	r3, r1, ip
    90d8:	e260c020 	rsb	ip, r0, #32
    90dc:	e1833c31 	orr	r3, r3, r1, lsr ip
    90e0:	e1a02011 	lsl	r2, r1, r0
    90e4:	e59fc034 	ldr	ip, [pc, #52]	; 9120 <gpio_free+0x60>
    90e8:	e1a01000 	mov	r1, r0
    90ec:	e1cc40d0 	ldrd	r4, [ip]
    90f0:	e59f002c 	ldr	r0, [pc, #44]	; 9124 <gpio_free+0x64>
    90f4:	e1c42002 	bic	r2, r4, r2
    90f8:	e1c53003 	bic	r3, r5, r3
    90fc:	e1cc20f0 	strd	r2, [ip]
    9100:	eb0001f9 	bl	98ec <printk>
    9104:	e3a00000 	mov	r0, #0
    9108:	e8bd8038 	pop	{r3, r4, r5, pc}
    910c:	e1a01000 	mov	r1, r0
    9110:	e59f0010 	ldr	r0, [pc, #16]	; 9128 <gpio_free+0x68>
    9114:	eb0001f4 	bl	98ec <printk>
    9118:	e3e00000 	mvn	r0, #0
    911c:	e8bd8038 	pop	{r3, r4, r5, pc}
    9120:	00011660 	andeq	r1, r1, r0, ror #12
    9124:	0000b47c 	andeq	fp, r0, ip, ror r4
    9128:	0000b438 	andeq	fp, r0, r8, lsr r4

0000912c <gpio_direction_input>:
    912c:	e3500036 	cmp	r0, #54	; 0x36
    9130:	e92d4010 	push	{r4, lr}
    9134:	ca000011 	bgt	9180 <gpio_direction_input+0x54>
    9138:	e59f3054 	ldr	r3, [pc, #84]	; 9194 <gpio_direction_input+0x68>
    913c:	e1a02fc0 	asr	r2, r0, #31
    9140:	e0c31093 	smull	r1, r3, r3, r0
    9144:	e0623143 	rsb	r3, r2, r3, asr #2
    9148:	e1a03103 	lsl	r3, r3, #2
    914c:	e2833202 	add	r3, r3, #536870912	; 0x20000000
    9150:	e2833602 	add	r3, r3, #2097152	; 0x200000
    9154:	e5931000 	ldr	r1, [r3]
    9158:	e59f2034 	ldr	r2, [pc, #52]	; 9194 <gpio_direction_input+0x68>
    915c:	e1a0cfc0 	asr	ip, r0, #31
    9160:	e0c24092 	smull	r4, r2, r2, r0
    9164:	e06c2142 	rsb	r2, ip, r2, asr #2
    9168:	e0822102 	add	r2, r2, r2, lsl #2
    916c:	e0400082 	sub	r0, r0, r2, lsl #1
    9170:	e1c10180 	bic	r0, r1, r0, lsl #3
    9174:	e5830000 	str	r0, [r3]
    9178:	e3a00000 	mov	r0, #0
    917c:	e8bd8010 	pop	{r4, pc}
    9180:	e1a01000 	mov	r1, r0
    9184:	e59f000c 	ldr	r0, [pc, #12]	; 9198 <gpio_direction_input+0x6c>
    9188:	eb0001d7 	bl	98ec <printk>
    918c:	e3e00000 	mvn	r0, #0
    9190:	e8bd8010 	pop	{r4, pc}
    9194:	66666667 	strbtvs	r6, [r6], -r7, ror #12
    9198:	0000b438 	andeq	fp, r0, r8, lsr r4

0000919c <gpio_direction_output>:
    919c:	e3500036 	cmp	r0, #54	; 0x36
    91a0:	e92d4010 	push	{r4, lr}
    91a4:	ca000011 	bgt	91f0 <gpio_direction_output+0x54>
    91a8:	e59f3054 	ldr	r3, [pc, #84]	; 9204 <gpio_direction_output+0x68>
    91ac:	e1a02fc0 	asr	r2, r0, #31
    91b0:	e0c31093 	smull	r1, r3, r3, r0
    91b4:	e0623143 	rsb	r3, r2, r3, asr #2
    91b8:	e1a03103 	lsl	r3, r3, #2
    91bc:	e2833202 	add	r3, r3, #536870912	; 0x20000000
    91c0:	e2833602 	add	r3, r3, #2097152	; 0x200000
    91c4:	e5931000 	ldr	r1, [r3]
    91c8:	e59f2034 	ldr	r2, [pc, #52]	; 9204 <gpio_direction_output+0x68>
    91cc:	e1a0cfc0 	asr	ip, r0, #31
    91d0:	e0c24092 	smull	r4, r2, r2, r0
    91d4:	e06c2142 	rsb	r2, ip, r2, asr #2
    91d8:	e0822102 	add	r2, r2, r2, lsl #2
    91dc:	e0400082 	sub	r0, r0, r2, lsl #1
    91e0:	e1810180 	orr	r0, r1, r0, lsl #3
    91e4:	e5830000 	str	r0, [r3]
    91e8:	e3a00000 	mov	r0, #0
    91ec:	e8bd8010 	pop	{r4, pc}
    91f0:	e1a01000 	mov	r1, r0
    91f4:	e59f000c 	ldr	r0, [pc, #12]	; 9208 <gpio_direction_output+0x6c>
    91f8:	eb0001bb 	bl	98ec <printk>
    91fc:	e3e00000 	mvn	r0, #0
    9200:	e8bd8010 	pop	{r4, pc}
    9204:	66666667 	strbtvs	r6, [r6], -r7, ror #12
    9208:	0000b438 	andeq	fp, r0, r8, lsr r4

0000920c <gpio_to_irq>:
    920c:	e3a00031 	mov	r0, #49	; 0x31
    9210:	e12fff1e 	bx	lr

00009214 <gpio_get_value>:
    9214:	e3500036 	cmp	r0, #54	; 0x36
    9218:	e92d4008 	push	{r3, lr}
    921c:	ca00000d 	bgt	9258 <gpio_get_value+0x44>
    9220:	e3500000 	cmp	r0, #0
    9224:	e280201f 	add	r2, r0, #31
    9228:	a1a02000 	movge	r2, r0
    922c:	e1a022c2 	asr	r2, r2, #5
    9230:	e59f3034 	ldr	r3, [pc, #52]	; 926c <gpio_get_value+0x58>
    9234:	e1a02102 	lsl	r2, r2, #2
    9238:	e0823003 	add	r3, r2, r3
    923c:	e5933000 	ldr	r3, [r3]
    9240:	e3a02001 	mov	r2, #1
    9244:	e200001f 	and	r0, r0, #31
    9248:	e0132012 	ands	r2, r3, r2, lsl r0
    924c:	03a00000 	moveq	r0, #0
    9250:	13a00001 	movne	r0, #1
    9254:	e8bd8008 	pop	{r3, pc}
    9258:	e1a01000 	mov	r1, r0
    925c:	e59f000c 	ldr	r0, [pc, #12]	; 9270 <gpio_get_value+0x5c>
    9260:	eb0001a1 	bl	98ec <printk>
    9264:	e3e00000 	mvn	r0, #0
    9268:	e8bd8008 	pop	{r3, pc}
    926c:	20200034 	eorcs	r0, r0, r4, lsr r0
    9270:	0000b48c 	andeq	fp, r0, ip, lsl #9

00009274 <gpio_set_value>:
    9274:	e3500036 	cmp	r0, #54	; 0x36
    9278:	e92d4008 	push	{r3, lr}
    927c:	ca000019 	bgt	92e8 <gpio_set_value+0x74>
    9280:	e3500000 	cmp	r0, #0
    9284:	e280c01f 	add	ip, r0, #31
    9288:	a1a0c000 	movge	ip, r0
    928c:	e1a0c2cc 	asr	ip, ip, #5
    9290:	e200001f 	and	r0, r0, #31
    9294:	e3a02001 	mov	r2, #1
    9298:	e3510000 	cmp	r1, #0
    929c:	e1a0c10c 	lsl	ip, ip, #2
    92a0:	e1a00012 	lsl	r0, r2, r0
    92a4:	0a00000a 	beq	92d4 <gpio_set_value+0x60>
    92a8:	e3510001 	cmp	r1, #1
    92ac:	0a000003 	beq	92c0 <gpio_set_value+0x4c>
    92b0:	e59f0044 	ldr	r0, [pc, #68]	; 92fc <gpio_set_value+0x88>
    92b4:	eb00018c 	bl	98ec <printk>
    92b8:	e3a00000 	mov	r0, #0
    92bc:	e8bd8008 	pop	{r3, pc}
    92c0:	e59f3038 	ldr	r3, [pc, #56]	; 9300 <gpio_set_value+0x8c>
    92c4:	e08c3003 	add	r3, ip, r3
    92c8:	e5830000 	str	r0, [r3]
    92cc:	e3a00000 	mov	r0, #0
    92d0:	e8bd8008 	pop	{r3, pc}
    92d4:	e59f3028 	ldr	r3, [pc, #40]	; 9304 <gpio_set_value+0x90>
    92d8:	e08c3003 	add	r3, ip, r3
    92dc:	e5830000 	str	r0, [r3]
    92e0:	e3a00000 	mov	r0, #0
    92e4:	e8bd8008 	pop	{r3, pc}
    92e8:	e1a01000 	mov	r1, r0
    92ec:	e59f0014 	ldr	r0, [pc, #20]	; 9308 <gpio_set_value+0x94>
    92f0:	eb00017d 	bl	98ec <printk>
    92f4:	e3e00000 	mvn	r0, #0
    92f8:	e8bd8008 	pop	{r3, pc}
    92fc:	0000b49c 	muleq	r0, ip, r4
    9300:	20200028 	eorcs	r0, r0, r8, lsr #32
    9304:	2020001c 	eorcs	r0, r0, ip, lsl r0
    9308:	0000b48c 	andeq	fp, r0, ip, lsl #9

0000930c <gpio_set_falling>:
    930c:	e3500036 	cmp	r0, #54	; 0x36
    9310:	e92d4008 	push	{r3, lr}
    9314:	ca00000d 	bgt	9350 <gpio_set_falling+0x44>
    9318:	e3500000 	cmp	r0, #0
    931c:	e280201f 	add	r2, r0, #31
    9320:	a1a02000 	movge	r2, r0
    9324:	e1a022c2 	asr	r2, r2, #5
    9328:	e59f3034 	ldr	r3, [pc, #52]	; 9364 <gpio_set_falling+0x58>
    932c:	e1a02102 	lsl	r2, r2, #2
    9330:	e0823003 	add	r3, r2, r3
    9334:	e5932000 	ldr	r2, [r3]
    9338:	e3a01001 	mov	r1, #1
    933c:	e200001f 	and	r0, r0, #31
    9340:	e1820011 	orr	r0, r2, r1, lsl r0
    9344:	e5830000 	str	r0, [r3]
    9348:	e3a00000 	mov	r0, #0
    934c:	e8bd8008 	pop	{r3, pc}
    9350:	e1a01000 	mov	r1, r0
    9354:	e59f000c 	ldr	r0, [pc, #12]	; 9368 <gpio_set_falling+0x5c>
    9358:	eb000163 	bl	98ec <printk>
    935c:	e3e00000 	mvn	r0, #0
    9360:	e8bd8008 	pop	{r3, pc}
    9364:	20200058 	eorcs	r0, r0, r8, asr r0
    9368:	0000b48c 	andeq	fp, r0, ip, lsl #9

0000936c <gpio_clear_interrupt>:
    936c:	e3500036 	cmp	r0, #54	; 0x36
    9370:	e92d4008 	push	{r3, lr}
    9374:	ca00000c 	bgt	93ac <gpio_clear_interrupt+0x40>
    9378:	e3500000 	cmp	r0, #0
    937c:	e280101f 	add	r1, r0, #31
    9380:	a1a01000 	movge	r1, r0
    9384:	e1a012c1 	asr	r1, r1, #5
    9388:	e59f3030 	ldr	r3, [pc, #48]	; 93c0 <gpio_clear_interrupt+0x54>
    938c:	e1a01101 	lsl	r1, r1, #2
    9390:	e3a02001 	mov	r2, #1
    9394:	e200001f 	and	r0, r0, #31
    9398:	e0813003 	add	r3, r1, r3
    939c:	e1a00012 	lsl	r0, r2, r0
    93a0:	e5830000 	str	r0, [r3]
    93a4:	e3a00000 	mov	r0, #0
    93a8:	e8bd8008 	pop	{r3, pc}
    93ac:	e1a01000 	mov	r1, r0
    93b0:	e59f000c 	ldr	r0, [pc, #12]	; 93c4 <gpio_clear_interrupt+0x58>
    93b4:	eb00014c 	bl	98ec <printk>
    93b8:	e3e00000 	mvn	r0, #0
    93bc:	e8bd8008 	pop	{r3, pc}
    93c0:	20200040 	eorcs	r0, r0, r0, asr #32
    93c4:	0000b48c 	andeq	fp, r0, ip, lsl #9

000093c8 <led_init>:
    93c8:	e59f3044 	ldr	r3, [pc, #68]	; 9414 <led_init+0x4c>
    93cc:	e92d4010 	push	{r4, lr}
    93d0:	e5933000 	ldr	r3, [r3]
    93d4:	e59f403c 	ldr	r4, [pc, #60]	; 9418 <led_init+0x50>
    93d8:	e2433003 	sub	r3, r3, #3
    93dc:	e3530001 	cmp	r3, #1
    93e0:	93a0002f 	movls	r0, #47	; 0x2f
    93e4:	93a03000 	movls	r3, #0
    93e8:	85940000 	ldrhi	r0, [r4]
    93ec:	e59f1028 	ldr	r1, [pc, #40]	; 941c <led_init+0x54>
    93f0:	98840009 	stmls	r4, {r0, r3}
    93f4:	ebffff04 	bl	900c <gpio_request>
    93f8:	e5940000 	ldr	r0, [r4]
    93fc:	ebffff66 	bl	919c <gpio_direction_output>
    9400:	e5941000 	ldr	r1, [r4]
    9404:	e59f0014 	ldr	r0, [pc, #20]	; 9420 <led_init+0x58>
    9408:	eb000137 	bl	98ec <printk>
    940c:	e3a00000 	mov	r0, #0
    9410:	e8bd8010 	pop	{r4, pc}
    9414:	0000c000 	andeq	ip, r0, r0
    9418:	0000d014 	andeq	sp, r0, r4, lsl r0
    941c:	0000b4b4 			; <UNDEFINED> instruction: 0x0000b4b4
    9420:	0000b4bc 			; <UNDEFINED> instruction: 0x0000b4bc

00009424 <led_on>:
    9424:	e92d4008 	push	{r3, lr}
    9428:	e59f3018 	ldr	r3, [pc, #24]	; 9448 <led_on+0x24>
    942c:	e8930005 	ldm	r3, {r0, r2}
    9430:	e3520000 	cmp	r2, #0
    9434:	13a01000 	movne	r1, #0
    9438:	03a01001 	moveq	r1, #1
    943c:	ebffff8c 	bl	9274 <gpio_set_value>
    9440:	e3a00000 	mov	r0, #0
    9444:	e8bd8008 	pop	{r3, pc}
    9448:	0000d014 	andeq	sp, r0, r4, lsl r0

0000944c <led_off>:
    944c:	e92d4008 	push	{r3, lr}
    9450:	e59f3014 	ldr	r3, [pc, #20]	; 946c <led_off+0x20>
    9454:	e8930003 	ldm	r3, {r0, r1}
    9458:	e3510000 	cmp	r1, #0
    945c:	13a01001 	movne	r1, #1
    9460:	ebffff83 	bl	9274 <gpio_set_value>
    9464:	e3a00000 	mov	r0, #0
    9468:	e8bd8008 	pop	{r3, pc}
    946c:	0000d014 	andeq	sp, r0, r4, lsl r0

00009470 <mailbox_write>:
    9470:	e92d4070 	push	{r4, r5, r6, lr}
    9474:	e1a02001 	mov	r2, r1
    9478:	e1a05000 	mov	r5, r0
    947c:	e1a06001 	mov	r6, r1
    9480:	e1a01000 	mov	r1, r0
    9484:	e59f0074 	ldr	r0, [pc, #116]	; 9500 <mailbox_write+0x90>
    9488:	eb000117 	bl	98ec <printk>
    948c:	e315000f 	tst	r5, #15
    9490:	1a000010 	bne	94d8 <mailbox_write+0x68>
    9494:	e356000f 	cmp	r6, #15
    9498:	8a000013 	bhi	94ec <mailbox_write+0x7c>
    949c:	e59f3060 	ldr	r3, [pc, #96]	; 9504 <mailbox_write+0x94>
    94a0:	e5933000 	ldr	r3, [r3]
    94a4:	e3530000 	cmp	r3, #0
    94a8:	b59f4054 	ldrlt	r4, [pc, #84]	; 9504 <mailbox_write+0x94>
    94ac:	aa000004 	bge	94c4 <mailbox_write+0x54>
    94b0:	e59f0050 	ldr	r0, [pc, #80]	; 9508 <mailbox_write+0x98>
    94b4:	eb00010c 	bl	98ec <printk>
    94b8:	e5943000 	ldr	r3, [r4]
    94bc:	e3530000 	cmp	r3, #0
    94c0:	bafffffa 	blt	94b0 <mailbox_write+0x40>
    94c4:	e1855006 	orr	r5, r5, r6
    94c8:	e59f303c 	ldr	r3, [pc, #60]	; 950c <mailbox_write+0x9c>
    94cc:	e5835000 	str	r5, [r3]
    94d0:	e3a00000 	mov	r0, #0
    94d4:	e8bd8070 	pop	{r4, r5, r6, pc}
    94d8:	e1a01005 	mov	r1, r5
    94dc:	e59f002c 	ldr	r0, [pc, #44]	; 9510 <mailbox_write+0xa0>
    94e0:	eb000101 	bl	98ec <printk>
    94e4:	e3e00000 	mvn	r0, #0
    94e8:	e8bd8070 	pop	{r4, r5, r6, pc}
    94ec:	e1a01006 	mov	r1, r6
    94f0:	e59f001c 	ldr	r0, [pc, #28]	; 9514 <mailbox_write+0xa4>
    94f4:	eb0000fc 	bl	98ec <printk>
    94f8:	e3e00000 	mvn	r0, #0
    94fc:	e8bd8070 	pop	{r4, r5, r6, pc}
    9500:	0000b4e0 	andeq	fp, r0, r0, ror #9
    9504:	2000b898 	mulcs	r0, r8, r8
    9508:	0000b558 	andeq	fp, r0, r8, asr r5
    950c:	2000b8a0 	andcs	fp, r0, r0, lsr #17
    9510:	0000b50c 	andeq	fp, r0, ip, lsl #10
    9514:	0000b534 	andeq	fp, r0, r4, lsr r5

00009518 <mailbox_read>:
    9518:	e92d4038 	push	{r3, r4, r5, lr}
    951c:	e1a01000 	mov	r1, r0
    9520:	e1a05000 	mov	r5, r0
    9524:	e59f0074 	ldr	r0, [pc, #116]	; 95a0 <mailbox_read+0x88>
    9528:	eb0000ef 	bl	98ec <printk>
    952c:	e355000f 	cmp	r5, #15
    9530:	8a000015 	bhi	958c <mailbox_read+0x74>
    9534:	e59f3068 	ldr	r3, [pc, #104]	; 95a4 <mailbox_read+0x8c>
    9538:	e5933000 	ldr	r3, [r3]
    953c:	e3130101 	tst	r3, #1073741824	; 0x40000000
    9540:	159f405c 	ldrne	r4, [pc, #92]	; 95a4 <mailbox_read+0x8c>
    9544:	0a000004 	beq	955c <mailbox_read+0x44>
    9548:	e59f0058 	ldr	r0, [pc, #88]	; 95a8 <mailbox_read+0x90>
    954c:	eb0000e6 	bl	98ec <printk>
    9550:	e5943000 	ldr	r3, [r4]
    9554:	e3130101 	tst	r3, #1073741824	; 0x40000000
    9558:	1afffffa 	bne	9548 <mailbox_read+0x30>
    955c:	e59f0048 	ldr	r0, [pc, #72]	; 95ac <mailbox_read+0x94>
    9560:	e5900000 	ldr	r0, [r0]
    9564:	e200100f 	and	r1, r0, #15
    9568:	e1510005 	cmp	r1, r5
    956c:	1a000001 	bne	9578 <mailbox_read+0x60>
    9570:	e3c0000f 	bic	r0, r0, #15
    9574:	e8bd8038 	pop	{r3, r4, r5, pc}
    9578:	e1a02005 	mov	r2, r5
    957c:	e59f002c 	ldr	r0, [pc, #44]	; 95b0 <mailbox_read+0x98>
    9580:	eb0000d9 	bl	98ec <printk>
    9584:	e3e00000 	mvn	r0, #0
    9588:	e8bd8038 	pop	{r3, r4, r5, pc}
    958c:	e1a01005 	mov	r1, r5
    9590:	e59f001c 	ldr	r0, [pc, #28]	; 95b4 <mailbox_read+0x9c>
    9594:	eb0000d4 	bl	98ec <printk>
    9598:	e3e00000 	mvn	r0, #0
    959c:	e8bd8038 	pop	{r3, r4, r5, pc}
    95a0:	0000b570 	andeq	fp, r0, r0, ror r5
    95a4:	2000b898 	mulcs	r0, r8, r8
    95a8:	0000b5b4 			; <UNDEFINED> instruction: 0x0000b5b4
    95ac:	2000b880 	andcs	fp, r0, r0, lsl #17
    95b0:	0000b5d0 	ldrdeq	fp, [r0], -r0
    95b4:	0000b594 	muleq	r0, r4, r5

000095b8 <memory_init>:
    95b8:	e3500101 	cmp	r0, #1073741824	; 0x40000000
    95bc:	e92d4038 	push	{r3, r4, r5, lr}
    95c0:	e1a05000 	mov	r5, r0
    95c4:	e1a04001 	mov	r4, r1
    95c8:	8a00001e 	bhi	9648 <memory_init+0x90>
    95cc:	e1a02524 	lsr	r2, r4, #10
    95d0:	e3a03008 	mov	r3, #8
    95d4:	e59f007c 	ldr	r0, [pc, #124]	; 9658 <memory_init+0xa0>
    95d8:	e1a01a25 	lsr	r1, r5, #20
    95dc:	eb0000c2 	bl	98ec <printk>
    95e0:	e1a02625 	lsr	r2, r5, #12
    95e4:	e59f3070 	ldr	r3, [pc, #112]	; 965c <memory_init+0xa4>
    95e8:	e3520000 	cmp	r2, #0
    95ec:	e5832000 	str	r2, [r3]
    95f0:	0a000005 	beq	960c <memory_init+0x54>
    95f4:	e59f3064 	ldr	r3, [pc, #100]	; 9660 <memory_init+0xa8>
    95f8:	e3a00000 	mov	r0, #0
    95fc:	e0832102 	add	r2, r3, r2, lsl #2
    9600:	e5a30004 	str	r0, [r3, #4]!
    9604:	e1530002 	cmp	r3, r2
    9608:	1afffffc 	bne	9600 <memory_init+0x48>
    960c:	e1b04624 	lsrs	r4, r4, #12
    9610:	0a00000a 	beq	9640 <memory_init+0x88>
    9614:	e59f1048 	ldr	r1, [pc, #72]	; 9664 <memory_init+0xac>
    9618:	e3a03000 	mov	r3, #0
    961c:	e3a05001 	mov	r5, #1
    9620:	e1a022c3 	asr	r2, r3, #5
    9624:	e7910102 	ldr	r0, [r1, r2, lsl #2]
    9628:	e203c01f 	and	ip, r3, #31
    962c:	e1800c15 	orr	r0, r0, r5, lsl ip
    9630:	e2833001 	add	r3, r3, #1
    9634:	e1530004 	cmp	r3, r4
    9638:	e7810102 	str	r0, [r1, r2, lsl #2]
    963c:	1afffff7 	bne	9620 <memory_init+0x68>
    9640:	e3a00000 	mov	r0, #0
    9644:	e8bd8038 	pop	{r3, r4, r5, pc}
    9648:	e59f0018 	ldr	r0, [pc, #24]	; 9668 <memory_init+0xb0>
    964c:	eb0000a6 	bl	98ec <printk>
    9650:	e3e00000 	mvn	r0, #0
    9654:	e8bd8038 	pop	{r3, r4, r5, pc}
    9658:	0000b61c 	andeq	fp, r0, ip, lsl r6
    965c:	00011668 	andeq	r1, r1, r8, ror #12
    9660:	0001166c 	andeq	r1, r1, ip, ror #12
    9664:	00011670 	andeq	r1, r1, r0, ror r6
    9668:	0000b600 	andeq	fp, r0, r0, lsl #12

0000966c <memory_allocate>:
    966c:	e2501000 	subs	r1, r0, #0
    9670:	e92d41f0 	push	{r4, r5, r6, r7, r8, lr}
    9674:	03a07001 	moveq	r7, #1
    9678:	01a01007 	moveq	r1, r7
    967c:	0a000005 	beq	9698 <memory_allocate+0x2c>
    9680:	e2413001 	sub	r3, r1, #1
    9684:	e2832eff 	add	r2, r3, #4080	; 0xff0
    9688:	e3530000 	cmp	r3, #0
    968c:	b282300f 	addlt	r3, r2, #15
    9690:	e1a07643 	asr	r7, r3, #12
    9694:	e2877001 	add	r7, r7, #1
    9698:	e59f30c8 	ldr	r3, [pc, #200]	; 9768 <memory_allocate+0xfc>
    969c:	e5938000 	ldr	r8, [r3]
    96a0:	e3580000 	cmp	r8, #0
    96a4:	0a00002b 	beq	9758 <memory_allocate+0xec>
    96a8:	e59f50bc 	ldr	r5, [pc, #188]	; 976c <memory_allocate+0x100>
    96ac:	e3a0c000 	mov	ip, #0
    96b0:	e3a06001 	mov	r6, #1
    96b4:	e1a032cc 	asr	r3, ip, #5
    96b8:	e7953103 	ldr	r3, [r5, r3, lsl #2]
    96bc:	e20c201f 	and	r2, ip, #31
    96c0:	e0133216 	ands	r3, r3, r6, lsl r2
    96c4:	1a000020 	bne	974c <memory_allocate+0xe0>
    96c8:	e3570000 	cmp	r7, #0
    96cc:	ca000003 	bgt	96e0 <memory_allocate+0x74>
    96d0:	ea00001c 	b	9748 <memory_allocate+0xdc>
    96d4:	e7954104 	ldr	r4, [r5, r4, lsl #2]
    96d8:	e0144216 	ands	r4, r4, r6, lsl r2
    96dc:	1a00001a 	bne	974c <memory_allocate+0xe0>
    96e0:	e2833001 	add	r3, r3, #1
    96e4:	e08c2003 	add	r2, ip, r3
    96e8:	e1530007 	cmp	r3, r7
    96ec:	e1a042c2 	asr	r4, r2, #5
    96f0:	e202201f 	and	r2, r2, #31
    96f4:	1afffff6 	bne	96d4 <memory_allocate+0x68>
    96f8:	e08c3003 	add	r3, ip, r3
    96fc:	e1a0200c 	mov	r2, ip
    9700:	e3a07001 	mov	r7, #1
    9704:	e3520000 	cmp	r2, #0
    9708:	e1a00fc2 	asr	r0, r2, #31
    970c:	e282101f 	add	r1, r2, #31
    9710:	e1a00da0 	lsr	r0, r0, #27
    9714:	a1a01002 	movge	r1, r2
    9718:	e0826000 	add	r6, r2, r0
    971c:	e1a012c1 	asr	r1, r1, #5
    9720:	e7954101 	ldr	r4, [r5, r1, lsl #2]
    9724:	e206601f 	and	r6, r6, #31
    9728:	e0600006 	rsb	r0, r0, r6
    972c:	e1840017 	orr	r0, r4, r7, lsl r0
    9730:	e2822001 	add	r2, r2, #1
    9734:	e1520003 	cmp	r2, r3
    9738:	e7850101 	str	r0, [r5, r1, lsl #2]
    973c:	1afffff0 	bne	9704 <memory_allocate+0x98>
    9740:	e1a0060c 	lsl	r0, ip, #12
    9744:	e8bd81f0 	pop	{r4, r5, r6, r7, r8, pc}
    9748:	0afffffc 	beq	9740 <memory_allocate+0xd4>
    974c:	e28cc001 	add	ip, ip, #1
    9750:	e15c0008 	cmp	ip, r8
    9754:	1affffd6 	bne	96b4 <memory_allocate+0x48>
    9758:	e59f0010 	ldr	r0, [pc, #16]	; 9770 <memory_allocate+0x104>
    975c:	eb000062 	bl	98ec <printk>
    9760:	e3a00000 	mov	r0, #0
    9764:	e8bd81f0 	pop	{r4, r5, r6, r7, r8, pc}
    9768:	00011668 	andeq	r1, r1, r8, ror #12
    976c:	00011670 	andeq	r1, r1, r0, ror r6
    9770:	0000b668 	andeq	fp, r0, r8, ror #12

00009774 <enable_mmu>:
    9774:	e52d4004 	push	{r4}		; (str r4, [sp, #-4]!)
    9778:	e59fc074 	ldr	ip, [pc, #116]	; 97f4 <enable_mmu+0x80>
    977c:	e3a02000 	mov	r2, #0
    9780:	e1a04a02 	lsl	r4, r2, #20
    9784:	e3844ec1 	orr	r4, r4, #3088	; 0xc10
    9788:	e2822001 	add	r2, r2, #1
    978c:	e3844002 	orr	r4, r4, #2
    9790:	e3520a01 	cmp	r2, #4096	; 0x1000
    9794:	e5ac4004 	str	r4, [ip, #4]!
    9798:	1afffff8 	bne	9780 <enable_mmu+0xc>
    979c:	e1a03a20 	lsr	r3, r0, #20
    97a0:	e1a00a21 	lsr	r0, r1, #20
    97a4:	e1500003 	cmp	r0, r3
    97a8:	e59fc048 	ldr	ip, [pc, #72]	; 97f8 <enable_mmu+0x84>
    97ac:	82432001 	subhi	r2, r3, #1
    97b0:	808c2102 	addhi	r2, ip, r2, lsl #2
    97b4:	9a000006 	bls	97d4 <enable_mmu+0x60>
    97b8:	e1a01a03 	lsl	r1, r3, #20
    97bc:	e3811ec1 	orr	r1, r1, #3088	; 0xc10
    97c0:	e2833001 	add	r3, r3, #1
    97c4:	e381100e 	orr	r1, r1, #14
    97c8:	e1530000 	cmp	r3, r0
    97cc:	e5a21004 	str	r1, [r2, #4]!
    97d0:	1afffff8 	bne	97b8 <enable_mmu+0x44>
    97d4:	ee02cf10 	mcr	15, 0, ip, cr2, cr0, {0}
    97d8:	e3e03000 	mvn	r3, #0
    97dc:	ee033f10 	mcr	15, 0, r3, cr3, cr0, {0}
    97e0:	ee113f10 	mrc	15, 0, r3, cr1, cr0, {0}
    97e4:	e3833001 	orr	r3, r3, #1
    97e8:	ee013f10 	mcr	15, 0, r3, cr1, cr0, {0}
    97ec:	e49d4004 	pop	{r4}		; (ldr r4, [sp], #4)
    97f0:	e12fff1e 	bx	lr
    97f4:	0001bffc 	strdeq	fp, [r1], -ip
    97f8:	0001c000 	andeq	ip, r1, r0

000097fc <enable_l1_dcache>:
    97fc:	ee110f10 	mrc	15, 0, r0, cr1, cr0, {0}
    9800:	e3800004 	orr	r0, r0, #4
    9804:	ee010f10 	mcr	15, 0, r0, cr1, cr0, {0}
    9808:	e12fff1e 	bx	lr

0000980c <disable_l1_dcache>:
    980c:	e12fff1e 	bx	lr

00009810 <enable_l1_icache>:
    9810:	ee110f10 	mrc	15, 0, r0, cr1, cr0, {0}
    9814:	e3800a01 	orr	r0, r0, #4096	; 0x1000
    9818:	ee010f10 	mcr	15, 0, r0, cr1, cr0, {0}
    981c:	e12fff1e 	bx	lr

00009820 <disable_l1_icache>:
    9820:	ee110f10 	mrc	15, 0, r0, cr1, cr0, {0}
    9824:	e3c00a01 	bic	r0, r0, #4096	; 0x1000
    9828:	ee010f10 	mcr	15, 0, r0, cr1, cr0, {0}
    982c:	e12fff1e 	bx	lr

00009830 <enable_branch_predictor>:
    9830:	ee110f10 	mrc	15, 0, r0, cr1, cr0, {0}
    9834:	e3800b02 	orr	r0, r0, #2048	; 0x800
    9838:	ee010f10 	mcr	15, 0, r0, cr1, cr0, {0}
    983c:	e12fff1e 	bx	lr

00009840 <disable_branch_predictor>:
    9840:	ee110f10 	mrc	15, 0, r0, cr1, cr0, {0}
    9844:	e3c00b02 	bic	r0, r0, #2048	; 0x800
    9848:	ee010f10 	mcr	15, 0, r0, cr1, cr0, {0}
    984c:	e12fff1e 	bx	lr

00009850 <l1_cache_detect>:
    9850:	e92d4010 	push	{r4, lr}
    9854:	ee104f30 	mrc	15, 0, r4, cr0, cr0, {1}
    9858:	e1a03924 	lsr	r3, r4, #18
    985c:	e203300f 	and	r3, r3, #15
    9860:	e2433001 	sub	r3, r3, #1
    9864:	e3530007 	cmp	r3, #7
    9868:	959f2070 	ldrls	r2, [pc, #112]	; 98e0 <l1_cache_detect+0x90>
    986c:	e1a00c24 	lsr	r0, r4, #24
    9870:	97921103 	ldrls	r1, [r2, r3, lsl #2]
    9874:	e24dd008 	sub	sp, sp, #8
    9878:	e2000001 	and	r0, r0, #1
    987c:	e1a027a4 	lsr	r2, r4, #15
    9880:	e1a03624 	lsr	r3, r4, #12
    9884:	83a01000 	movhi	r1, #0
    9888:	e2022007 	and	r2, r2, #7
    988c:	e58d0000 	str	r0, [sp]
    9890:	e2033003 	and	r3, r3, #3
    9894:	e59f0048 	ldr	r0, [pc, #72]	; 98e4 <l1_cache_detect+0x94>
    9898:	eb000013 	bl	98ec <printk>
    989c:	e1a03324 	lsr	r3, r4, #6
    98a0:	e203300f 	and	r3, r3, #15
    98a4:	e2433001 	sub	r3, r3, #1
    98a8:	e3530007 	cmp	r3, #7
    98ac:	959f202c 	ldrls	r2, [pc, #44]	; 98e0 <l1_cache_detect+0x90>
    98b0:	e1a005a4 	lsr	r0, r4, #11
    98b4:	97921103 	ldrls	r1, [r2, r3, lsl #2]
    98b8:	e2000001 	and	r0, r0, #1
    98bc:	e1a021a4 	lsr	r2, r4, #3
    98c0:	e58d0000 	str	r0, [sp]
    98c4:	83a01000 	movhi	r1, #0
    98c8:	e2022007 	and	r2, r2, #7
    98cc:	e2043003 	and	r3, r4, #3
    98d0:	e59f0010 	ldr	r0, [pc, #16]	; 98e8 <l1_cache_detect+0x98>
    98d4:	eb000004 	bl	98ec <printk>
    98d8:	e28dd008 	add	sp, sp, #8
    98dc:	e8bd8010 	pop	{r4, pc}
    98e0:	0000b000 	andeq	fp, r0, r0
    98e4:	0000b694 	muleq	r0, r4, r6
    98e8:	0000b6dc 	ldrdeq	fp, [r0], -ip

000098ec <printk>:
    98ec:	e92d000f 	push	{r0, r1, r2, r3}
    98f0:	e92d4070 	push	{r4, r5, r6, lr}
    98f4:	e24dde11 	sub	sp, sp, #272	; 0x110
    98f8:	e28d6f49 	add	r6, sp, #292	; 0x124
    98fc:	e59d1120 	ldr	r1, [sp, #288]	; 0x120
    9900:	e59f5158 	ldr	r5, [pc, #344]	; 9a60 <printk+0x174>
    9904:	e58d6000 	str	r6, [sp]
    9908:	e3a04000 	mov	r4, #0
    990c:	ea000006 	b	992c <printk+0x40>
    9910:	e28dee11 	add	lr, sp, #272	; 0x110
    9914:	e08e2004 	add	r2, lr, r4
    9918:	e2811001 	add	r1, r1, #1
    991c:	e5423100 	strb	r3, [r2, #-256]	; 0x100
    9920:	e2844001 	add	r4, r4, #1
    9924:	e35400ff 	cmp	r4, #255	; 0xff
    9928:	0a000026 	beq	99c8 <printk+0xdc>
    992c:	e5d13000 	ldrb	r3, [r1]
    9930:	e3530000 	cmp	r3, #0
    9934:	0a000023 	beq	99c8 <printk+0xdc>
    9938:	e3530025 	cmp	r3, #37	; 0x25
    993c:	1afffff3 	bne	9910 <printk+0x24>
    9940:	e5d13001 	ldrb	r3, [r1, #1]
    9944:	e3530064 	cmp	r3, #100	; 0x64
    9948:	0a000026 	beq	99e8 <printk+0xfc>
    994c:	e3530078 	cmp	r3, #120	; 0x78
    9950:	12811001 	addne	r1, r1, #1
    9954:	1afffff2 	bne	9924 <printk+0x38>
    9958:	e5962000 	ldr	r2, [r6]
    995c:	e2811002 	add	r1, r1, #2
    9960:	e2866004 	add	r6, r6, #4
    9964:	e3a03009 	mov	r3, #9
    9968:	e28dc004 	add	ip, sp, #4
    996c:	ea000000 	b	9974 <printk+0x88>
    9970:	e1a03000 	mov	r3, r0
    9974:	e202000f 	and	r0, r2, #15
    9978:	e3500009 	cmp	r0, #9
    997c:	92800030 	addls	r0, r0, #48	; 0x30
    9980:	82800057 	addhi	r0, r0, #87	; 0x57
    9984:	e1b02222 	lsrs	r2, r2, #4
    9988:	e7cc0003 	strb	r0, [ip, r3]
    998c:	e2430001 	sub	r0, r3, #1
    9990:	1afffff6 	bne	9970 <printk+0x84>
    9994:	e0630004 	rsb	r0, r3, r4
    9998:	e28d2010 	add	r2, sp, #16
    999c:	e0820000 	add	r0, r2, r0
    99a0:	e1a0e003 	mov	lr, r3
    99a4:	e7dc2003 	ldrb	r2, [ip, r3]
    99a8:	e7c02003 	strb	r2, [r0, r3]
    99ac:	e2833001 	add	r3, r3, #1
    99b0:	e353000a 	cmp	r3, #10
    99b4:	1afffffa 	bne	99a4 <printk+0xb8>
    99b8:	e284400a 	add	r4, r4, #10
    99bc:	e06e4004 	rsb	r4, lr, r4
    99c0:	e35400ff 	cmp	r4, #255	; 0xff
    99c4:	1affffd8 	bne	992c <printk+0x40>
    99c8:	e28d0010 	add	r0, sp, #16
    99cc:	e1a01004 	mov	r1, r4
    99d0:	ebfffbb4 	bl	88a8 <console_write>
    99d4:	e1a00004 	mov	r0, r4
    99d8:	e28dde11 	add	sp, sp, #272	; 0x110
    99dc:	e8bd4070 	pop	{r4, r5, r6, lr}
    99e0:	e28dd010 	add	sp, sp, #16
    99e4:	e12fff1e 	bx	lr
    99e8:	e596e000 	ldr	lr, [r6]
    99ec:	e2811002 	add	r1, r1, #2
    99f0:	e2866004 	add	r6, r6, #4
    99f4:	e3a03009 	mov	r3, #9
    99f8:	e28dc004 	add	ip, sp, #4
    99fc:	ea000000 	b	9a04 <printk+0x118>
    9a00:	e1a03002 	mov	r3, r2
    9a04:	e0820e95 	umull	r0, r2, r5, lr
    9a08:	e1a021a2 	lsr	r2, r2, #3
    9a0c:	e0820102 	add	r0, r2, r2, lsl #2
    9a10:	e04e0080 	sub	r0, lr, r0, lsl #1
    9a14:	e2800030 	add	r0, r0, #48	; 0x30
    9a18:	e6ef0070 	uxtb	r0, r0
    9a1c:	e252e000 	subs	lr, r2, #0
    9a20:	e7cc0003 	strb	r0, [ip, r3]
    9a24:	e2432001 	sub	r2, r3, #1
    9a28:	1afffff4 	bne	9a00 <printk+0x114>
    9a2c:	e28de010 	add	lr, sp, #16
    9a30:	e0632004 	rsb	r2, r3, r4
    9a34:	e08e2002 	add	r2, lr, r2
    9a38:	e1a0e003 	mov	lr, r3
    9a3c:	ea000000 	b	9a44 <printk+0x158>
    9a40:	e7dc0003 	ldrb	r0, [ip, r3]
    9a44:	e7c20003 	strb	r0, [r2, r3]
    9a48:	e2833001 	add	r3, r3, #1
    9a4c:	e353000a 	cmp	r3, #10
    9a50:	1afffffa 	bne	9a40 <printk+0x154>
    9a54:	e284400a 	add	r4, r4, #10
    9a58:	e06e4004 	rsb	r4, lr, r4
    9a5c:	eaffffd7 	b	99c0 <printk+0xd4>
    9a60:	cccccccd 	stclgt	12, cr12, [ip], {205}	; 0xcd

00009a64 <uart_init>:
    9a64:	e59f3084 	ldr	r3, [pc, #132]	; 9af0 <__delay_16+0x5c>
    9a68:	e3a02000 	mov	r2, #0
    9a6c:	e5832000 	str	r2, [r3]
    9a70:	e59f307c 	ldr	r3, [pc, #124]	; 9af4 <__delay_16+0x60>
    9a74:	e5832000 	str	r2, [r3]
    9a78:	e3a03096 	mov	r3, #150	; 0x96

00009a7c <__delay_11>:
    9a7c:	e2533001 	subs	r3, r3, #1
    9a80:	1afffffd 	bne	9a7c <__delay_11>
    9a84:	e59f306c 	ldr	r3, [pc, #108]	; 9af8 <__delay_16+0x64>
    9a88:	e3a02903 	mov	r2, #49152	; 0xc000
    9a8c:	e5832000 	str	r2, [r3]
    9a90:	e3a03096 	mov	r3, #150	; 0x96

00009a94 <__delay_16>:
    9a94:	e2533001 	subs	r3, r3, #1
    9a98:	1afffffd 	bne	9a94 <__delay_16>
    9a9c:	e59f3054 	ldr	r3, [pc, #84]	; 9af8 <__delay_16+0x64>
    9aa0:	e3a02000 	mov	r2, #0
    9aa4:	e5832000 	str	r2, [r3]
    9aa8:	e2833efa 	add	r3, r3, #4000	; 0xfa0
    9aac:	e5832000 	str	r2, [r3]
    9ab0:	e59f2044 	ldr	r2, [pc, #68]	; 9afc <__delay_16+0x68>
    9ab4:	e283300c 	add	r3, r3, #12
    9ab8:	e5832000 	str	r2, [r3]
    9abc:	e3a02001 	mov	r2, #1
    9ac0:	e2433020 	sub	r3, r3, #32
    9ac4:	e5832000 	str	r2, [r3]
    9ac8:	e3a02028 	mov	r2, #40	; 0x28
    9acc:	e2833004 	add	r3, r3, #4
    9ad0:	e5832000 	str	r2, [r3]
    9ad4:	e3a02070 	mov	r2, #112	; 0x70
    9ad8:	e2833004 	add	r3, r3, #4
    9adc:	e5832000 	str	r2, [r3]
    9ae0:	e59f2018 	ldr	r2, [pc, #24]	; 9b00 <__delay_16+0x6c>
    9ae4:	e2833004 	add	r3, r3, #4
    9ae8:	e5832000 	str	r2, [r3]
    9aec:	e12fff1e 	bx	lr
    9af0:	20201030 	eorcs	r1, r0, r0, lsr r0
    9af4:	20200094 	mlacs	r0, r4, r0, r0
    9af8:	20200098 	mlacs	r0, r8, r0, r0
    9afc:	000007ff 	strdeq	r0, [r0], -pc	; <UNPREDICTABLE>
    9b00:	00000301 	andeq	r0, r0, r1, lsl #6

00009b04 <uart_putc>:
    9b04:	e59f2014 	ldr	r2, [pc, #20]	; 9b20 <uart_putc+0x1c>
    9b08:	e5923000 	ldr	r3, [r2]
    9b0c:	e3130020 	tst	r3, #32
    9b10:	1afffffc 	bne	9b08 <uart_putc+0x4>
    9b14:	e59f3008 	ldr	r3, [pc, #8]	; 9b24 <uart_putc+0x20>
    9b18:	e5830000 	str	r0, [r3]
    9b1c:	e12fff1e 	bx	lr
    9b20:	20201018 	eorcs	r1, r0, r8, lsl r0
    9b24:	20201000 	eorcs	r1, r0, r0

00009b28 <uart_getc>:
    9b28:	e59f2018 	ldr	r2, [pc, #24]	; 9b48 <uart_getc+0x20>
    9b2c:	e5923000 	ldr	r3, [r2]
    9b30:	e3130010 	tst	r3, #16
    9b34:	1afffffc 	bne	9b2c <uart_getc+0x4>
    9b38:	e59f000c 	ldr	r0, [pc, #12]	; 9b4c <uart_getc+0x24>
    9b3c:	e5900000 	ldr	r0, [r0]
    9b40:	e6ef0070 	uxtb	r0, r0
    9b44:	e12fff1e 	bx	lr
    9b48:	20201018 	eorcs	r1, r0, r8, lsl r0
    9b4c:	20201000 	eorcs	r1, r0, r0

00009b50 <uart_getc_noblock>:
    9b50:	e59f3020 	ldr	r3, [pc, #32]	; 9b78 <uart_getc_noblock+0x28>
    9b54:	e5933000 	ldr	r3, [r3]
    9b58:	e3130010 	tst	r3, #16
    9b5c:	1a000003 	bne	9b70 <uart_getc_noblock+0x20>
    9b60:	e59f0014 	ldr	r0, [pc, #20]	; 9b7c <uart_getc_noblock+0x2c>
    9b64:	e5900000 	ldr	r0, [r0]
    9b68:	e6ef0070 	uxtb	r0, r0
    9b6c:	e12fff1e 	bx	lr
    9b70:	e3a00000 	mov	r0, #0
    9b74:	e12fff1e 	bx	lr
    9b78:	20201018 	eorcs	r1, r0, r8, lsl r0
    9b7c:	20201000 	eorcs	r1, r0, r0

00009b80 <uart_write>:
    9b80:	e3510000 	cmp	r1, #0
    9b84:	e92d00f0 	push	{r4, r5, r6, r7}
    9b88:	0a00000d 	beq	9bc4 <uart_write+0x44>
    9b8c:	e59f2050 	ldr	r2, [pc, #80]	; 9be4 <uart_write+0x64>
    9b90:	e59f5050 	ldr	r5, [pc, #80]	; 9be8 <uart_write+0x68>
    9b94:	e1a0c000 	mov	ip, r0
    9b98:	e0806001 	add	r6, r0, r1
    9b9c:	e3a0700d 	mov	r7, #13
    9ba0:	e4dc4001 	ldrb	r4, [ip], #1
    9ba4:	e5923000 	ldr	r3, [r2]
    9ba8:	e3130020 	tst	r3, #32
    9bac:	1afffffc 	bne	9ba4 <uart_write+0x24>
    9bb0:	e5854000 	str	r4, [r5]
    9bb4:	e354000a 	cmp	r4, #10
    9bb8:	0a000004 	beq	9bd0 <uart_write+0x50>
    9bbc:	e15c0006 	cmp	ip, r6
    9bc0:	1afffff6 	bne	9ba0 <uart_write+0x20>
    9bc4:	e1a00001 	mov	r0, r1
    9bc8:	e8bd00f0 	pop	{r4, r5, r6, r7}
    9bcc:	e12fff1e 	bx	lr
    9bd0:	e5923000 	ldr	r3, [r2]
    9bd4:	e3130020 	tst	r3, #32
    9bd8:	1afffffc 	bne	9bd0 <uart_write+0x50>
    9bdc:	e5857000 	str	r7, [r5]
    9be0:	eafffff5 	b	9bbc <uart_write+0x3c>
    9be4:	20201018 	eorcs	r1, r0, r8, lsl r0
    9be8:	20201000 	eorcs	r1, r0, r0

00009bec <strncmp>:
    9bec:	e3520000 	cmp	r2, #0
    9bf0:	e92d0030 	push	{r4, r5}
    9bf4:	0a00000c 	beq	9c2c <strncmp+0x40>
    9bf8:	e5d05000 	ldrb	r5, [r0]
    9bfc:	e5d14000 	ldrb	r4, [r1]
    9c00:	e0554004 	subs	r4, r5, r4
    9c04:	1a00000e 	bne	9c44 <strncmp+0x58>
    9c08:	e080c002 	add	ip, r0, r2
    9c0c:	e24cc001 	sub	ip, ip, #1
    9c10:	ea000003 	b	9c24 <strncmp+0x38>
    9c14:	e5f02001 	ldrb	r2, [r0, #1]!
    9c18:	e5f13001 	ldrb	r3, [r1, #1]!
    9c1c:	e0523003 	subs	r3, r2, r3
    9c20:	1a000004 	bne	9c38 <strncmp+0x4c>
    9c24:	e150000c 	cmp	r0, ip
    9c28:	1afffff9 	bne	9c14 <strncmp+0x28>
    9c2c:	e3a00000 	mov	r0, #0
    9c30:	e8bd0030 	pop	{r4, r5}
    9c34:	e12fff1e 	bx	lr
    9c38:	e1a00003 	mov	r0, r3
    9c3c:	e8bd0030 	pop	{r4, r5}
    9c40:	e12fff1e 	bx	lr
    9c44:	e1a00004 	mov	r0, r4
    9c48:	eafffff8 	b	9c30 <strncmp+0x44>

00009c4c <memcmp>:
    9c4c:	e3520000 	cmp	r2, #0
    9c50:	e92d0030 	push	{r4, r5}
    9c54:	0a00000c 	beq	9c8c <memcmp+0x40>
    9c58:	e5d05000 	ldrb	r5, [r0]
    9c5c:	e5d14000 	ldrb	r4, [r1]
    9c60:	e0554004 	subs	r4, r5, r4
    9c64:	1a00000e 	bne	9ca4 <memcmp+0x58>
    9c68:	e080c002 	add	ip, r0, r2
    9c6c:	e24cc001 	sub	ip, ip, #1
    9c70:	ea000003 	b	9c84 <memcmp+0x38>
    9c74:	e5f02001 	ldrb	r2, [r0, #1]!
    9c78:	e5f13001 	ldrb	r3, [r1, #1]!
    9c7c:	e0523003 	subs	r3, r2, r3
    9c80:	1a000004 	bne	9c98 <memcmp+0x4c>
    9c84:	e150000c 	cmp	r0, ip
    9c88:	1afffff9 	bne	9c74 <memcmp+0x28>
    9c8c:	e3a00000 	mov	r0, #0
    9c90:	e8bd0030 	pop	{r4, r5}
    9c94:	e12fff1e 	bx	lr
    9c98:	e1a00003 	mov	r0, r3
    9c9c:	e8bd0030 	pop	{r4, r5}
    9ca0:	e12fff1e 	bx	lr
    9ca4:	e1a00004 	mov	r0, r4
    9ca8:	eafffff8 	b	9c90 <memcmp+0x44>

00009cac <memcpy>:
    9cac:	e3520000 	cmp	r2, #0
    9cb0:	012fff1e 	bxeq	lr
    9cb4:	e2411001 	sub	r1, r1, #1
    9cb8:	e080c002 	add	ip, r0, r2
    9cbc:	e1a03000 	mov	r3, r0
    9cc0:	e5f12001 	ldrb	r2, [r1, #1]!
    9cc4:	e4c32001 	strb	r2, [r3], #1
    9cc8:	e153000c 	cmp	r3, ip
    9ccc:	1afffffb 	bne	9cc0 <memcpy+0x14>
    9cd0:	e12fff1e 	bx	lr

00009cd4 <strncpy>:
    9cd4:	e3520000 	cmp	r2, #0
    9cd8:	e52d4004 	push	{r4}		; (str r4, [sp, #-4]!)
    9cdc:	0a000010 	beq	9d24 <strncpy+0x50>
    9ce0:	e5d13000 	ldrb	r3, [r1]
    9ce4:	e5c03000 	strb	r3, [r0]
    9ce8:	e5d13000 	ldrb	r3, [r1]
    9cec:	e3530000 	cmp	r3, #0
    9cf0:	0a00000b 	beq	9d24 <strncpy+0x50>
    9cf4:	e0804002 	add	r4, r0, r2
    9cf8:	e2444001 	sub	r4, r4, #1
    9cfc:	e1a03000 	mov	r3, r0
    9d00:	ea000004 	b	9d18 <strncpy+0x44>
    9d04:	e5f1c001 	ldrb	ip, [r1, #1]!
    9d08:	e5e3c001 	strb	ip, [r3, #1]!
    9d0c:	e5d22001 	ldrb	r2, [r2, #1]
    9d10:	e3520000 	cmp	r2, #0
    9d14:	0a000002 	beq	9d24 <strncpy+0x50>
    9d18:	e1530004 	cmp	r3, r4
    9d1c:	e1a02001 	mov	r2, r1
    9d20:	1afffff7 	bne	9d04 <strncpy+0x30>
    9d24:	e49d4004 	pop	{r4}		; (ldr r4, [sp], #4)
    9d28:	e12fff1e 	bx	lr

00009d2c <strlen>:
    9d2c:	e5d03000 	ldrb	r3, [r0]
    9d30:	e3530000 	cmp	r3, #0
    9d34:	0a000006 	beq	9d54 <strlen+0x28>
    9d38:	e1a03000 	mov	r3, r0
    9d3c:	e3a00000 	mov	r0, #0
    9d40:	e5f32001 	ldrb	r2, [r3, #1]!
    9d44:	e2800001 	add	r0, r0, #1
    9d48:	e3520000 	cmp	r2, #0
    9d4c:	1afffffb 	bne	9d40 <strlen+0x14>
    9d50:	e12fff1e 	bx	lr
    9d54:	e1a00003 	mov	r0, r3
    9d58:	e12fff1e 	bx	lr

00009d5c <memset>:
    9d5c:	e92d41f0 	push	{r4, r5, r6, r7, r8, lr}
    9d60:	e1a05002 	mov	r5, r2
    9d64:	e1a06000 	mov	r6, r0
    9d68:	e1a07001 	mov	r7, r1
    9d6c:	e59f0064 	ldr	r0, [pc, #100]	; 9dd8 <memset+0x7c>
    9d70:	e1a01002 	mov	r1, r2
    9d74:	ebfffedc 	bl	98ec <printk>
    9d78:	e3550000 	cmp	r5, #0
    9d7c:	0a000013 	beq	9dd0 <memset+0x74>
    9d80:	e59f8054 	ldr	r8, [pc, #84]	; 9ddc <memset+0x80>
    9d84:	e6ef7077 	uxtb	r7, r7
    9d88:	e3a04000 	mov	r4, #0
    9d8c:	ea000003 	b	9da0 <memset+0x44>
    9d90:	e7c67004 	strb	r7, [r6, r4]
    9d94:	e2844001 	add	r4, r4, #1
    9d98:	e1540005 	cmp	r4, r5
    9d9c:	0a00000b 	beq	9dd0 <memset+0x74>
    9da0:	e0832498 	umull	r2, r3, r8, r4
    9da4:	e1a031a3 	lsr	r3, r3, #3
    9da8:	e0833103 	add	r3, r3, r3, lsl #2
    9dac:	e1540083 	cmp	r4, r3, lsl #1
    9db0:	1afffff6 	bne	9d90 <memset+0x34>
    9db4:	e1a01004 	mov	r1, r4
    9db8:	e59f0020 	ldr	r0, [pc, #32]	; 9de0 <memset+0x84>
    9dbc:	ebfffeca 	bl	98ec <printk>
    9dc0:	e7c67004 	strb	r7, [r6, r4]
    9dc4:	e2844001 	add	r4, r4, #1
    9dc8:	e1540005 	cmp	r4, r5
    9dcc:	1afffff3 	bne	9da0 <memset+0x44>
    9dd0:	e3a00000 	mov	r0, #0
    9dd4:	e8bd81f0 	pop	{r4, r5, r6, r7, r8, pc}
    9dd8:	0000b72c 	andeq	fp, r0, ip, lsr #14
    9ddc:	cccccccd 	stclgt	12, cr12, [ip], {205}	; 0xcd
    9de0:	0000b82c 	andeq	fp, r0, ip, lsr #16

00009de4 <memset32>:
    9de4:	e6ef1071 	uxtb	r1, r1
    9de8:	e1a0c801 	lsl	ip, r1, #16
    9dec:	e18cc401 	orr	ip, ip, r1, lsl #8
    9df0:	e92d0030 	push	{r4, r5}
    9df4:	e18cc001 	orr	ip, ip, r1
    9df8:	e2105003 	ands	r5, r0, #3
    9dfc:	e18ccc01 	orr	ip, ip, r1, lsl #24
    9e00:	01a04002 	moveq	r4, r2
    9e04:	01a03000 	moveq	r3, r0
    9e08:	0a000006 	beq	9e28 <memset32+0x44>
    9e0c:	e2654004 	rsb	r4, r5, #4
    9e10:	e0804004 	add	r4, r0, r4
    9e14:	e1a03000 	mov	r3, r0
    9e18:	e4c31001 	strb	r1, [r3], #1
    9e1c:	e1530004 	cmp	r3, r4
    9e20:	1afffffc 	bne	9e18 <memset32+0x34>
    9e24:	e2424001 	sub	r4, r2, #1
    9e28:	e1b04124 	lsrs	r4, r4, #2
    9e2c:	10834104 	addne	r4, r3, r4, lsl #2
    9e30:	0a000002 	beq	9e40 <memset32+0x5c>
    9e34:	e483c004 	str	ip, [r3], #4
    9e38:	e1530004 	cmp	r3, r4
    9e3c:	1afffffc 	bne	9e34 <memset32+0x50>
    9e40:	e3550000 	cmp	r5, #0
    9e44:	0a000006 	beq	9e64 <memset32+0x80>
    9e48:	e0652002 	rsb	r2, r5, r2
    9e4c:	e0803005 	add	r3, r0, r5
    9e50:	e0833002 	add	r3, r3, r2
    9e54:	e0800002 	add	r0, r0, r2
    9e58:	e4c01001 	strb	r1, [r0], #1
    9e5c:	e1500003 	cmp	r0, r3
    9e60:	1afffffc 	bne	9e58 <memset32+0x74>
    9e64:	e3a00000 	mov	r0, #0
    9e68:	e8bd0030 	pop	{r4, r5}
    9e6c:	e12fff1e 	bx	lr

00009e70 <asm_memset>:
    9e70:	e92d41f0 	push	{r4, r5, r6, r7, r8, lr}
    9e74:	e2103003 	ands	r3, r0, #3
    9e78:	e1a0c000 	mov	ip, r0
    9e7c:	0a000006 	beq	9e9c <asm_memset_4bytealigned>
    9e80:	e2522004 	subs	r2, r2, #4
    9e84:	ba00001a 	blt	9ef4 <asm_memset_lessthan4>
    9e88:	e3530002 	cmp	r3, #2
    9e8c:	b4cc1001 	strblt	r1, [ip], #1
    9e90:	d4cc1001 	strble	r1, [ip], #1
    9e94:	e4cc1001 	strb	r1, [ip], #1
    9e98:	e0822003 	add	r2, r2, r3

00009e9c <asm_memset_4bytealigned>:
    9e9c:	e1811401 	orr	r1, r1, r1, lsl #8
    9ea0:	e1811801 	orr	r1, r1, r1, lsl #16
    9ea4:	e1a03001 	mov	r3, r1
    9ea8:	e1a04001 	mov	r4, r1
    9eac:	e1a05001 	mov	r5, r1
    9eb0:	e1a06001 	mov	r6, r1
    9eb4:	e1a07001 	mov	r7, r1
    9eb8:	e1a08001 	mov	r8, r1
    9ebc:	e1a0e001 	mov	lr, r1

00009ec0 <asm_memset_loop>:
    9ec0:	e2522040 	subs	r2, r2, #64	; 0x40
    9ec4:	a8ac41fa 	stmiage	ip!, {r1, r3, r4, r5, r6, r7, r8, lr}
    9ec8:	a8ac41fa 	stmiage	ip!, {r1, r3, r4, r5, r6, r7, r8, lr}
    9ecc:	cafffffb 	bgt	9ec0 <asm_memset_loop>
    9ed0:	0a00000c 	beq	9f08 <asm_memset_done>
    9ed4:	e3120020 	tst	r2, #32
    9ed8:	18ac41fa 	stmiane	ip!, {r1, r3, r4, r5, r6, r7, r8, lr}
    9edc:	e3120010 	tst	r2, #16
    9ee0:	18ac00f0 	stmiane	ip!, {r4, r5, r6, r7}
    9ee4:	e3120008 	tst	r2, #8
    9ee8:	18ac000a 	stmiane	ip!, {r1, r3}
    9eec:	e3120004 	tst	r2, #4
    9ef0:	148c1004 	strne	r1, [ip], #4

00009ef4 <asm_memset_lessthan4>:
    9ef4:	e3120002 	tst	r2, #2
    9ef8:	14cc1001 	strbne	r1, [ip], #1
    9efc:	14cc1001 	strbne	r1, [ip], #1
    9f00:	e3120001 	tst	r2, #1
    9f04:	14cc1001 	strbne	r1, [ip], #1

00009f08 <asm_memset_done>:
    9f08:	e8bd41f0 	pop	{r4, r5, r6, r7, r8, lr}
    9f0c:	e12fff1e 	bx	lr

00009f10 <test_memset>:
    9f10:	e92d41f0 	push	{r4, r5, r6, r7, r8, lr}
    9f14:	e1a07002 	mov	r7, r2
    9f18:	e1a08000 	mov	r8, r0
    9f1c:	e59f00a8 	ldr	r0, [pc, #168]	; 9fcc <test_memset+0xbc>
    9f20:	e1a05001 	mov	r5, r1
    9f24:	ebfffe70 	bl	98ec <printk>
    9f28:	e3570000 	cmp	r7, #0
    9f2c:	da000021 	ble	9fb8 <test_memset+0xa8>
    9f30:	e3a06000 	mov	r6, #0
    9f34:	e1a04006 	mov	r4, r6
    9f38:	e7d8c004 	ldrb	ip, [r8, r4]
    9f3c:	e1a01004 	mov	r1, r4
    9f40:	e15c0005 	cmp	ip, r5
    9f44:	e2844001 	add	r4, r4, #1
    9f48:	e59f0080 	ldr	r0, [pc, #128]	; 9fd0 <test_memset+0xc0>
    9f4c:	e1a0200c 	mov	r2, ip
    9f50:	e1a03005 	mov	r3, r5
    9f54:	0a000003 	beq	9f68 <test_memset+0x58>
    9f58:	e2866001 	add	r6, r6, #1
    9f5c:	ebfffe62 	bl	98ec <printk>
    9f60:	e3560014 	cmp	r6, #20
    9f64:	ca00000a 	bgt	9f94 <test_memset+0x84>
    9f68:	e1540007 	cmp	r4, r7
    9f6c:	1afffff1 	bne	9f38 <test_memset+0x28>
    9f70:	e0884004 	add	r4, r8, r4
    9f74:	e5d43001 	ldrb	r3, [r4, #1]
    9f78:	e1530005 	cmp	r3, r5
    9f7c:	0a000008 	beq	9fa4 <test_memset+0x94>
    9f80:	e3560000 	cmp	r6, #0
    9f84:	1a000008 	bne	9fac <test_memset+0x9c>
    9f88:	e8bd41f0 	pop	{r4, r5, r6, r7, r8, lr}
    9f8c:	e59f0040 	ldr	r0, [pc, #64]	; 9fd4 <test_memset+0xc4>
    9f90:	eafffe55 	b	98ec <printk>
    9f94:	e0887007 	add	r7, r8, r7
    9f98:	e5d73001 	ldrb	r3, [r7, #1]
    9f9c:	e1530005 	cmp	r3, r5
    9fa0:	1a000001 	bne	9fac <test_memset+0x9c>
    9fa4:	e59f002c 	ldr	r0, [pc, #44]	; 9fd8 <test_memset+0xc8>
    9fa8:	ebfffe4f 	bl	98ec <printk>
    9fac:	e8bd41f0 	pop	{r4, r5, r6, r7, r8, lr}
    9fb0:	e59f0024 	ldr	r0, [pc, #36]	; 9fdc <test_memset+0xcc>
    9fb4:	eafffe4c 	b	98ec <printk>
    9fb8:	e0887007 	add	r7, r8, r7
    9fbc:	e5d73001 	ldrb	r3, [r7, #1]
    9fc0:	e1530005 	cmp	r3, r5
    9fc4:	1affffef 	bne	9f88 <test_memset+0x78>
    9fc8:	eafffff5 	b	9fa4 <test_memset+0x94>
    9fcc:	0000b734 	andeq	fp, r0, r4, lsr r7
    9fd0:	0000b740 	andeq	fp, r0, r0, asr #14
    9fd4:	0000b798 	muleq	r0, r8, r7
    9fd8:	0000b764 	andeq	fp, r0, r4, ror #14
    9fdc:	0000b78c 	andeq	fp, r0, ip, lsl #15

00009fe0 <swi_handler>:
    9fe0:	e92d509f 	push	{r0, r1, r2, r3, r4, r7, ip, lr}
    9fe4:	eb000001 	bl	9ff0 <swi_handler_c>
    9fe8:	e58d0000 	str	r0, [sp]
    9fec:	e8fd909f 	ldm	sp!, {r0, r1, r2, r3, r4, r7, ip, pc}^

00009ff0 <swi_handler_c>:
    9ff0:	e357000d 	cmp	r7, #13
    9ff4:	e92d4098 	push	{r3, r4, r7, lr}
    9ff8:	e1a04000 	mov	r4, r0
    9ffc:	0a000028 	beq	a0a4 <swi_handler_c+0xb4>
    a000:	ca00000b 	bgt	a034 <swi_handler_c+0x44>
    a004:	e3570003 	cmp	r7, #3
    a008:	0a00001e 	beq	a088 <swi_handler_c+0x98>
    a00c:	e3570004 	cmp	r7, #4
    a010:	1a00000f 	bne	a054 <swi_handler_c+0x64>
    a014:	e2403001 	sub	r3, r0, #1
    a018:	e3530001 	cmp	r3, #1
    a01c:	9a000031 	bls	a0e8 <swi_handler_c+0xf8>
    a020:	e1a01000 	mov	r1, r0
    a024:	e59f00cc 	ldr	r0, [pc, #204]	; a0f8 <swi_handler_c+0x108>
    a028:	ebfffe2f 	bl	98ec <printk>
    a02c:	e3e00000 	mvn	r0, #0
    a030:	e8bd8098 	pop	{r3, r4, r7, pc}
    a034:	e3570a02 	cmp	r7, #8192	; 0x2000
    a038:	0a00000a 	beq	a068 <swi_handler_c+0x78>
    a03c:	e59f30b8 	ldr	r3, [pc, #184]	; a0fc <swi_handler_c+0x10c>
    a040:	e1570003 	cmp	r7, r3
    a044:	1a000002 	bne	a054 <swi_handler_c+0x64>
    a048:	ebfffae8 	bl	8bf0 <framebuffer_gradient>
    a04c:	e3a00000 	mov	r0, #0
    a050:	e8bd8098 	pop	{r3, r4, r7, pc}
    a054:	e1a01007 	mov	r1, r7
    a058:	e59f00a0 	ldr	r0, [pc, #160]	; a100 <swi_handler_c+0x110>
    a05c:	ebfffe22 	bl	98ec <printk>
    a060:	e3a00000 	mov	r0, #0
    a064:	e8bd8098 	pop	{r3, r4, r7, pc}
    a068:	e3500000 	cmp	r0, #0
    a06c:	1a000012 	bne	a0bc <swi_handler_c+0xcc>
    a070:	e59f008c 	ldr	r0, [pc, #140]	; a104 <swi_handler_c+0x114>
    a074:	ebfffe1c 	bl	98ec <printk>
    a078:	e59f3088 	ldr	r3, [pc, #136]	; a108 <swi_handler_c+0x118>
    a07c:	e1a00004 	mov	r0, r4
    a080:	e5834000 	str	r4, [r3]
    a084:	e8bd8098 	pop	{r3, r4, r7, pc}
    a088:	e3500000 	cmp	r0, #0
    a08c:	0a000011 	beq	a0d8 <swi_handler_c+0xe8>
    a090:	e1a01000 	mov	r1, r0
    a094:	e59f0070 	ldr	r0, [pc, #112]	; a10c <swi_handler_c+0x11c>
    a098:	ebfffe13 	bl	98ec <printk>
    a09c:	e3e00000 	mvn	r0, #0
    a0a0:	e8bd8098 	pop	{r3, r4, r7, pc}
    a0a4:	e59f3064 	ldr	r3, [pc, #100]	; a110 <swi_handler_c+0x120>
    a0a8:	e3a00000 	mov	r0, #0
    a0ac:	e5933000 	ldr	r3, [r3]
    a0b0:	e1a03323 	lsr	r3, r3, #6
    a0b4:	e5843000 	str	r3, [r4]
    a0b8:	e8bd8098 	pop	{r3, r4, r7, pc}
    a0bc:	e59f0050 	ldr	r0, [pc, #80]	; a114 <swi_handler_c+0x124>
    a0c0:	ebfffe09 	bl	98ec <printk>
    a0c4:	e59f303c 	ldr	r3, [pc, #60]	; a108 <swi_handler_c+0x118>
    a0c8:	e3a02001 	mov	r2, #1
    a0cc:	e5832000 	str	r2, [r3]
    a0d0:	e3a00000 	mov	r0, #0
    a0d4:	e8bd8098 	pop	{r3, r4, r7, pc}
    a0d8:	e1a00001 	mov	r0, r1
    a0dc:	e8bd4098 	pop	{r3, r4, r7, lr}
    a0e0:	e1a01002 	mov	r1, r2
    a0e4:	eafff9f7 	b	88c8 <console_read>
    a0e8:	e1a00001 	mov	r0, r1
    a0ec:	e8bd4098 	pop	{r3, r4, r7, lr}
    a0f0:	e1a01002 	mov	r1, r2
    a0f4:	eafff9eb 	b	88a8 <console_write>
    a0f8:	0000b7d0 	ldrdeq	fp, [r0], -r0
    a0fc:	00002002 	andeq	r2, r0, r2
    a100:	0000b81c 	andeq	fp, r0, ip, lsl r8
    a104:	0000b7f8 	strdeq	fp, [r0], -r8
    a108:	0000c004 	andeq	ip, r0, r4
    a10c:	0000b7a4 	andeq	fp, r0, r4, lsr #15
    a110:	0001166c 	andeq	r1, r1, ip, ror #12
    a114:	0000b80c 	andeq	fp, r0, ip, lsl #16

0000a118 <timer_init>:
    a118:	e59f3038 	ldr	r3, [pc, #56]	; a158 <timer_init+0x40>
    a11c:	e5933000 	ldr	r3, [r3]
    a120:	e59f3034 	ldr	r3, [pc, #52]	; a15c <timer_init+0x44>
    a124:	e3a020f9 	mov	r2, #249	; 0xf9
    a128:	e5832000 	str	r2, [r3]
    a12c:	e3a0203d 	mov	r2, #61	; 0x3d
    a130:	e243301c 	sub	r3, r3, #28
    a134:	e5832000 	str	r2, [r3]
    a138:	e3a020aa 	mov	r2, #170	; 0xaa
    a13c:	e2833008 	add	r3, r3, #8
    a140:	e5832000 	str	r2, [r3]
    a144:	e3a02001 	mov	r2, #1
    a148:	e2433e1f 	sub	r3, r3, #496	; 0x1f0
    a14c:	e5832000 	str	r2, [r3]
    a150:	e3a00000 	mov	r0, #0
    a154:	e12fff1e 	bx	lr
    a158:	2000b408 	andcs	fp, r0, r8, lsl #8
    a15c:	2000b41c 	andcs	fp, r0, ip, lsl r4

0000a160 <ticks_since_boot>:
    a160:	e59f3004 	ldr	r3, [pc, #4]	; a16c <ticks_since_boot+0xc>
    a164:	e5930000 	ldr	r0, [r3]
    a168:	e12fff1e 	bx	lr
    a16c:	0001166c 	andeq	r1, r1, ip, ror #12

0000a170 <shell>:
    a170:	e92d40b0 	push	{r4, r5, r7, lr}
    a174:	e59f0128 	ldr	r0, [pc, #296]	; a2a4 <shell+0x134>
    a178:	e24ddf42 	sub	sp, sp, #264	; 0x108
    a17c:	eb000077 	bl	a360 <printf>
    a180:	e28d4008 	add	r4, sp, #8
    a184:	e59f011c 	ldr	r0, [pc, #284]	; a2a8 <shell+0x138>
    a188:	eb000074 	bl	a360 <printf>
    a18c:	e3a05000 	mov	r5, #0
    a190:	eb000065 	bl	a32c <getchar>
    a194:	e350000a 	cmp	r0, #10
    a198:	1350000d 	cmpne	r0, #13
    a19c:	1a000020 	bne	a224 <shell+0xb4>
    a1a0:	e28d3f42 	add	r3, sp, #264	; 0x108
    a1a4:	e0835005 	add	r5, r3, r5
    a1a8:	e59f00fc 	ldr	r0, [pc, #252]	; a2ac <shell+0x13c>
    a1ac:	e3a03000 	mov	r3, #0
    a1b0:	e5453100 	strb	r3, [r5, #-256]	; 0x100
    a1b4:	eb000069 	bl	a360 <printf>
    a1b8:	e1a00004 	mov	r0, r4
    a1bc:	e59f10ec 	ldr	r1, [pc, #236]	; a2b0 <shell+0x140>
    a1c0:	e3a02004 	mov	r2, #4
    a1c4:	ebfffe88 	bl	9bec <strncmp>
    a1c8:	e3500000 	cmp	r0, #0
    a1cc:	0a000018 	beq	a234 <shell+0xc4>
    a1d0:	e1a00004 	mov	r0, r4
    a1d4:	e59f10d8 	ldr	r1, [pc, #216]	; a2b4 <shell+0x144>
    a1d8:	e3a02004 	mov	r2, #4
    a1dc:	ebfffe82 	bl	9bec <strncmp>
    a1e0:	e3500000 	cmp	r0, #0
    a1e4:	0a000015 	beq	a240 <shell+0xd0>
    a1e8:	e1a00004 	mov	r0, r4
    a1ec:	e59f10c4 	ldr	r1, [pc, #196]	; a2b8 <shell+0x148>
    a1f0:	e3a02004 	mov	r2, #4
    a1f4:	ebfffe7c 	bl	9bec <strncmp>
    a1f8:	e3500000 	cmp	r0, #0
    a1fc:	1a000016 	bne	a25c <shell+0xec>
    a200:	e59f70b4 	ldr	r7, [pc, #180]	; a2bc <shell+0x14c>
    a204:	ef000000 	svc	0x00000000
    a208:	e59f0098 	ldr	r0, [pc, #152]	; a2a8 <shell+0x138>
    a20c:	eb000053 	bl	a360 <printf>
    a210:	eb000045 	bl	a32c <getchar>
    a214:	e350000a 	cmp	r0, #10
    a218:	1350000d 	cmpne	r0, #13
    a21c:	e3a05000 	mov	r5, #0
    a220:	0affffde 	beq	a1a0 <shell+0x30>
    a224:	e7c40005 	strb	r0, [r4, r5]
    a228:	e2855001 	add	r5, r5, #1
    a22c:	eb000031 	bl	a2f8 <putchar>
    a230:	eaffffd6 	b	a190 <shell+0x20>
    a234:	e59f0084 	ldr	r0, [pc, #132]	; a2c0 <shell+0x150>
    a238:	eb000048 	bl	a360 <printf>
    a23c:	eaffffd0 	b	a184 <shell+0x14>
    a240:	e28d0004 	add	r0, sp, #4
    a244:	e3a0700d 	mov	r7, #13
    a248:	ef000000 	svc	0x00000000
    a24c:	e59f0070 	ldr	r0, [pc, #112]	; a2c4 <shell+0x154>
    a250:	e59d1004 	ldr	r1, [sp, #4]
    a254:	eb000041 	bl	a360 <printf>
    a258:	eaffffc9 	b	a184 <shell+0x14>
    a25c:	e1a00004 	mov	r0, r4
    a260:	e59f1060 	ldr	r1, [pc, #96]	; a2c8 <shell+0x158>
    a264:	e3a02004 	mov	r2, #4
    a268:	ebfffe5f 	bl	9bec <strncmp>
    a26c:	e3500000 	cmp	r0, #0
    a270:	0a000008 	beq	a298 <shell+0x128>
    a274:	e1a00004 	mov	r0, r4
    a278:	e59f104c 	ldr	r1, [pc, #76]	; a2cc <shell+0x15c>
    a27c:	e3a02004 	mov	r2, #4
    a280:	ebfffe59 	bl	9bec <strncmp>
    a284:	e3500000 	cmp	r0, #0
    a288:	059f0040 	ldreq	r0, [pc, #64]	; a2d0 <shell+0x160>
    a28c:	159f0040 	ldrne	r0, [pc, #64]	; a2d4 <shell+0x164>
    a290:	eb000032 	bl	a360 <printf>
    a294:	eaffffba 	b	a184 <shell+0x14>
    a298:	e59f0038 	ldr	r0, [pc, #56]	; a2d8 <shell+0x168>
    a29c:	eb00002f 	bl	a360 <printf>
    a2a0:	eaffffb7 	b	a184 <shell+0x14>
    a2a4:	0000b830 	andeq	fp, r0, r0, lsr r8
    a2a8:	0000b83c 	andeq	fp, r0, ip, lsr r8
    a2ac:	0000b760 	andeq	fp, r0, r0, ror #14
    a2b0:	0000b4b8 			; <UNDEFINED> instruction: 0x0000b4b8
    a2b4:	0000b84c 	andeq	fp, r0, ip, asr #16
    a2b8:	0000b860 	andeq	fp, r0, r0, ror #16
    a2bc:	00002002 	andeq	r2, r0, r2
    a2c0:	0000b840 	andeq	fp, r0, r0, asr #16
    a2c4:	0000b854 	andeq	fp, r0, r4, asr r8
    a2c8:	0000b86c 	andeq	fp, r0, ip, ror #16
    a2cc:	0000b884 	andeq	fp, r0, r4, lsl #17
    a2d0:	0000b88c 	andeq	fp, r0, ip, lsl #17
    a2d4:	0000b8b4 			; <UNDEFINED> instruction: 0x0000b8b4
    a2d8:	0000b874 	andeq	fp, r0, r4, ror r8

0000a2dc <write>:
    a2dc:	e52d7004 	push	{r7}		; (str r7, [sp, #-4]!)
    a2e0:	e3a07004 	mov	r7, #4
    a2e4:	ef000000 	svc	0x00000000
    a2e8:	e3700a01 	cmn	r0, #4096	; 0x1000
    a2ec:	83e00000 	mvnhi	r0, #0
    a2f0:	e49d7004 	pop	{r7}		; (ldr r7, [sp], #4)
    a2f4:	e12fff1e 	bx	lr

0000a2f8 <putchar>:
    a2f8:	e52d7004 	push	{r7}		; (str r7, [sp, #-4]!)
    a2fc:	e24dd00c 	sub	sp, sp, #12
    a300:	e28d1008 	add	r1, sp, #8
    a304:	e5610004 	strb	r0, [r1, #-4]!
    a308:	e3a00001 	mov	r0, #1
    a30c:	e1a02000 	mov	r2, r0
    a310:	e3a07004 	mov	r7, #4
    a314:	ef000000 	svc	0x00000000
    a318:	e3700a01 	cmn	r0, #4096	; 0x1000
    a31c:	83e00000 	mvnhi	r0, #0
    a320:	e28dd00c 	add	sp, sp, #12
    a324:	e49d7004 	pop	{r7}		; (ldr r7, [sp], #4)
    a328:	e12fff1e 	bx	lr

0000a32c <getchar>:
    a32c:	e52d7004 	push	{r7}		; (str r7, [sp, #-4]!)
    a330:	e24dd00c 	sub	sp, sp, #12
    a334:	e3a00000 	mov	r0, #0
    a338:	e28d1004 	add	r1, sp, #4
    a33c:	e3a02001 	mov	r2, #1
    a340:	e3a07003 	mov	r7, #3
    a344:	ef000000 	svc	0x00000000
    a348:	e5dd0004 	ldrb	r0, [sp, #4]
    a34c:	e3500000 	cmp	r0, #0
    a350:	0afffff7 	beq	a334 <getchar+0x8>
    a354:	e28dd00c 	add	sp, sp, #12
    a358:	e49d7004 	pop	{r7}		; (ldr r7, [sp], #4)
    a35c:	e12fff1e 	bx	lr

0000a360 <printf>:
    a360:	e92d000f 	push	{r0, r1, r2, r3}
    a364:	e92d00f0 	push	{r4, r5, r6, r7}
    a368:	e24dde11 	sub	sp, sp, #272	; 0x110
    a36c:	e28d7f49 	add	r7, sp, #292	; 0x124
    a370:	e59d0120 	ldr	r0, [sp, #288]	; 0x120
    a374:	e59f617c 	ldr	r6, [pc, #380]	; a4f8 <printf+0x198>
    a378:	e58d7000 	str	r7, [sp]
    a37c:	e3a02000 	mov	r2, #0
    a380:	ea000006 	b	a3a0 <printf+0x40>
    a384:	e28dce11 	add	ip, sp, #272	; 0x110
    a388:	e08c1002 	add	r1, ip, r2
    a38c:	e2800001 	add	r0, r0, #1
    a390:	e5413100 	strb	r3, [r1, #-256]	; 0x100
    a394:	e2822001 	add	r2, r2, #1
    a398:	e35200ff 	cmp	r2, #255	; 0xff
    a39c:	0a00002d 	beq	a458 <printf+0xf8>
    a3a0:	e5d03000 	ldrb	r3, [r0]
    a3a4:	e3530000 	cmp	r3, #0
    a3a8:	0a00002a 	beq	a458 <printf+0xf8>
    a3ac:	e3530025 	cmp	r3, #37	; 0x25
    a3b0:	1afffff3 	bne	a384 <printf+0x24>
    a3b4:	e5d03001 	ldrb	r3, [r0, #1]
    a3b8:	e3530064 	cmp	r3, #100	; 0x64
    a3bc:	0a00002e 	beq	a47c <printf+0x11c>
    a3c0:	e3530078 	cmp	r3, #120	; 0x78
    a3c4:	12800001 	addne	r0, r0, #1
    a3c8:	1afffff2 	bne	a398 <printf+0x38>
    a3cc:	e5971000 	ldr	r1, [r7]
    a3d0:	e2800002 	add	r0, r0, #2
    a3d4:	e2877004 	add	r7, r7, #4
    a3d8:	e3a03009 	mov	r3, #9
    a3dc:	e28d5004 	add	r5, sp, #4
    a3e0:	ea000000 	b	a3e8 <printf+0x88>
    a3e4:	e1a0300c 	mov	r3, ip
    a3e8:	e1a0cfc1 	asr	ip, r1, #31
    a3ec:	e1a0ce2c 	lsr	ip, ip, #28
    a3f0:	e081400c 	add	r4, r1, ip
    a3f4:	e204400f 	and	r4, r4, #15
    a3f8:	e06cc004 	rsb	ip, ip, r4
    a3fc:	e35c0009 	cmp	ip, #9
    a400:	d28cc030 	addle	ip, ip, #48	; 0x30
    a404:	c28cc057 	addgt	ip, ip, #87	; 0x57
    a408:	e7c5c003 	strb	ip, [r5, r3]
    a40c:	e3510000 	cmp	r1, #0
    a410:	e281c00f 	add	ip, r1, #15
    a414:	b1a0100c 	movlt	r1, ip
    a418:	e1b01241 	asrs	r1, r1, #4
    a41c:	e243c001 	sub	ip, r3, #1
    a420:	1affffef 	bne	a3e4 <printf+0x84>
    a424:	e063c002 	rsb	ip, r3, r2
    a428:	e28d1010 	add	r1, sp, #16
    a42c:	e081c00c 	add	ip, r1, ip
    a430:	e1a04003 	mov	r4, r3
    a434:	e7d51003 	ldrb	r1, [r5, r3]
    a438:	e7cc1003 	strb	r1, [ip, r3]
    a43c:	e2833001 	add	r3, r3, #1
    a440:	e353000a 	cmp	r3, #10
    a444:	1afffffa 	bne	a434 <printf+0xd4>
    a448:	e282200a 	add	r2, r2, #10
    a44c:	e0642002 	rsb	r2, r4, r2
    a450:	e35200ff 	cmp	r2, #255	; 0xff
    a454:	1affffd1 	bne	a3a0 <printf+0x40>
    a458:	e3a00001 	mov	r0, #1
    a45c:	e28d1010 	add	r1, sp, #16
    a460:	e3a07004 	mov	r7, #4
    a464:	ef000000 	svc	0x00000000
    a468:	e1a00002 	mov	r0, r2
    a46c:	e28dde11 	add	sp, sp, #272	; 0x110
    a470:	e8bd00f0 	pop	{r4, r5, r6, r7}
    a474:	e28dd010 	add	sp, sp, #16
    a478:	e12fff1e 	bx	lr
    a47c:	e597c000 	ldr	ip, [r7]
    a480:	e2800002 	add	r0, r0, #2
    a484:	e2877004 	add	r7, r7, #4
    a488:	e3a03009 	mov	r3, #9
    a48c:	e28d5004 	add	r5, sp, #4
    a490:	ea000000 	b	a498 <printf+0x138>
    a494:	e1a03001 	mov	r3, r1
    a498:	e0c41c96 	smull	r1, r4, r6, ip
    a49c:	e1a01fcc 	asr	r1, ip, #31
    a4a0:	e0611144 	rsb	r1, r1, r4, asr #2
    a4a4:	e0814101 	add	r4, r1, r1, lsl #2
    a4a8:	e04c4084 	sub	r4, ip, r4, lsl #1
    a4ac:	e2844030 	add	r4, r4, #48	; 0x30
    a4b0:	e6ef4074 	uxtb	r4, r4
    a4b4:	e251c000 	subs	ip, r1, #0
    a4b8:	e7c54003 	strb	r4, [r5, r3]
    a4bc:	e2431001 	sub	r1, r3, #1
    a4c0:	1afffff3 	bne	a494 <printf+0x134>
    a4c4:	e28dc010 	add	ip, sp, #16
    a4c8:	e0631002 	rsb	r1, r3, r2
    a4cc:	e08c1001 	add	r1, ip, r1
    a4d0:	e1a0c003 	mov	ip, r3
    a4d4:	ea000000 	b	a4dc <printf+0x17c>
    a4d8:	e7d54003 	ldrb	r4, [r5, r3]
    a4dc:	e7c14003 	strb	r4, [r1, r3]
    a4e0:	e2833001 	add	r3, r3, #1
    a4e4:	e353000a 	cmp	r3, #10
    a4e8:	1afffffa 	bne	a4d8 <printf+0x178>
    a4ec:	e282200a 	add	r2, r2, #10
    a4f0:	e06c2002 	rsb	r2, ip, r2
    a4f4:	eaffffa7 	b	a398 <printf+0x38>
    a4f8:	66666667 	strbtvs	r6, [r6], -r7, ror #12

Disassembly of section .rodata:

0000b000 <__rodata_start>:
    b000:	00000001 	andeq	r0, r0, r1
    b004:	00000002 	andeq	r0, r0, r2
    b008:	00000004 	andeq	r0, r0, r4
    b00c:	00000008 	andeq	r0, r0, r8
    b010:	00000010 	andeq	r0, r0, r0, lsl r0
    b014:	00000020 	andeq	r0, r0, r0, lsr #32
    b018:	00000040 	andeq	r0, r0, r0, asr #32
    b01c:	00000080 	andeq	r0, r0, r0, lsl #1

Disassembly of section .rodata.str1.4:

0000b020 <.rodata.str1.4>:
    b020:	6961570a 	stmdbvs	r1!, {r1, r3, r8, r9, sl, ip, lr}^
    b024:	676e6974 			; <UNDEFINED> instruction: 0x676e6974
    b028:	726f6620 	rsbvc	r6, pc, #32, 12	; 0x2000000
    b02c:	72657320 	rsbvc	r7, r5, #32, 6	; 0x80000000
    b030:	206c6169 	rsbcs	r6, ip, r9, ror #2
    b034:	74726f70 	ldrbtvc	r6, [r2], #-3952	; 0xf70
    b038:	206f7420 	rsbcs	r7, pc, r0, lsr #8
    b03c:	72206562 	eorvc	r6, r0, #411041792	; 0x18800000
    b040:	79646165 	stmdbvc	r4!, {r0, r2, r5, r6, r8, sp, lr}^
    b044:	72702820 	rsbsvc	r2, r0, #32, 16	; 0x200000
    b048:	20737365 	rsbscs	r7, r3, r5, ror #6
    b04c:	20796e61 	rsbscs	r6, r9, r1, ror #28
    b050:	2979656b 	ldmdbcs	r9!, {r0, r1, r3, r5, r6, r8, sl, sp, lr}^
    b054:	0000000a 	andeq	r0, r0, sl
    b058:	64726148 	ldrbtvs	r6, [r2], #-328	; 0x148
    b05c:	65726177 	ldrbvs	r6, [r2, #-375]!	; 0x177
    b060:	72657620 	rsbvc	r7, r5, #32, 12	; 0x2000000
    b064:	6e6f6973 	mcrvs	9, 3, r6, cr15, cr3, {3}
    b068:	7825203a 	stmdavc	r5!, {r1, r3, r4, r5, sp}
    b06c:	00000020 	andeq	r0, r0, r0, lsr #32
    b070:	73615228 	cmnvc	r1, #40, 4	; 0x80000002
    b074:	72656270 	rsbvc	r6, r5, #112, 4
    b078:	50207972 	eorpl	r7, r0, r2, ror r9
    b07c:	00002969 	andeq	r2, r0, r9, ror #18
    b080:	6b6e5528 	blvs	1ba0528 <__bss_end+0x1b80528>
    b084:	6e776f6e 	cdpvs	15, 7, cr6, cr7, cr14, {3}
    b088:	72614820 	rsbvc	r4, r1, #32, 16	; 0x200000
    b08c:	72617764 	rsbvc	r7, r1, #100, 14	; 0x1900000
    b090:	00002965 	andeq	r2, r0, r5, ror #18
    b094:	65746544 	ldrbvs	r6, [r4, #-1348]!	; 0x544
    b098:	64657463 	strbtvs	r7, [r5], #-1123	; 0x463
    b09c:	646f4d20 	strbtvs	r4, [pc], #-3360	; b0a4 <__rodata_start+0xa4>
    b0a0:	00206c65 	eoreq	r6, r0, r5, ror #24
    b0a4:	00000041 	andeq	r0, r0, r1, asr #32
    b0a8:	00002b41 	andeq	r2, r0, r1, asr #22
    b0ac:	00000042 	andeq	r0, r0, r2, asr #32
    b0b0:	00002b42 	andeq	r2, r0, r2, asr #22
    b0b4:	00003242 	andeq	r3, r0, r2, asr #4
    b0b8:	706d6f43 	rsbvc	r6, sp, r3, asr #30
    b0bc:	20657475 	rsbcs	r7, r5, r5, ror r4
    b0c0:	65646f4e 	strbvs	r6, [r4, #-3918]!	; 0xf4e
    b0c4:	00000000 	andeq	r0, r0, r0
    b0c8:	6e6b6e55 	mcrvs	14, 3, r6, cr11, cr5, {2}
    b0cc:	206e776f 	rsbcs	r7, lr, pc, ror #14
    b0d0:	00007825 	andeq	r7, r0, r5, lsr #16
    b0d4:	0a64250a 	beq	1914504 <__bss_end+0x18f4504>
    b0d8:	00000000 	andeq	r0, r0, r0
    b0dc:	746e450a 	strbtvc	r4, [lr], #-1290	; 0x50a
    b0e0:	6e697265 	cdpvs	2, 6, cr7, cr9, cr5, {3}
    b0e4:	73752067 	cmnvc	r5, #103	; 0x67
    b0e8:	70737265 	rsbsvc	r7, r3, r5, ror #4
    b0ec:	0a656361 	beq	1963e78 <__bss_end+0x1943e78>
    b0f0:	00000000 	andeq	r0, r0, r0
    b0f4:	706d7544 	rsbvc	r7, sp, r4, asr #10
    b0f8:	20676e69 	rsbcs	r6, r7, r9, ror #28
    b0fc:	47415441 	strbmi	r5, [r1, -r1, asr #8]
    b100:	72702073 	rsbsvc	r2, r0, #115	; 0x73
    b104:	6569766f 	strbvs	r7, [r9, #-1647]!	; 0x66f
    b108:	79622064 	stmdbvc	r2!, {r2, r5, r6, sp}^
    b10c:	6f6f6220 	svcvs	0x006f6220
    b110:	616f6c74 	smcvs	63172	; 0xf6c4
    b114:	3a726564 	bcc	1ca46ac <__bss_end+0x1c846ac>
    b118:	0000000a 	andeq	r0, r0, sl
    b11c:	4f432020 	svcmi	0x00432020
    b120:	203a4552 	eorscs	r4, sl, r2, asr r5
    b124:	67616c66 	strbvs	r6, [r1, -r6, ror #24]!
    b128:	25203a73 	strcs	r3, [r0, #-2675]!	; 0xa73
    b12c:	70202c78 	eorvc	r2, r0, r8, ror ip
    b130:	73656761 	cmnvc	r5, #25427968	; 0x1840000
    b134:	3a657a69 	bcc	1969ae0 <__bss_end+0x1949ae0>
    b138:	2c782520 	cfldr64cs	mvdx2, [r8], #-128	; 0xffffff80
    b13c:	6f6f7220 	svcvs	0x006f7220
    b140:	76656474 			; <UNDEFINED> instruction: 0x76656474
    b144:	7825203a 	stmdavc	r5!, {r1, r3, r4, r5, sp}
    b148:	0000000a 	andeq	r0, r0, sl
    b14c:	454d2020 	strbmi	r2, [sp, #-32]
    b150:	59524f4d 	ldmdbpl	r2, {r0, r2, r3, r6, r8, r9, sl, fp, lr}^
    b154:	6973203a 	ldmdbvs	r3!, {r1, r3, r4, r5, sp}^
    b158:	203a657a 	eorscs	r6, sl, sl, ror r5
    b15c:	28207825 	stmdacs	r0!, {r0, r2, r5, fp, ip, sp, lr}
    b160:	424d6425 	submi	r6, sp, #620756992	; 0x25000000
    b164:	73202c29 	teqvc	r0, #10496	; 0x2900
    b168:	74726174 	ldrbtvc	r6, [r2], #-372	; 0x174
    b16c:	7825203a 	stmdavc	r5!, {r1, r3, r4, r5, sp}
    b170:	0000000a 	andeq	r0, r0, sl
    b174:	49562020 	ldmdbmi	r6, {r5, sp}^
    b178:	544f4544 	strbpl	r4, [pc], #-1348	; b180 <__rodata_start+0x180>
    b17c:	20545845 	subscs	r5, r4, r5, asr #16
    b180:	2c792c78 	ldclcs	12, cr2, [r9], #-480	; 0xfffffe20
    b184:	65646976 	strbvs	r6, [r4, #-2422]!	; 0x976
    b188:	25203a6f 	strcs	r3, [r0, #-2671]!	; 0xa6f
    b18c:	6d202c78 	stcvs	12, cr2, [r0, #-480]!	; 0xfffffe20
    b190:	2c65646f 	cfstrdcs	mvd6, [r5], #-444	; 0xfffffe44
    b194:	736c6f63 	cmnvc	ip, #396	; 0x18c
    b198:	6765202c 	strbvs	r2, [r5, -ip, lsr #32]!
    b19c:	25203a61 	strcs	r3, [r0, #-2657]!	; 0xa61
    b1a0:	6c202c78 	stcvs	12, cr2, [r0], #-480	; 0xfffffe20
    b1a4:	73656e69 	cmnvc	r5, #1680	; 0x690
    b1a8:	6776202c 	ldrbvs	r2, [r6, -ip, lsr #32]!
    b1ac:	70202c61 	eorvc	r2, r0, r1, ror #24
    b1b0:	746e696f 	strbtvc	r6, [lr], #-2415	; 0x96f
    b1b4:	25203a73 	strcs	r3, [r0, #-2675]!	; 0xa73
    b1b8:	00000a78 	andeq	r0, r0, r8, ror sl
    b1bc:	41522020 	cmpmi	r2, r0, lsr #32
    b1c0:	5349444d 	movtpl	r4, #37965	; 0x944d
    b1c4:	6c66204b 	stclvs	0, cr2, [r6], #-300	; 0xfffffed4
    b1c8:	3a736761 	bcc	1ce4f54 <__bss_end+0x1cc4f54>
    b1cc:	2c782520 	cfldr64cs	mvdx2, [r8], #-128	; 0xffffff80
    b1d0:	7a697320 	bvc	1a67e58 <__bss_end+0x1a47e58>
    b1d4:	25203a65 	strcs	r3, [r0, #-2661]!	; 0xa65
    b1d8:	73202c78 	teqvc	r0, #120, 24	; 0x7800
    b1dc:	74726174 	ldrbtvc	r6, [r2], #-372	; 0x174
    b1e0:	7825203a 	stmdavc	r5!, {r1, r3, r4, r5, sp}
    b1e4:	0000000a 	andeq	r0, r0, sl
    b1e8:	4e492020 	cdpmi	0, 4, cr2, cr9, cr0, {1}
    b1ec:	44525449 	ldrbmi	r5, [r2], #-1097	; 0x449
    b1f0:	7a697320 	bvc	1a67e78 <__bss_end+0x1a47e78>
    b1f4:	25203a65 	strcs	r3, [r0, #-2661]!	; 0xa65
    b1f8:	73202c78 	teqvc	r0, #120, 24	; 0x7800
    b1fc:	74726174 	ldrbtvc	r6, [r2], #-372	; 0x174
    b200:	7825203a 	stmdavc	r5!, {r1, r3, r4, r5, sp}
    b204:	0000000a 	andeq	r0, r0, sl
    b208:	52455320 	subpl	r5, r5, #32, 6	; 0x80000000
    b20c:	204c4149 	subcs	r4, ip, r9, asr #2
    b210:	424d554e 	submi	r5, sp, #327155712	; 0x13800000
    b214:	203a5245 	eorscs	r5, sl, r5, asr #4
    b218:	3a776f6c 	bcc	1de6fd0 <__bss_end+0x1dc6fd0>
    b21c:	2c782520 	cfldr64cs	mvdx2, [r8], #-128	; 0xffffff80
    b220:	67696820 	strbvs	r6, [r9, -r0, lsr #16]!
    b224:	25203a68 	strcs	r3, [r0, #-2664]!	; 0xa68
    b228:	00000a78 	andeq	r0, r0, r8, ror sl
    b22c:	616f4220 	cmnvs	pc, r0, lsr #4
    b230:	72206472 	eorvc	r6, r0, #1912602624	; 0x72000000
    b234:	73697665 	cmnvc	r9, #105906176	; 0x6500000
    b238:	3a6e6f69 	bcc	1ba6fe4 <__bss_end+0x1b86fe4>
    b23c:	0a782520 	beq	1e146c4 <__bss_end+0x1df46c4>
    b240:	00000000 	andeq	r0, r0, r0
    b244:	45562020 	ldrbmi	r2, [r6, #-32]
    b248:	66204153 			; <UNDEFINED> instruction: 0x66204153
    b24c:	656d6172 	strbvs	r6, [sp, #-370]!	; 0x172
    b250:	66667562 	strbtvs	r7, [r6], -r2, ror #10
    b254:	000a7265 	andeq	r7, sl, r5, ror #4
    b258:	6f432020 	svcvs	0x00432020
    b25c:	6e616d6d 	cdpvs	13, 6, cr6, cr1, cr13, {3}
    b260:	6e696c64 	cdpvs	12, 6, cr6, cr9, cr4, {3}
    b264:	25282065 	strcs	r2, [r8, #-101]!	; 0x65
    b268:	203a2964 	eorscs	r2, sl, r4, ror #18
    b26c:	00000000 	andeq	r0, r0, r0
    b270:	4f525245 	svcmi	0x00525245
    b274:	55202152 	strpl	r2, [r0, #-338]!	; 0x152
    b278:	6f6e6b6e 	svcvs	0x006e6b6e
    b27c:	61206e77 	teqvs	r0, r7, ror lr
    b280:	20676174 	rsbcs	r6, r7, r4, ror r1
    b284:	000a7825 	andeq	r7, sl, r5, lsr #16
    b288:	6e726157 	mrcvs	1, 3, r6, cr2, cr7, {2}
    b28c:	21676e69 	cmncs	r7, r9, ror #28
    b290:	65572020 	ldrbvs	r2, [r7, #-32]
    b294:	206f6420 	rsbcs	r6, pc, r0, lsr #8
    b298:	20746f6e 	rsbscs	r6, r4, lr, ror #30
    b29c:	646e6168 	strbtvs	r6, [lr], #-360	; 0x168
    b2a0:	6d20656c 	cfstr32vs	mvfx6, [r0, #-432]!	; 0xfffffe50
    b2a4:	726f6d65 	rsbvc	r6, pc, #6464	; 0x1940
    b2a8:	6f6e2079 	svcvs	0x006e2079
    b2ac:	74732074 	ldrbtvc	r2, [r3], #-116	; 0x74
    b2b0:	69747261 	ldmdbvs	r4!, {r0, r5, r6, r9, ip, sp, lr}^
    b2b4:	6120676e 	teqvs	r0, lr, ror #14
    b2b8:	657a2074 	ldrbvs	r2, [sl, #-116]!	; 0x74
    b2bc:	0a216f72 	beq	86708c <__bss_end+0x84708c>
    b2c0:	00000000 	andeq	r0, r0, r0
    b2c4:	69776266 	ldmdbvs	r7!, {r1, r2, r5, r6, r9, sp, lr}^
    b2c8:	00687464 	rsbeq	r7, r8, r4, ror #8
    b2cc:	65686266 	strbvs	r6, [r8, #-614]!	; 0x266
    b2d0:	74686769 	strbtvc	r6, [r8], #-1897	; 0x769
    b2d4:	00000000 	andeq	r0, r0, r0
    b2d8:	00766572 	rsbseq	r6, r6, r2, ror r5
    b2dc:	4f525245 	svcmi	0x00525245
    b2e0:	55202152 	strpl	r2, [r0, #-338]!	; 0x152
    b2e4:	6f6e6b6e 	svcvs	0x006e6b6e
    b2e8:	61206e77 	teqvs	r0, r7, ror lr
    b2ec:	0a676174 	beq	19e38c4 <__bss_end+0x19c38c4>
    b2f0:	00000000 	andeq	r0, r0, r0
    b2f4:	6e6b6e55 	mcrvs	14, 3, r6, cr11, cr5, {2}
    b2f8:	206e776f 	rsbcs	r7, lr, pc, ror #14
    b2fc:	65746e69 	ldrbvs	r6, [r4, #-3689]!	; 0xe69
    b300:	70757272 	rsbsvc	r7, r5, r2, ror r2
    b304:	78252074 	stmdavc	r5!, {r2, r4, r5, r6, sp}
    b308:	0000000a 	andeq	r0, r0, sl
    b30c:	65646e55 	strbvs	r6, [r4, #-3669]!	; 0xe55
    b310:	656e6966 	strbvs	r6, [lr, #-2406]!	; 0x966
    b314:	6e692064 	cdpvs	0, 6, cr2, cr9, cr4, {3}
    b318:	75727473 	ldrbvc	r7, [r2, #-1139]!	; 0x473
    b31c:	6f697463 	svcvs	0x00697463
    b320:	000a216e 	andeq	r2, sl, lr, ror #2
    b324:	66657250 			; <UNDEFINED> instruction: 0x66657250
    b328:	68637465 	stmdavs	r3!, {r0, r2, r5, r6, sl, ip, sp, lr}^
    b32c:	6e616820 	cdpvs	8, 6, cr6, cr1, cr0, {1}
    b330:	72656c64 	rsbvc	r6, r5, #100, 24	; 0x6400
    b334:	00000a21 	andeq	r0, r0, r1, lsr #20
    b338:	61746144 	cmnvs	r4, r4, asr #2
    b33c:	6e616820 	cdpvs	8, 6, cr6, cr1, cr0, {1}
    b340:	72656c64 	rsbvc	r6, r5, #100, 24	; 0x6400
    b344:	00000a21 	andeq	r0, r0, r1, lsr #20
    b348:	20514946 	subscs	r4, r1, r6, asr #18
    b34c:	646e6168 	strbtvs	r6, [lr], #-360	; 0x168
    b350:	2172656c 	cmncs	r2, ip, ror #10
    b354:	0000000a 	andeq	r0, r0, sl
    b358:	65736552 	ldrbvs	r6, [r3, #-1362]!	; 0x552
    b35c:	72742074 	rsbsvc	r2, r4, #116	; 0x74
    b360:	65676769 	strbvs	r6, [r7, #-1897]!	; 0x769
    b364:	21646572 	smccs	18002	; 0x4652
    b368:	0000000a 	andeq	r0, r0, sl
    b36c:	25207870 	strcs	r7, [r0, #-2160]!	; 0x870
    b370:	79702064 	ldmdbvc	r0!, {r2, r5, r6, sp}^
    b374:	20642520 	rsbcs	r2, r4, r0, lsr #10
    b378:	25207876 	strcs	r7, [r0, #-2166]!	; 0x876
    b37c:	79762064 	ldmdbvc	r6!, {r2, r5, r6, sp}^
    b380:	20642520 	rsbcs	r2, r4, r0, lsr #10
    b384:	63746970 	cmnvs	r4, #112, 18	; 0x1c0000
    b388:	64252068 	strtvs	r2, [r5], #-104	; 0x68
    b38c:	70656420 	rsbvc	r6, r5, r0, lsr #8
    b390:	25206874 	strcs	r6, [r0, #-2164]!	; 0x874
    b394:	20782064 	rsbscs	r2, r8, r4, rrx
    b398:	79206425 	stmdbvc	r0!, {r0, r2, r5, sl, sp, lr}
    b39c:	20642520 	rsbcs	r2, r4, r0, lsr #10
    b3a0:	20727470 	rsbscs	r7, r2, r0, ror r4
    b3a4:	73207825 	teqvc	r0, #2424832	; 0x250000
    b3a8:	6425207a 	strtvs	r2, [r5], #-122	; 0x7a
    b3ac:	0000000a 	andeq	r0, r0, sl
    b3b0:	203a6266 	eorscs	r6, sl, r6, ror #4
    b3b4:	74697257 	strbtvc	r7, [r9], #-599	; 0x257
    b3b8:	20676e69 	rsbcs	r6, r7, r9, ror #28
    b3bc:	7373656d 	cmnvc	r3, #457179136	; 0x1b400000
    b3c0:	20656761 	rsbcs	r6, r5, r1, ror #14
    b3c4:	20782540 	rsbscs	r2, r8, r0, asr #10
    b3c8:	6d206f74 	stcvs	15, cr6, [r0, #-464]!	; 0xfffffe30
    b3cc:	626c6961 	rsbvs	r6, ip, #1589248	; 0x184000
    b3d0:	2520786f 	strcs	r7, [r0, #-2159]!	; 0x86f
    b3d4:	00000a78 	andeq	r0, r0, r8, ror sl
    b3d8:	203a6266 	eorscs	r6, sl, r6, ror #4
    b3dc:	696b7361 	stmdbvs	fp!, {r0, r5, r6, r8, r9, ip, sp, lr}^
    b3e0:	6620676e 	strtvs	r6, [r0], -lr, ror #14
    b3e4:	0020726f 	eoreq	r7, r0, pc, ror #4
    b3e8:	6c69614d 	stfvse	f6, [r9], #-308	; 0xfffffecc
    b3ec:	20786f62 	rsbscs	r6, r8, r2, ror #30
    b3f0:	74697277 	strbtvc	r7, [r9], #-631	; 0x277
    b3f4:	61662065 	cmnvs	r6, r5, rrx
    b3f8:	64656c69 	strbtvs	r6, [r5], #-3177	; 0xc69
    b3fc:	0000000a 	andeq	r0, r0, sl
    b400:	203a6266 	eorscs	r6, sl, r6, ror #4
    b404:	67206577 			; <UNDEFINED> instruction: 0x67206577
    b408:	0020746f 	eoreq	r7, r0, pc, ror #8
    b40c:	6c69614d 	stfvse	f6, [r9], #-308	; 0xfffffecc
    b410:	20786f62 	rsbscs	r6, r8, r2, ror #30
    b414:	64616572 	strbtvs	r6, [r1], #-1394	; 0x572
    b418:	69616620 	stmdbvs	r1!, {r5, r9, sl, sp, lr}^
    b41c:	0a64656c 	beq	19249d4 <__bss_end+0x19049d4>
    b420:	00000000 	andeq	r0, r0, r0
    b424:	6e697355 	mcrvs	3, 3, r7, cr9, cr5, {2}
    b428:	65642067 	strbvs	r2, [r4, #-103]!	; 0x67
    b42c:	6c756166 	ldfvse	f6, [r5], #-408	; 0xfffffe68
    b430:	6f662074 	svcvs	0x00662074
    b434:	000a746e 	andeq	r7, sl, lr, ror #8
    b438:	61766e49 	cmnvs	r6, r9, asr #28
    b43c:	2064696c 	rsbcs	r6, r4, ip, ror #18
    b440:	4f495047 	svcmi	0x00495047
    b444:	000a6425 	andeq	r6, sl, r5, lsr #8
    b448:	4f495047 	svcmi	0x00495047
    b44c:	61206425 	teqvs	r0, r5, lsr #8
    b450:	6165726c 	cmnvs	r5, ip, ror #4
    b454:	69207964 	stmdbvs	r0!, {r2, r5, r6, r8, fp, ip, sp, lr}
    b458:	7375206e 	cmnvc	r5, #110	; 0x6e
    b45c:	00000a65 	andeq	r0, r0, r5, ror #20
    b460:	6f6c6c41 	svcvs	0x006c6c41
    b464:	69746163 	ldmdbvs	r4!, {r0, r1, r5, r6, r8, sp, lr}^
    b468:	4720676e 	strmi	r6, [r0, -lr, ror #14]!
    b46c:	254f4950 	strbcs	r4, [pc, #-2384]	; ab24 <printf+0x7c4>
    b470:	73612064 	cmnvc	r1, #100	; 0x64
    b474:	0a732520 	beq	1cd48fc <__bss_end+0x1cb48fc>
    b478:	00000000 	andeq	r0, r0, r0
    b47c:	65657246 	strbvs	r7, [r5, #-582]!	; 0x246
    b480:	20676e69 	rsbcs	r6, r7, r9, ror #28
    b484:	4f495047 	svcmi	0x00495047
    b488:	000a6425 	andeq	r6, sl, r5, lsr #8
    b48c:	4f495047 	svcmi	0x00495047
    b490:	74206425 	strtvc	r6, [r0], #-1061	; 0x425
    b494:	62206f6f 	eorvs	r6, r0, #444	; 0x1bc
    b498:	000a6769 	andeq	r6, sl, r9, ror #14
    b49c:	61766e49 	cmnvs	r6, r9, asr #28
    b4a0:	2064696c 	rsbcs	r6, r4, ip, ror #18
    b4a4:	4f495047 	svcmi	0x00495047
    b4a8:	6c617620 	stclvs	6, cr7, [r1], #-128	; 0xffffff80
    b4ac:	25206575 	strcs	r6, [r0, #-1397]!	; 0x575
    b4b0:	00000a64 	andeq	r0, r0, r4, ror #20
    b4b4:	5f746361 	svcpl	0x00746361
    b4b8:	0064656c 	rsbeq	r6, r4, ip, ror #10
    b4bc:	72617453 	rsbvc	r7, r1, #1392508928	; 0x53000000
    b4c0:	676e6974 			; <UNDEFINED> instruction: 0x676e6974
    b4c4:	61656820 	cmnvs	r5, r0, lsr #16
    b4c8:	65627472 	strbvs	r7, [r2, #-1138]!	; 0x472
    b4cc:	4c207461 	cfstrsmi	mvf7, [r0], #-388	; 0xfffffe7c
    b4d0:	6f204445 	svcvs	0x00204445
    b4d4:	5047206e 	subpl	r2, r7, lr, rrx
    b4d8:	64254f49 	strtvs	r4, [r5], #-3913	; 0xf49
    b4dc:	0000000a 	andeq	r0, r0, sl
    b4e0:	4c49414d 	stfmie	f4, [r9], {77}	; 0x4d
    b4e4:	5f584f42 	svcpl	0x00584f42
    b4e8:	54495257 	strbpl	r5, [r9], #-599	; 0x257
    b4ec:	77203a45 	strvc	r3, [r0, -r5, asr #20]!
    b4f0:	69746972 	ldmdbvs	r4!, {r1, r4, r5, r6, r8, fp, sp, lr}^
    b4f4:	7620676e 	strtvc	r6, [r0], -lr, ror #14
    b4f8:	65756c61 	ldrbvs	r6, [r5, #-3169]!	; 0xc61
    b4fc:	2078253d 	rsbscs	r2, r8, sp, lsr r5
    b500:	6e616863 	cdpvs	8, 6, cr6, cr1, cr3, {3}
    b504:	206c656e 	rsbcs	r6, ip, lr, ror #10
    b508:	000a7825 	andeq	r7, sl, r5, lsr #16
    b50c:	6c69616d 	stfvse	f6, [r9], #-436	; 0xfffffe4c
    b510:	5f786f62 	svcpl	0x00786f62
    b514:	74697277 	strbtvc	r7, [r9], #-631	; 0x277
    b518:	62203a65 	eorvs	r3, r0, #413696	; 0x65000
    b51c:	6f74746f 	svcvs	0x0074746f
    b520:	6962206d 	stmdbvs	r2!, {r0, r2, r3, r5, r6, sp}^
    b524:	6e207374 	mcrvs	3, 1, r7, cr0, cr4, {3}
    b528:	7a20746f 	bvc	8286ec <__bss_end+0x8086ec>
    b52c:	206f7265 	rsbcs	r7, pc, r5, ror #4
    b530:	000a7825 	andeq	r7, sl, r5, lsr #16
    b534:	6c69616d 	stfvse	f6, [r9], #-436	; 0xfffffe4c
    b538:	5f786f62 	svcpl	0x00786f62
    b53c:	74697277 	strbtvc	r7, [r9], #-631	; 0x277
    b540:	63203a65 	teqvs	r0, #413696	; 0x65000
    b544:	6e6e6168 	powvsez	f6, f6, #0.0
    b548:	74206c65 	strtvc	r6, [r0], #-3173	; 0xc65
    b54c:	68206f6f 	stmdavs	r0!, {r0, r1, r2, r3, r5, r6, r8, r9, sl, fp, sp, lr}
    b550:	20686769 	rsbcs	r6, r8, r9, ror #14
    b554:	000a7825 	andeq	r7, sl, r5, lsr #16
    b558:	74697257 	strbtvc	r7, [r9], #-599	; 0x257
    b55c:	616d2065 	cmnvs	sp, r5, rrx
    b560:	6f626c69 	svcvs	0x00626c69
    b564:	75662078 	strbvc	r2, [r6, #-120]!	; 0x78
    b568:	0a216c6c 	beq	866720 <__bss_end+0x846720>
    b56c:	00000000 	andeq	r0, r0, r0
    b570:	4c49414d 	stfmie	f4, [r9], {77}	; 0x4d
    b574:	5f584f42 	svcpl	0x00584f42
    b578:	44414552 	strbmi	r4, [r1], #-1362	; 0x552
    b57c:	6572203a 	ldrbvs	r2, [r2, #-58]!	; 0x3a
    b580:	6e696461 	cdpvs	4, 6, cr6, cr9, cr1, {3}
    b584:	68632067 	stmdavs	r3!, {r0, r1, r2, r5, r6, sp}^
    b588:	656e6e61 	strbvs	r6, [lr, #-3681]!	; 0xe61
    b58c:	7825206c 	stmdavc	r5!, {r2, r3, r5, r6, sp}
    b590:	0000000a 	andeq	r0, r0, sl
    b594:	6c69616d 	stfvse	f6, [r9], #-436	; 0xfffffe4c
    b598:	5f786f62 	svcpl	0x00786f62
    b59c:	64616572 	strbtvs	r6, [r1], #-1394	; 0x572
    b5a0:	6863203a 	stmdavs	r3!, {r1, r3, r4, r5, sp}^
    b5a4:	656e6e61 	strbvs	r6, [lr, #-3681]!	; 0xe61
    b5a8:	6f74206c 	svcvs	0x0074206c
    b5ac:	6968206f 	stmdbvs	r8!, {r0, r1, r2, r3, r5, r6, sp}^
    b5b0:	000a6867 	andeq	r6, sl, r7, ror #16
    b5b4:	6c69616d 	stfvse	f6, [r9], #-436	; 0xfffffe4c
    b5b8:	5f786f62 	svcpl	0x00786f62
    b5bc:	64616572 	strbtvs	r6, [r1], #-1394	; 0x572
    b5c0:	616d203a 	cmnvs	sp, sl, lsr r0
    b5c4:	655f6c69 	ldrbvs	r6, [pc, #-3177]	; a963 <printf+0x603>
    b5c8:	7974706d 	ldmdbvc	r4!, {r0, r2, r3, r5, r6, ip, sp, lr}^
    b5cc:	0000000a 	andeq	r0, r0, sl
    b5d0:	6c69616d 	stfvse	f6, [r9], #-436	; 0xfffffe4c
    b5d4:	5f786f62 	svcpl	0x00786f62
    b5d8:	64616572 	strbtvs	r6, [r1], #-1394	; 0x572
    b5dc:	6572203a 	ldrbvs	r2, [r2, #-58]!	; 0x3a
    b5e0:	66206461 	strtvs	r6, [r0], -r1, ror #8
    b5e4:	206d6f72 	rsbcs	r6, sp, r2, ror pc
    b5e8:	6e6f7277 	mcrvs	2, 3, r7, cr15, cr7, {3}
    b5ec:	68632067 	stmdavs	r3!, {r0, r1, r2, r5, r6, sp}^
    b5f0:	656e6e61 	strbvs	r6, [lr, #-3681]!	; 0xe61
    b5f4:	7825206c 	stmdavc	r5!, {r2, r3, r5, r6, sp}
    b5f8:	0a782520 	beq	1e14a80 <__bss_end+0x1df4a80>
    b5fc:	00000000 	andeq	r0, r0, r0
    b600:	6f727245 	svcvs	0x00727245
    b604:	20202172 	eorcs	r2, r0, r2, ror r1
    b608:	206f6f54 	rsbcs	r6, pc, r4, asr pc	; <UNPREDICTABLE>
    b60c:	6863756d 	stmdavs	r3!, {r0, r2, r3, r5, r6, r8, sl, ip, sp, lr}^
    b610:	6d656d20 	stclvs	13, cr6, [r5, #-128]!	; 0xffffff80
    b614:	2179726f 	cmncs	r9, pc, ror #4
    b618:	0000000a 	andeq	r0, r0, sl
    b61c:	74696e49 	strbtvc	r6, [r9], #-3657	; 0xe49
    b620:	696c6169 	stmdbvs	ip!, {r0, r3, r5, r6, r8, sp, lr}^
    b624:	676e697a 			; <UNDEFINED> instruction: 0x676e697a
    b628:	4d642520 	cfstr64mi	mvdx2, [r4, #-128]!	; 0xffffff80
    b62c:	666f2042 	strbtvs	r2, [pc], -r2, asr #32
    b630:	6d656d20 	stclvs	13, cr6, [r5, #-128]!	; 0xffffff80
    b634:	2e79726f 	cdpcs	2, 7, cr7, cr9, cr15, {3}
    b638:	64252020 	strtvs	r2, [r5], #-32
    b63c:	7520426b 	strvc	r4, [r0, #-619]!	; 0x26b
    b640:	20646573 	rsbcs	r6, r4, r3, ror r5
    b644:	6b207962 	blvs	829bd4 <__bss_end+0x809bd4>
    b648:	656e7265 	strbvs	r7, [lr, #-613]!	; 0x265
    b64c:	25202c6c 	strcs	r2, [r0, #-3180]!	; 0xc6c
    b650:	20426b64 	subcs	r6, r2, r4, ror #22
    b654:	64657375 	strbtvs	r7, [r5], #-885	; 0x375
    b658:	20796220 	rsbscs	r6, r9, r0, lsr #4
    b65c:	6f6d656d 	svcvs	0x006d656d
    b660:	6d207972 	stcvs	9, cr7, [r0, #-456]!	; 0xfffffe38
    b664:	000a7061 	andeq	r7, sl, r1, rrx
    b668:	6f727245 	svcvs	0x00727245
    b66c:	20202172 	eorcs	r2, r0, r2, ror r1
    b670:	6c756f43 	ldclvs	15, cr6, [r5], #-268	; 0xfffffef4
    b674:	6f6e2064 	svcvs	0x006e2064
    b678:	6c612074 	stclvs	0, cr2, [r1], #-464	; 0xfffffe30
    b67c:	61636f6c 	cmnvs	r3, ip, ror #30
    b680:	25206574 	strcs	r6, [r0, #-1396]!	; 0x574
    b684:	666f2064 	strbtvs	r2, [pc], -r4, rrx
    b688:	6d656d20 	stclvs	13, cr6, [r5, #-128]!	; 0xffffff80
    b68c:	2179726f 	cmncs	r9, pc, ror #4
    b690:	0000000a 	andeq	r0, r0, sl
    b694:	65746544 	ldrbvs	r6, [r4, #-1348]!	; 0x544
    b698:	64657463 	strbtvs	r7, [r5], #-1123	; 0x463
    b69c:	20314c20 	eorscs	r4, r1, r0, lsr #24
    b6a0:	61746164 	cmnvs	r4, r4, ror #2
    b6a4:	63616320 	cmnvs	r1, #32, 6	; 0x80000000
    b6a8:	203a6568 	eorscs	r6, sl, r8, ror #10
    b6ac:	73206425 	teqvc	r0, #620756992	; 0x25000000
    b6b0:	2c657a69 	stclcs	10, cr7, [r5], #-420	; 0xfffffe5c
    b6b4:	20642520 	rsbcs	r2, r4, r0, lsr #10
    b6b8:	6f737361 	svcvs	0x00737361
    b6bc:	25202c63 	strcs	r2, [r0, #-3171]!	; 0xc63
    b6c0:	6c622064 	stclvs	0, cr2, [r2], #-400	; 0xfffffe70
    b6c4:	736b636f 	cmnvc	fp, #-1140850687	; 0xbc000001
    b6c8:	2c657a69 	stclcs	10, cr7, [r5], #-420	; 0xfffffe5c
    b6cc:	20642520 	rsbcs	r2, r4, r0, lsr #10
    b6d0:	74736572 	ldrbtvc	r6, [r3], #-1394	; 0x572
    b6d4:	74636972 	strbtvc	r6, [r3], #-2418	; 0x972
    b6d8:	0000000a 	andeq	r0, r0, sl
    b6dc:	65746544 	ldrbvs	r6, [r4, #-1348]!	; 0x544
    b6e0:	64657463 	strbtvs	r7, [r5], #-1123	; 0x463
    b6e4:	20314c20 	eorscs	r4, r1, r0, lsr #24
    b6e8:	74736e69 	ldrbtvc	r6, [r3], #-3689	; 0xe69
    b6ec:	74637572 	strbtvc	r7, [r3], #-1394	; 0x572
    b6f0:	206e6f69 	rsbcs	r6, lr, r9, ror #30
    b6f4:	68636163 	stmdavs	r3!, {r0, r1, r5, r6, r8, sp, lr}^
    b6f8:	25203a65 	strcs	r3, [r0, #-2661]!	; 0xa65
    b6fc:	69732064 	ldmdbvs	r3!, {r2, r5, r6, sp}^
    b700:	202c657a 	eorcs	r6, ip, sl, ror r5
    b704:	61206425 	teqvs	r0, r5, lsr #8
    b708:	636f7373 	cmnvs	pc, #-872415231	; 0xcc000001
    b70c:	6425202c 	strtvs	r2, [r5], #-44	; 0x2c
    b710:	6f6c6220 	svcvs	0x006c6220
    b714:	69736b63 	ldmdbvs	r3!, {r0, r1, r5, r6, r8, r9, fp, sp, lr}^
    b718:	202c657a 	eorcs	r6, ip, sl, ror r5
    b71c:	72206425 	eorvc	r6, r0, #620756992	; 0x25000000
    b720:	72747365 	rsbsvc	r7, r4, #-1811939327	; 0x94000001
    b724:	0a746369 	beq	1d244d0 <__bss_end+0x1d044d0>
    b728:	00000000 	andeq	r0, r0, r0
    b72c:	25203a6e 	strcs	r3, [r0, #-2670]!	; 0xa6e
    b730:	00000a64 	andeq	r0, r0, r4, ror #20
    b734:	73655409 	cmnvc	r5, #150994944	; 0x9000000
    b738:	676e6974 			; <UNDEFINED> instruction: 0x676e6974
    b73c:	0000203a 	andeq	r2, r0, sl, lsr r0
    b740:	20746f4e 	rsbscs	r6, r4, lr, asr #30
    b744:	6374616d 	cmnvs	r4, #1073741851	; 0x4000001b
    b748:	74612068 	strbtvc	r2, [r1], #-104	; 0x68
    b74c:	66666f20 	strbtvs	r6, [r6], -r0, lsr #30
    b750:	20746573 	rsbscs	r6, r4, r3, ror r5
    b754:	28206425 	stmdacs	r0!, {r0, r2, r5, sl, sp, lr}
    b758:	3d217825 	stccc	8, cr7, [r1, #-148]!	; 0xffffff6c
    b75c:	21297825 	teqcs	r9, r5, lsr #16
    b760:	0000000a 	andeq	r0, r0, sl
    b764:	756c6156 	strbvc	r6, [ip, #-342]!	; 0x156
    b768:	66612065 	strbtvs	r2, [r1], -r5, rrx
    b76c:	20726574 	rsbscs	r6, r2, r4, ror r5
    b770:	20656874 	rsbcs	r6, r5, r4, ror r8
    b774:	20646e65 	rsbcs	r6, r4, r5, ror #28
    b778:	20736168 	rsbscs	r6, r3, r8, ror #2
    b77c:	6e6f7277 	mcrvs	2, 3, r7, cr15, cr7, {3}
    b780:	61762067 	cmnvs	r6, r7, rrx
    b784:	2165756c 	cmncs	r5, ip, ror #10
    b788:	0000000a 	andeq	r0, r0, sl
    b78c:	6c696146 	stfvse	f6, [r9], #-280	; 0xfffffee8
    b790:	0a216465 	beq	86492c <__bss_end+0x84492c>
    b794:	00000000 	andeq	r0, r0, r0
    b798:	73736150 	cmnvc	r3, #80, 2
    b79c:	0a216465 	beq	864938 <__bss_end+0x844938>
    b7a0:	00000000 	andeq	r0, r0, r0
    b7a4:	65747441 	ldrbvs	r7, [r4, #-1089]!	; 0x441
    b7a8:	6974706d 	ldmdbvs	r4!, {r0, r2, r3, r5, r6, ip, sp, lr}^
    b7ac:	7420676e 	strtvc	r6, [r0], #-1902	; 0x76e
    b7b0:	6572206f 	ldrbvs	r2, [r2, #-111]!	; 0x6f
    b7b4:	66206461 	strtvs	r6, [r0], -r1, ror #8
    b7b8:	206d6f72 	rsbcs	r6, sp, r2, ror pc
    b7bc:	75736e75 	ldrbvc	r6, [r3, #-3701]!	; 0xe75
    b7c0:	726f7070 	rsbvc	r7, pc, #112	; 0x70
    b7c4:	20646574 	rsbcs	r6, r4, r4, ror r5
    b7c8:	25206466 	strcs	r6, [r0, #-1126]!	; 0x466
    b7cc:	00000a64 	andeq	r0, r0, r4, ror #20
    b7d0:	65747441 	ldrbvs	r7, [r4, #-1089]!	; 0x441
    b7d4:	6974706d 	ldmdbvs	r4!, {r0, r2, r3, r5, r6, ip, sp, lr}^
    b7d8:	7420676e 	strtvc	r6, [r0], #-1902	; 0x76e
    b7dc:	7277206f 	rsbsvc	r2, r7, #111	; 0x6f
    b7e0:	20657469 	rsbcs	r7, r5, r9, ror #8
    b7e4:	75736e75 	ldrbvc	r6, [r3, #-3701]!	; 0xe75
    b7e8:	726f7070 	rsbvc	r7, pc, #112	; 0x70
    b7ec:	20646574 	rsbcs	r6, r4, r4, ror r5
    b7f0:	25206466 	strcs	r6, [r0, #-1126]!	; 0x466
    b7f4:	00000a64 	andeq	r0, r0, r4, ror #20
    b7f8:	41534944 	cmpmi	r3, r4, asr #18
    b7fc:	4e494c42 	cdpmi	12, 4, cr4, cr9, cr2, {2}
    b800:	4c422047 	mcrrmi	0, 4, r2, r2, cr7
    b804:	0a4b4e49 	beq	12df130 <__bss_end+0x12bf130>
    b808:	00000000 	andeq	r0, r0, r0
    b80c:	42414e45 	submi	r4, r1, #1104	; 0x450
    b810:	474e494c 	strbmi	r4, [lr, -ip, asr #18]
    b814:	494c425f 	stmdbmi	ip, {r0, r1, r2, r3, r4, r6, r9, lr}^
    b818:	000a4b4e 	andeq	r4, sl, lr, asr #22
    b81c:	6e6b6e55 	mcrvs	14, 3, r6, cr11, cr5, {2}
    b820:	206e776f 	rsbcs	r7, lr, pc, ror #14
    b824:	63737973 	cmnvs	r3, #1884160	; 0x1cc000
    b828:	206c6c61 	rsbcs	r6, ip, r1, ror #24
    b82c:	000a6425 	andeq	r6, sl, r5, lsr #8
    b830:	6165520a 	cmnvs	r5, sl, lsl #4
    b834:	0a217964 	beq	869dcc <__bss_end+0x849dcc>
    b838:	00000000 	andeq	r0, r0, r0
    b83c:	0000205d 	andeq	r2, r0, sp, asr r0
    b840:	3a574d56 	bcc	15deda0 <__bss_end+0x15beda0>
    b844:	44454c20 	strbmi	r4, [r5], #-3104	; 0xc20
    b848:	0000000a 	andeq	r0, r0, sl
    b84c:	656d6974 	strbvs	r6, [sp, #-2420]!	; 0x974
    b850:	00000000 	andeq	r0, r0, r0
    b854:	656d6954 	strbvs	r6, [sp, #-2388]!	; 0x954
    b858:	6425203a 	strtvs	r2, [r5], #-58	; 0x3a
    b85c:	0000000a 	andeq	r0, r0, sl
    b860:	64617267 	strbtvs	r7, [r1], #-615	; 0x267
    b864:	746e6569 	strbtvc	r6, [lr], #-1385	; 0x569
    b868:	00000000 	andeq	r0, r0, r0
    b86c:	6e697270 	mcrvs	2, 3, r7, cr9, cr0, {3}
    b870:	00000074 	andeq	r0, r0, r4, ror r0
    b874:	6c6c6548 	cfstr64vs	mvdx6, [ip], #-288	; 0xfffffee0
    b878:	6f57206f 	svcvs	0x0057206f
    b87c:	21646c72 	smccs	18114	; 0x46c2
    b880:	0000000a 	andeq	r0, r0, sl
    b884:	706c6568 	rsbvc	r6, ip, r8, ror #10
    b888:	00000000 	andeq	r0, r0, r0
    b88c:	20656e4f 	rsbcs	r6, r5, pc, asr #28
    b890:	6620666f 	strtvs	r6, [r0], -pc, ror #12
    b894:	6f6c6c6f 	svcvs	0x006c6c6f
    b898:	676e6977 			; <UNDEFINED> instruction: 0x676e6977
    b89c:	656c203a 	strbvs	r2, [ip, #-58]!	; 0x3a
    b8a0:	69742c64 	ldmdbvs	r4!, {r2, r5, r6, sl, fp, sp}^
    b8a4:	702c656d 	eorvc	r6, ip, sp, ror #10
    b8a8:	746e6972 	strbtvc	r6, [lr], #-2418	; 0x972
    b8ac:	6c65682c 	stclvs	8, cr6, [r5], #-176	; 0xffffff50
    b8b0:	00000a70 	andeq	r0, r0, r0, ror sl
    b8b4:	6b6e550a 	blvs	1ba0ce4 <__bss_end+0x1b80ce4>
    b8b8:	6e776f6e 	cdpvs	15, 7, cr6, cr7, cr14, {3}
    b8bc:	6d6f6320 	stclvs	3, cr6, [pc, #-128]!	; b844 <__rodata_start+0x844>
    b8c0:	6e616d6d 	cdpvs	13, 6, cr6, cr1, cr13, {3}
    b8c4:	000a2164 	andeq	r2, sl, r4, ror #2

Disassembly of section .data:

0000c000 <__data_start>:
    c000:	00000002 	andeq	r0, r0, r2

0000c004 <blinking_enabled>:
    c004:	00000001 	andeq	r0, r0, r1

0000c008 <current_font>:
    c008:	0000c00c 	andeq	ip, r0, ip

0000c00c <default_font>:
	...
    c01c:	423c0000 	eorsmi	r0, ip, #0
    c020:	99a5e781 	stmibls	r5!, {r0, r7, r8, r9, sl, sp, lr, pc}
    c024:	42998181 	addsmi	r8, r9, #1073741856	; 0x40000020
    c028:	0000003c 	andeq	r0, r0, ip, lsr r0
    c02c:	7e3c0000 	cdpvc	0, 3, cr0, cr12, cr0, {0}
    c030:	e7db99ff 			; <UNDEFINED> instruction: 0xe7db99ff
    c034:	7ee7ffff 	mcrvc	15, 7, pc, cr7, cr15, {7}	; <UNPREDICTABLE>
    c038:	0000003c 	andeq	r0, r0, ip, lsr r0
    c03c:	ff660000 			; <UNDEFINED> instruction: 0xff660000
    c040:	7effffff 	mrcvc	15, 7, APSR_nzcv, cr15, cr15, {7}
    c044:	183c3c7e 	ldmdane	ip!, {r1, r2, r3, r4, r5, r6, sl, fp, ip, sp}
    c048:	00000018 	andeq	r0, r0, r8, lsl r0
    c04c:	3c181800 	ldccc	8, cr1, [r8], {-0}
    c050:	ff7e7e3c 			; <UNDEFINED> instruction: 0xff7e7e3c
    c054:	3c3c7e7e 	ldccc	14, cr7, [ip], #-504	; 0xfffffe08
    c058:	00001818 	andeq	r1, r0, r8, lsl r8
    c05c:	3c180000 	ldccc	0, cr0, [r8], {-0}
    c060:	ff66183c 			; <UNDEFINED> instruction: 0xff66183c
    c064:	3c1866ff 	ldccc	6, cr6, [r8], {255}	; 0xff
    c068:	0000007e 	andeq	r0, r0, lr, ror r0
    c06c:	18180000 	ldmdane	r8, {}	; <UNPREDICTABLE>
    c070:	ff7e7e3c 			; <UNDEFINED> instruction: 0xff7e7e3c
    c074:	187effff 	ldmdane	lr!, {r0, r1, r2, r3, r4, r5, r6, r7, r8, r9, sl, fp, ip, sp, lr, pc}^
    c078:	00007e3c 	andeq	r7, r0, ip, lsr lr
    c07c:	00000000 	andeq	r0, r0, r0
    c080:	3c3c1800 	ldccc	8, cr1, [ip], #-0
    c084:	0000183c 	andeq	r1, r0, ip, lsr r8
    c088:	00000000 	andeq	r0, r0, r0
    c08c:	ffffffff 			; <UNDEFINED> instruction: 0xffffffff
    c090:	c3c3e7ff 	bicgt	lr, r3, #66846720	; 0x3fc0000
    c094:	ffffe7c3 			; <UNDEFINED> instruction: 0xffffe7c3
    c098:	ffffffff 			; <UNDEFINED> instruction: 0xffffffff
    c09c:	00000000 	andeq	r0, r0, r0
    c0a0:	4242663c 	submi	r6, r2, #60, 12	; 0x3c00000
    c0a4:	003c6642 	eorseq	r6, ip, r2, asr #12
    c0a8:	00000000 	andeq	r0, r0, r0
    c0ac:	ffffffff 			; <UNDEFINED> instruction: 0xffffffff
    c0b0:	bdbd99c3 	ldclt	9, cr9, [sp, #780]!	; 0x30c
    c0b4:	ffc399bd 			; <UNDEFINED> instruction: 0xffc399bd
    c0b8:	ffffffff 			; <UNDEFINED> instruction: 0xffffffff
    c0bc:	070f0000 	streq	r0, [pc, -r0]
    c0c0:	663c180d 	ldrtvs	r1, [ip], -sp, lsl #16
    c0c4:	66666666 	strbtvs	r6, [r6], -r6, ror #12
    c0c8:	0000003c 	andeq	r0, r0, ip, lsr r0
    c0cc:	663c0000 	ldrtvs	r0, [ip], -r0
    c0d0:	183c6666 	ldmdane	ip!, {r1, r2, r5, r6, r9, sl, sp, lr}
    c0d4:	18187e18 	ldmdane	r8, {r3, r4, r9, sl, fp, ip, sp, lr}
    c0d8:	00000018 	andeq	r0, r0, r8, lsl r0
    c0dc:	0c080000 	stceq	0, cr0, [r8], {-0}
    c0e0:	08080b0e 	stmdaeq	r8, {r1, r2, r3, r8, r9, fp}
    c0e4:	70f87808 	rscsvc	r7, r8, r8, lsl #16
    c0e8:	00000000 	andeq	r0, r0, r0
    c0ec:	1c181000 	ldcne	0, cr1, [r8], {-0}
    c0f0:	12161a16 	andsne	r1, r6, #90112	; 0x16000
    c0f4:	0e62f272 	mcreq	2, 3, pc, cr2, cr2, {3}	; <UNPREDICTABLE>
    c0f8:	00000c1e 	andeq	r0, r0, lr, lsl ip
    c0fc:	db181800 	blle	612104 <__bss_end+0x5f2104>
    c100:	3cff3c7e 	ldclcc	12, cr3, [pc], #504	; c300 <default_font+0x2f4>
    c104:	1818db7e 	ldmdane	r8, {r1, r2, r3, r4, r5, r6, r8, r9, fp, ip, lr, pc}
    c108:	00000000 	andeq	r0, r0, r0
    c10c:	78706000 	ldmdavc	r0!, {sp, lr}^
    c110:	7c7e7e7c 	ldclvc	14, cr7, [lr], #-496	; 0xfffffe10
    c114:	00607078 	rsbeq	r7, r0, r8, ror r0
    c118:	00000000 	andeq	r0, r0, r0
    c11c:	1e0e0600 	cfmadd32ne	mvax0, mvfx0, mvfx14, mvfx0
    c120:	3e7e7e3e 	mrccc	14, 3, r7, cr14, cr14, {1}
    c124:	00060e1e 	andeq	r0, r6, lr, lsl lr
    c128:	00000000 	andeq	r0, r0, r0
    c12c:	7e3c1800 	cdpvc	8, 3, cr1, cr12, cr0, {0}
    c130:	181818ff 	ldmdane	r8, {r0, r1, r2, r3, r4, r5, r6, r7, fp, ip}
    c134:	ff181818 			; <UNDEFINED> instruction: 0xff181818
    c138:	00183c7e 	andseq	r3, r8, lr, ror ip
    c13c:	66666600 	strbtvs	r6, [r6], -r0, lsl #12
    c140:	66666666 	strbtvs	r6, [r6], -r6, ror #12
    c144:	66006666 	strvs	r6, [r0], -r6, ror #12
    c148:	00000066 	andeq	r0, r0, r6, rrx
    c14c:	dbdb7f00 	blle	ff6ebd54 <__bss_end+0xff6cbd54>
    c150:	7bdbdbdb 	blvc	ff7030c4 <__bss_end+0xff6e30c4>
    c154:	1b1b1b1b 	blne	6d2dc8 <__bss_end+0x6b2dc8>
    c158:	0000001b 	andeq	r0, r0, fp, lsl r0
    c15c:	30301e00 	eorscc	r1, r0, r0, lsl #28
    c160:	e7cedc78 			; <UNDEFINED> instruction: 0xe7cedc78
    c164:	0c1e3b73 	ldceq	11, cr3, [lr], {115}	; 0x73
    c168:	0000780c 	andeq	r7, r0, ip, lsl #16
	...
    c174:	fefefefe 	mrc2	14, 7, pc, cr14, cr14, {7}
    c178:	000000fe 	strdeq	r0, [r0], -lr
    c17c:	7e3c1800 	cdpvc	8, 3, cr1, cr12, cr0, {0}
    c180:	181818ff 	ldmdane	r8, {r0, r1, r2, r3, r4, r5, r6, r7, fp, ip}
    c184:	7eff1818 	mrcvc	8, 7, r1, cr15, cr8, {0}
    c188:	00ff183c 	rscseq	r1, pc, ip, lsr r8	; <UNPREDICTABLE>
    c18c:	7e3c1800 	cdpvc	8, 3, cr1, cr12, cr0, {0}
    c190:	181818ff 	ldmdane	r8, {r0, r1, r2, r3, r4, r5, r6, r7, fp, ip}
    c194:	18181818 	ldmdane	r8, {r3, r4, fp, ip}
    c198:	00181818 	andseq	r1, r8, r8, lsl r8
    c19c:	18181800 	ldmdane	r8, {fp, ip}
    c1a0:	18181818 	ldmdane	r8, {r3, r4, fp, ip}
    c1a4:	ff181818 			; <UNDEFINED> instruction: 0xff181818
    c1a8:	00183c7e 	andseq	r3, r8, lr, ror ip
    c1ac:	00000000 	andeq	r0, r0, r0
    c1b0:	ff0e0c08 			; <UNDEFINED> instruction: 0xff0e0c08
    c1b4:	00080c0e 	andeq	r0, r8, lr, lsl #24
	...
    c1c0:	ff703010 			; <UNDEFINED> instruction: 0xff703010
    c1c4:	00103070 	andseq	r3, r0, r0, ror r0
    c1c8:	00000000 	andeq	r0, r0, r0
    c1cc:	2266cc00 	rsbcs	ip, r6, #0, 24
	...
    c1e0:	ff662400 			; <UNDEFINED> instruction: 0xff662400
    c1e4:	00002466 	andeq	r2, r0, r6, ror #8
    c1e8:	00000000 	andeq	r0, r0, r0
    c1ec:	10000000 	andne	r0, r0, r0
    c1f0:	7c7c3838 	ldclvc	8, cr3, [ip], #-224	; 0xffffff20
    c1f4:	0000fefe 	strdeq	pc, [r0], -lr
    c1f8:	00000000 	andeq	r0, r0, r0
    c1fc:	fefe0000 	cdp2	0, 15, cr0, cr14, cr0, {0}
    c200:	38387c7c 	ldmdacc	r8!, {r2, r3, r4, r5, r6, sl, fp, ip, sp, lr}
    c204:	00000010 	andeq	r0, r0, r0, lsl r0
	...
    c21c:	3c3c1800 	ldccc	8, cr1, [ip], #-0
    c220:	18183c3c 	ldmdane	r8, {r2, r3, r4, r5, sl, fp, ip, sp}
    c224:	18001818 	stmdane	r0, {r3, r4, fp, ip}
    c228:	00000018 	andeq	r0, r0, r8, lsl r0
    c22c:	88cc6600 	stmiahi	ip, {r9, sl, sp, lr}^
	...
    c23c:	6c6c6c00 	stclvs	12, cr6, [ip], #-0
    c240:	6c6c6cfe 	stclvs	12, cr6, [ip], #-1016	; 0xfffffc08
    c244:	6c6cfe6c 	stclvs	14, cr15, [ip], #-432	; 0xfffffe50
    c248:	0000006c 	andeq	r0, r0, ip, rrx
    c24c:	db7e1818 	blle	1f922b4 <__bss_end+0x1f722b4>
    c250:	7ed8d8db 	mrcvc	8, 6, sp, cr8, cr11, {6}
    c254:	dbdb1b1b 	blle	ff6d2ec8 <__bss_end+0xff6b2ec8>
    c258:	0018187e 	andseq	r1, r8, lr, ror r8
    c25c:	7cde7600 	ldclvc	6, cr7, [lr], {0}
    c260:	3018180c 	andscc	r1, r8, ip, lsl #16
    c264:	db6e6030 	blle	1ba432c <__bss_end+0x1b8432c>
    c268:	000000ce 	andeq	r0, r0, lr, asr #1
    c26c:	6c6c3800 	stclvs	8, cr3, [ip], #-0
    c270:	dc76386c 	ldclle	8, cr3, [r6], #-432	; 0xfffffe50
    c274:	ccccccdc 	stclgt	12, cr12, [ip], {220}	; 0xdc
    c278:	00000076 	andeq	r0, r0, r6, ror r0
    c27c:	20301800 	eorscs	r1, r0, r0, lsl #16
	...
    c28c:	18180c00 	ldmdane	r8, {sl, fp}
    c290:	30303030 	eorscc	r3, r0, r0, lsr r0
    c294:	30303030 	eorscc	r3, r0, r0, lsr r0
    c298:	000c1818 	andeq	r1, ip, r8, lsl r8
    c29c:	18183000 	ldmdane	r8, {ip, sp}
    c2a0:	0c0c0c0c 	stceq	12, cr0, [ip], {12}
    c2a4:	0c0c0c0c 	stceq	12, cr0, [ip], {12}
    c2a8:	00301818 	eorseq	r1, r0, r8, lsl r8
    c2ac:	00000000 	andeq	r0, r0, r0
    c2b0:	3cff1818 	ldclcc	8, cr1, [pc], #96	; c318 <default_font+0x30c>
    c2b4:	0000663c 	andeq	r6, r0, ip, lsr r6
	...
    c2c0:	ff181818 			; <UNDEFINED> instruction: 0xff181818
    c2c4:	00181818 	andseq	r1, r8, r8, lsl r8
	...
    c2d4:	18000000 	stmdane	r0, {}	; <UNPREDICTABLE>
    c2d8:	00002030 	andeq	r2, r0, r0, lsr r0
    c2dc:	00000000 	andeq	r0, r0, r0
    c2e0:	ff000000 			; <UNDEFINED> instruction: 0xff000000
	...
    c2f4:	18000000 	stmdane	r0, {}	; <UNPREDICTABLE>
    c2f8:	00000018 	andeq	r0, r0, r8, lsl r0
    c2fc:	0c060600 	stceq	6, cr0, [r6], {-0}
    c300:	3018180c 	andscc	r1, r8, ip, lsl #16
    c304:	c0606030 	rsbgt	r6, r0, r0, lsr r0
    c308:	000000c0 	andeq	r0, r0, r0, asr #1
    c30c:	c66c3800 	strbtgt	r3, [ip], -r0, lsl #16
    c310:	d6d6cec6 	ldrble	ip, [r6], r6, asr #29
    c314:	6cc6c6e6 	stclvs	6, cr12, [r6], {230}	; 0xe6
    c318:	00000038 	andeq	r0, r0, r8, lsr r0
    c31c:	78381800 	ldmdavc	r8!, {fp, ip}
    c320:	18181818 	ldmdane	r8, {r3, r4, fp, ip}
    c324:	18181818 	ldmdane	r8, {r3, r4, fp, ip}
    c328:	0000007e 	andeq	r0, r0, lr, ror r0
    c32c:	c3663c00 	cmngt	r6, #0, 24
    c330:	0c0603c3 	stceq	3, cr0, [r6], {195}	; 0xc3
    c334:	c3603018 	cmngt	r0, #24
    c338:	000000ff 	strdeq	r0, [r0], -pc	; <UNPREDICTABLE>
    c33c:	0cc6fe00 	stcleq	14, cr15, [r6], {0}
    c340:	03063c18 	movweq	r3, #27672	; 0x6c18
    c344:	66c30303 	strbvs	r0, [r3], r3, lsl #6
    c348:	0000003c 	andeq	r0, r0, ip, lsr r0
    c34c:	3c1c1c00 	ldccc	12, cr1, [ip], {-0}
    c350:	cc6c6c3c 	stclgt	12, cr6, [ip], #-240	; 0xffffff10
    c354:	0c0cffcc 	stceq	15, cr15, [ip], {204}	; 0xcc
    c358:	0000001e 	andeq	r0, r0, lr, lsl r0
    c35c:	c0c0fe00 	sbcgt	pc, r0, r0, lsl #28
    c360:	c3e6fcc0 	mvngt	pc, #192, 24	; 0xc000
    c364:	66c30303 	strbvs	r0, [r3], r3, lsl #6
    c368:	0000003c 	andeq	r0, r0, ip, lsr r0
    c36c:	c6663c00 	strbtgt	r3, [r6], -r0, lsl #24
    c370:	c3e6fcc0 	mvngt	pc, #192, 24	; 0xc000
    c374:	66c3c3c3 	strbvs	ip, [r3], r3, asr #7
    c378:	0000003c 	andeq	r0, r0, ip, lsr r0
    c37c:	06c6fe00 	strbeq	pc, [r6], r0, lsl #28	; <UNPREDICTABLE>
    c380:	18180c0c 	ldmdane	r8, {r2, r3, sl, fp}
    c384:	30303030 	eorscc	r3, r0, r0, lsr r0
    c388:	00000030 	andeq	r0, r0, r0, lsr r0
    c38c:	c3663c00 	cmngt	r6, #0, 24
    c390:	663c66c3 	ldrtvs	r6, [ip], -r3, asr #13
    c394:	66c3c3c3 	strbvs	ip, [r3], r3, asr #7
    c398:	0000003c 	andeq	r0, r0, ip, lsr r0
    c39c:	c3663c00 	cmngt	r6, #0, 24
    c3a0:	67c3c3c3 	strbvs	ip, [r3, r3, asr #7]
    c3a4:	6663033f 			; <UNDEFINED> instruction: 0x6663033f
    c3a8:	0000003c 	andeq	r0, r0, ip, lsr r0
    c3ac:	00000000 	andeq	r0, r0, r0
    c3b0:	00181800 	andseq	r1, r8, r0, lsl #16
    c3b4:	18180000 	ldmdane	r8, {}	; <UNPREDICTABLE>
	...
    c3c0:	00181800 	andseq	r1, r8, r0, lsl #16
    c3c4:	18180000 	ldmdane	r8, {}	; <UNPREDICTABLE>
    c3c8:	00002030 	andeq	r2, r0, r0, lsr r0
    c3cc:	0c060300 	stceq	3, cr0, [r6], {-0}
    c3d0:	60603018 	rsbvs	r3, r0, r8, lsl r0
    c3d4:	060c1830 			; <UNDEFINED> instruction: 0x060c1830
    c3d8:	00000003 	andeq	r0, r0, r3
    c3dc:	00000000 	andeq	r0, r0, r0
    c3e0:	00ff0000 	rscseq	r0, pc, r0
    c3e4:	0000ff00 	andeq	pc, r0, r0, lsl #30
    c3e8:	00000000 	andeq	r0, r0, r0
    c3ec:	3060c000 	rsbcc	ip, r0, r0
    c3f0:	06060c18 			; <UNDEFINED> instruction: 0x06060c18
    c3f4:	6030180c 	eorsvs	r1, r0, ip, lsl #16
    c3f8:	000000c0 	andeq	r0, r0, r0, asr #1
    c3fc:	c3663c00 	cmngt	r6, #0, 24
    c400:	0c0603c3 	stceq	3, cr0, [r6], {195}	; 0xc3
    c404:	18001818 	stmdane	r0, {r3, r4, fp, ip}
    c408:	00000018 	andeq	r0, r0, r8, lsl r0
    c40c:	c3c37e00 	bicgt	r7, r3, #0, 28
    c410:	dbdbdbcf 	blle	ff703354 <__bss_end+0xff6e3354>
    c414:	c0c0cedb 	ldrdgt	ip, [r0], #235	; 0xeb
    c418:	0000007c 	andeq	r0, r0, ip, ror r0
    c41c:	3c181800 	ldccc	8, cr1, [r8], {-0}
    c420:	66666624 	strbtvs	r6, [r6], -r4, lsr #12
    c424:	c3c3c37e 	bicgt	ip, r3, #-134217727	; 0xf8000001
    c428:	000000c3 	andeq	r0, r0, r3, asr #1
    c42c:	6363fe00 	msrvs	SPSR_xc, #0, 28
    c430:	637e6363 	cmnvs	lr, #-1946157055	; 0x8c000001
    c434:	63636363 	cmnvs	r3, #-1946157055	; 0x8c000001
    c438:	000000fe 	strdeq	r0, [r0], -lr
    c43c:	c3663c00 	cmngt	r6, #0, 24
    c440:	c0c0c0c3 	sbcgt	ip, r0, r3, asr #1
    c444:	66c3c3c0 	strbvs	ip, [r3], r0, asr #7
    c448:	0000003c 	andeq	r0, r0, ip, lsr r0
    c44c:	6363fe00 	msrvs	SPSR_xc, #0, 28
    c450:	63636363 	cmnvs	r3, #-1946157055	; 0x8c000001
    c454:	63636363 	cmnvs	r3, #-1946157055	; 0x8c000001
    c458:	000000fe 	strdeq	r0, [r0], -lr
    c45c:	6063ff00 	rsbvs	pc, r3, r0, lsl #30
    c460:	647c6460 	ldrbtvs	r6, [ip], #-1120	; 0x460
    c464:	63606060 	cmnvs	r0, #96	; 0x60
    c468:	000000ff 	strdeq	r0, [r0], -pc	; <UNPREDICTABLE>
    c46c:	6063ff00 	rsbvs	pc, r3, r0, lsl #30
    c470:	647c6460 	ldrbtvs	r6, [ip], #-1120	; 0x460
    c474:	60606060 	rsbvs	r6, r0, r0, rrx
    c478:	000000f8 	strdeq	r0, [r0], -r8
    c47c:	c3663c00 	cmngt	r6, #0, 24
    c480:	cfc0c0c3 	svcgt	0x00c0c0c3
    c484:	67c3c3c3 	strbvs	ip, [r3, r3, asr #7]
    c488:	0000003d 	andeq	r0, r0, sp, lsr r0
    c48c:	c6c6c600 	strbgt	ip, [r6], r0, lsl #12
    c490:	c6fec6c6 	ldrbtgt	ip, [lr], r6, asr #13
    c494:	c6c6c6c6 	strbgt	ip, [r6], r6, asr #13
    c498:	000000c6 	andeq	r0, r0, r6, asr #1
    c49c:	18183c00 	ldmdane	r8, {sl, fp, ip, sp}
    c4a0:	18181818 	ldmdane	r8, {r3, r4, fp, ip}
    c4a4:	18181818 	ldmdane	r8, {r3, r4, fp, ip}
    c4a8:	0000003c 	andeq	r0, r0, ip, lsr r0
    c4ac:	06060f00 	streq	r0, [r6], -r0, lsl #30
    c4b0:	06060606 	streq	r0, [r6], -r6, lsl #12
    c4b4:	c6c6c606 	strbgt	ip, [r6], r6, lsl #12
    c4b8:	0000007c 	andeq	r0, r0, ip, ror r0
    c4bc:	6c66e700 	stclvs	7, cr14, [r6], #-0
    c4c0:	7c78786c 	ldclvc	8, cr7, [r8], #-432	; 0xfffffe50
    c4c4:	6366666c 	cmnvs	r6, #108, 12	; 0x6c00000
    c4c8:	000000e3 	andeq	r0, r0, r3, ror #1
    c4cc:	6060f000 	rsbvs	pc, r0, r0
    c4d0:	60606060 	rsbvs	r6, r0, r0, rrx
    c4d4:	63606060 	cmnvs	r0, #96	; 0x60
    c4d8:	000000ff 	strdeq	r0, [r0], -pc	; <UNPREDICTABLE>
    c4dc:	ffe7c300 			; <UNDEFINED> instruction: 0xffe7c300
    c4e0:	dbdbdbff 	blle	ff7034e4 <__bss_end+0xff6e34e4>
    c4e4:	c3c3c3c3 	bicgt	ip, r3, #201326595	; 0xc000003
    c4e8:	000000c3 	andeq	r0, r0, r3, asr #1
    c4ec:	e6c6c600 	strb	ip, [r6], r0, lsl #12
    c4f0:	def6f6e6 	cdple	6, 15, cr15, cr6, cr6, {7}
    c4f4:	c6cecede 			; <UNDEFINED> instruction: 0xc6cecede
    c4f8:	000000c6 	andeq	r0, r0, r6, asr #1
    c4fc:	c3663c00 	cmngt	r6, #0, 24
    c500:	c3c3c3c3 	bicgt	ip, r3, #201326595	; 0xc000003
    c504:	66c3c3c3 	strbvs	ip, [r3], r3, asr #7
    c508:	0000003c 	andeq	r0, r0, ip, lsr r0
    c50c:	6363fe00 	msrvs	SPSR_xc, #0, 28
    c510:	7e636363 	cdpvc	3, 6, cr6, cr3, cr3, {3}
    c514:	60606060 	rsbvs	r6, r0, r0, rrx
    c518:	000000f0 	strdeq	r0, [r0], -r0	; <UNPREDICTABLE>
    c51c:	c3663c00 	cmngt	r6, #0, 24
    c520:	c3c3c3c3 	bicgt	ip, r3, #201326595	; 0xc000003
    c524:	7ecfdbc3 	cdpvc	11, 12, cr13, cr15, cr3, {6}
    c528:	0003063c 	andeq	r0, r3, ip, lsr r6
    c52c:	6363fe00 	msrvs	SPSR_xc, #0, 28
    c530:	7e636363 	cdpvc	3, 6, cr6, cr3, cr3, {3}
    c534:	6666666c 	strbtvs	r6, [r6], -ip, ror #12
    c538:	000000f7 	strdeq	r0, [r0], -r7
    c53c:	c3c37e00 	bicgt	r7, r3, #0, 28
    c540:	037ec0c0 	cmneq	lr, #192	; 0xc0
    c544:	c3c30303 	bicgt	r0, r3, #201326592	; 0xc000000
    c548:	0000007e 	andeq	r0, r0, lr, ror r0
    c54c:	18dbff00 	ldmne	fp, {r8, r9, sl, fp, ip, sp, lr, pc}^
    c550:	18181818 	ldmdane	r8, {r3, r4, fp, ip}
    c554:	18181818 	ldmdane	r8, {r3, r4, fp, ip}
    c558:	0000003c 	andeq	r0, r0, ip, lsr r0
    c55c:	c6c6c600 	strbgt	ip, [r6], r0, lsl #12
    c560:	c6c6c6c6 	strbgt	ip, [r6], r6, asr #13
    c564:	c6c6c6c6 	strbgt	ip, [r6], r6, asr #13
    c568:	0000007c 	andeq	r0, r0, ip, ror r0
    c56c:	c3c3c300 	bicgt	ip, r3, #0, 6
    c570:	6666c3c3 	strbtvs	ip, [r6], -r3, asr #7
    c574:	183c3c66 	ldmdane	ip!, {r1, r2, r5, r6, sl, fp, ip, sp}
    c578:	00000018 	andeq	r0, r0, r8, lsl r0
    c57c:	c3c3c300 	bicgt	ip, r3, #0, 6
    c580:	dbdbdbc3 	blle	ff703494 <__bss_end+0xff6e3494>
    c584:	66ffdbdb 	usatvs	sp, #31, fp, asr #23
    c588:	00000066 	andeq	r0, r0, r6, rrx
    c58c:	6cc6c600 	stclvs	6, cr12, [r6], {0}
    c590:	3838386c 	ldmdacc	r8!, {r2, r3, r5, r6, fp, ip, sp}
    c594:	c66c6c38 			; <UNDEFINED> instruction: 0xc66c6c38
    c598:	000000c6 	andeq	r0, r0, r6, asr #1
    c59c:	c3c3c300 	bicgt	ip, r3, #0, 6
    c5a0:	183c6666 	ldmdane	ip!, {r1, r2, r5, r6, r9, sl, sp, lr}
    c5a4:	18181818 	ldmdane	r8, {r3, r4, fp, ip}
    c5a8:	00000018 	andeq	r0, r0, r8, lsl r0
    c5ac:	0cc6fe00 	stcleq	14, cr15, [r6], {0}
    c5b0:	3018180c 	andscc	r1, r8, ip, lsl #16
    c5b4:	c6606030 			; <UNDEFINED> instruction: 0xc6606030
    c5b8:	000000fe 	strdeq	r0, [r0], -lr
    c5bc:	30303c00 	eorscc	r3, r0, r0, lsl #24
    c5c0:	30303030 	eorscc	r3, r0, r0, lsr r0
    c5c4:	30303030 	eorscc	r3, r0, r0, lsr r0
    c5c8:	0000003c 	andeq	r0, r0, ip, lsr r0
    c5cc:	60c0c000 	sbcvs	ip, r0, r0
    c5d0:	18303060 	ldmdane	r0!, {r5, r6, ip, sp}
    c5d4:	060c0c18 			; <UNDEFINED> instruction: 0x060c0c18
    c5d8:	00000006 	andeq	r0, r0, r6
    c5dc:	0c0c3c00 	stceq	12, cr3, [ip], {-0}
    c5e0:	0c0c0c0c 	stceq	12, cr0, [ip], {12}
    c5e4:	0c0c0c0c 	stceq	12, cr0, [ip], {12}
    c5e8:	0000003c 	andeq	r0, r0, ip, lsr r0
    c5ec:	663c1800 	ldrtvs	r1, [ip], -r0, lsl #16
    c5f0:	000000c3 	andeq	r0, r0, r3, asr #1
	...
    c608:	0000ff00 	andeq	pc, r0, r0, lsl #30
    c60c:	08183000 	ldmdaeq	r8, {ip, sp}
	...
    c620:	3e063c00 	cdpcc	12, 0, cr3, cr6, cr0, {0}
    c624:	66666666 	strbtvs	r6, [r6], -r6, ror #12
    c628:	0000003b 	andeq	r0, r0, fp, lsr r0
    c62c:	6060e000 	rsbvs	lr, r0, r0
    c630:	63637e60 	cmnvs	r3, #96, 28	; 0x600
    c634:	63636363 	cmnvs	r3, #-1946157055	; 0x8c000001
    c638:	000000de 	ldrdeq	r0, [r0], -lr
    c63c:	00000000 	andeq	r0, r0, r0
    c640:	c0c67c00 	sbcgt	r7, r6, r0, lsl #24
    c644:	c6c0c0c0 	strbgt	ip, [r0], r0, asr #1
    c648:	0000007c 	andeq	r0, r0, ip, ror r0
    c64c:	06060e00 	streq	r0, [r6], -r0, lsl #28
    c650:	c6c67e06 	strbgt	r7, [r6], r6, lsl #28
    c654:	c6c6c6c6 	strbgt	ip, [r6], r6, asr #13
    c658:	0000007b 	andeq	r0, r0, fp, ror r0
    c65c:	00000000 	andeq	r0, r0, r0
    c660:	c6c67c00 	strbgt	r7, [r6], r0, lsl #24
    c664:	c6c0c0fe 			; <UNDEFINED> instruction: 0xc6c0c0fe
    c668:	0000007c 	andeq	r0, r0, ip, ror r0
    c66c:	66663c00 	strbtvs	r3, [r6], -r0, lsl #24
    c670:	60f86060 	rscsvs	r6, r8, r0, rrx
    c674:	60606060 	rsbvs	r6, r0, r0, rrx
    c678:	000000f0 	strdeq	r0, [r0], -r0	; <UNPREDICTABLE>
    c67c:	00000000 	andeq	r0, r0, r0
    c680:	c6c67b00 	strbgt	r7, [r6], r0, lsl #22
    c684:	c6c6c6c6 	strbgt	ip, [r6], r6, asr #13
    c688:	7cc6067e 	stclvc	6, cr0, [r6], {126}	; 0x7e
    c68c:	6060e000 	rsbvs	lr, r0, r0
    c690:	66667c60 	strbtvs	r7, [r6], -r0, ror #24
    c694:	66666666 	strbtvs	r6, [r6], -r6, ror #12
    c698:	000000f7 	strdeq	r0, [r0], -r7
    c69c:	18180000 	ldmdane	r8, {}	; <UNPREDICTABLE>
    c6a0:	18183800 	ldmdane	r8, {fp, ip, sp}
    c6a4:	18181818 	ldmdane	r8, {r3, r4, fp, ip}
    c6a8:	0000003c 	andeq	r0, r0, ip, lsr r0
    c6ac:	06060000 	streq	r0, [r6], -r0
    c6b0:	06060e00 	streq	r0, [r6], -r0, lsl #28
    c6b4:	06060606 	streq	r0, [r6], -r6, lsl #12
    c6b8:	3c666606 	stclcc	6, cr6, [r6], #-24	; 0xffffffe8
    c6bc:	6060e000 	rsbvs	lr, r0, r0
    c6c0:	6c666360 	stclvs	3, cr6, [r6], #-384	; 0xfffffe80
    c6c4:	666c7878 			; <UNDEFINED> instruction: 0x666c7878
    c6c8:	000000e3 	andeq	r0, r0, r3, ror #1
    c6cc:	18183800 	ldmdane	r8, {fp, ip, sp}
    c6d0:	18181818 	ldmdane	r8, {r3, r4, fp, ip}
    c6d4:	18181818 	ldmdane	r8, {r3, r4, fp, ip}
    c6d8:	0000003c 	andeq	r0, r0, ip, lsr r0
    c6dc:	00000000 	andeq	r0, r0, r0
    c6e0:	dbffe600 	blle	5ee8 <CPSR_MODE_IRQ_DISABLE+0x5e68>
    c6e4:	c3c3dbdb 	bicgt	sp, r3, #224256	; 0x36c00
    c6e8:	000000c3 	andeq	r0, r0, r3, asr #1
    c6ec:	00000000 	andeq	r0, r0, r0
    c6f0:	6666dc00 	strbtvs	sp, [r6], -r0, lsl #24
    c6f4:	66666666 	strbtvs	r6, [r6], -r6, ror #12
    c6f8:	000000f7 	strdeq	r0, [r0], -r7
    c6fc:	00000000 	andeq	r0, r0, r0
    c700:	c6c67c00 	strbgt	r7, [r6], r0, lsl #24
    c704:	c6c6c6c6 	strbgt	ip, [r6], r6, asr #13
    c708:	0000007c 	andeq	r0, r0, ip, ror r0
    c70c:	00000000 	andeq	r0, r0, r0
    c710:	6363de00 	cmnvs	r3, #0, 28
    c714:	63636363 	cmnvs	r3, #-1946157055	; 0x8c000001
    c718:	f060607e 			; <UNDEFINED> instruction: 0xf060607e
    c71c:	00000000 	andeq	r0, r0, r0
    c720:	c6c67b00 	strbgt	r7, [r6], r0, lsl #22
    c724:	c6c6c6c6 	strbgt	ip, [r6], r6, asr #13
    c728:	0f06067e 	svceq	0x0006067e
    c72c:	00000000 	andeq	r0, r0, r0
    c730:	6373de00 	cmnvs	r3, #0, 28
    c734:	60606060 	rsbvs	r6, r0, r0, rrx
    c738:	000000f0 	strdeq	r0, [r0], -r0	; <UNPREDICTABLE>
    c73c:	00000000 	andeq	r0, r0, r0
    c740:	c0c67c00 	sbcgt	r7, r6, r0, lsl #24
    c744:	c6061c70 			; <UNDEFINED> instruction: 0xc6061c70
    c748:	0000007c 	andeq	r0, r0, ip, ror r0
    c74c:	30100000 	andscc	r0, r0, r0
    c750:	3030fc30 	eorscc	pc, r0, r0, lsr ip	; <UNPREDICTABLE>
    c754:	36303030 			; <UNDEFINED> instruction: 0x36303030
    c758:	0000001c 	andeq	r0, r0, ip, lsl r0
    c75c:	00000000 	andeq	r0, r0, r0
    c760:	c6c6c600 	strbgt	ip, [r6], r0, lsl #12
    c764:	c6c6c6c6 	strbgt	ip, [r6], r6, asr #13
    c768:	0000007b 	andeq	r0, r0, fp, ror r0
    c76c:	00000000 	andeq	r0, r0, r0
    c770:	c6c6c600 	strbgt	ip, [r6], r0, lsl #12
    c774:	386cc6c6 	stmdacc	ip!, {r1, r2, r6, r7, r9, sl, lr, pc}^
    c778:	00000010 	andeq	r0, r0, r0, lsl r0
    c77c:	00000000 	andeq	r0, r0, r0
    c780:	dbc3c300 	blle	ff0fd388 <__bss_end+0xff0dd388>
    c784:	ffdbdbdb 			; <UNDEFINED> instruction: 0xffdbdbdb
    c788:	00000066 	andeq	r0, r0, r6, rrx
    c78c:	00000000 	andeq	r0, r0, r0
    c790:	6c6cc600 	stclvs	6, cr12, [ip], #-0
    c794:	6c6c3838 	stclvs	8, cr3, [ip], #-224	; 0xffffff20
    c798:	000000c6 	andeq	r0, r0, r6, asr #1
    c79c:	00000000 	andeq	r0, r0, r0
    c7a0:	c6c6c600 	strbgt	ip, [r6], r0, lsl #12
    c7a4:	c6c6c6c6 	strbgt	ip, [r6], r6, asr #13
    c7a8:	70180c7e 	andsvc	r0, r8, lr, ror ip
    c7ac:	00000000 	andeq	r0, r0, r0
    c7b0:	0cc6fe00 	stcleq	14, cr15, [r6], {0}
    c7b4:	c6603018 			; <UNDEFINED> instruction: 0xc6603018
    c7b8:	000000fe 	strdeq	r0, [r0], -lr
    c7bc:	18180e00 	ldmdane	r8, {r9, sl, fp}
    c7c0:	70701818 	rsbsvc	r1, r0, r8, lsl r8
    c7c4:	18181818 	ldmdane	r8, {r3, r4, fp, ip}
    c7c8:	0000000e 	andeq	r0, r0, lr
    c7cc:	18181800 	ldmdane	r8, {fp, ip}
    c7d0:	18181818 	ldmdane	r8, {r3, r4, fp, ip}
    c7d4:	18181818 	ldmdane	r8, {r3, r4, fp, ip}
    c7d8:	00000018 	andeq	r0, r0, r8, lsl r0
    c7dc:	18187000 	ldmdane	r8, {ip, sp, lr}
    c7e0:	0e0e1818 	mcreq	8, 0, r1, cr14, cr8, {0}
    c7e4:	18181818 	ldmdane	r8, {r3, r4, fp, ip}
    c7e8:	00000070 	andeq	r0, r0, r0, ror r0
    c7ec:	dc760000 	ldclle	0, cr0, [r6], #-0
	...
    c800:	6c381000 	ldcvs	0, cr1, [r8], #-0
    c804:	fec6c6c6 	cdp2	6, 12, cr12, cr6, cr6, {6}
    c808:	00000000 	andeq	r0, r0, r0
    c80c:	c3663c00 	cmngt	r6, #0, 24
    c810:	c0c0c0c3 	sbcgt	ip, r0, r3, asr #1
    c814:	66c3c3c0 	strbvs	ip, [r3], r0, asr #7
    c818:	7c06063c 	stcvc	6, cr0, [r6], {60}	; 0x3c
    c81c:	6c6c0000 	stclvs	0, cr0, [ip], #-0
    c820:	c6c6c600 	strbgt	ip, [r6], r0, lsl #12
    c824:	c6c6c6c6 	strbgt	ip, [r6], r6, asr #13
    c828:	0000007b 	andeq	r0, r0, fp, ror r0
    c82c:	30180c00 	andscc	r0, r8, r0, lsl #24
    c830:	c6c67c00 	strbgt	r7, [r6], r0, lsl #24
    c834:	c6c0c0fe 			; <UNDEFINED> instruction: 0xc6c0c0fe
    c838:	0000007c 	andeq	r0, r0, ip, ror r0
    c83c:	663c1800 	ldrtvs	r1, [ip], -r0, lsl #16
    c840:	3e063c00 	cdpcc	12, 0, cr3, cr6, cr0, {0}
    c844:	66666666 	strbtvs	r6, [r6], -r6, ror #12
    c848:	0000003b 	andeq	r0, r0, fp, lsr r0
    c84c:	66660000 	strbtvs	r0, [r6], -r0
    c850:	3e063c00 	cdpcc	12, 0, cr3, cr6, cr0, {0}
    c854:	66666666 	strbtvs	r6, [r6], -r6, ror #12
    c858:	0000003b 	andeq	r0, r0, fp, lsr r0
    c85c:	0c183000 	ldceq	0, cr3, [r8], {-0}
    c860:	3e063c00 	cdpcc	12, 0, cr3, cr6, cr0, {0}
    c864:	66666666 	strbtvs	r6, [r6], -r6, ror #12
    c868:	0000003b 	andeq	r0, r0, fp, lsr r0
    c86c:	1c361c00 	ldcne	12, cr1, [r6], #-0
    c870:	3e063c00 	cdpcc	12, 0, cr3, cr6, cr0, {0}
    c874:	66666666 	strbtvs	r6, [r6], -r6, ror #12
    c878:	0000003b 	andeq	r0, r0, fp, lsr r0
    c87c:	00000000 	andeq	r0, r0, r0
    c880:	c0c67c00 	sbcgt	r7, r6, r0, lsl #24
    c884:	c6c0c0c0 	strbgt	ip, [r0], r0, asr #1
    c888:	3c060c7c 	stccc	12, cr0, [r6], {124}	; 0x7c
    c88c:	c66c3800 	strbtgt	r3, [ip], -r0, lsl #16
    c890:	c6c67c00 	strbgt	r7, [r6], r0, lsl #24
    c894:	c6c0c0fe 			; <UNDEFINED> instruction: 0xc6c0c0fe
    c898:	0000007c 	andeq	r0, r0, ip, ror r0
    c89c:	6c6c0000 	stclvs	0, cr0, [ip], #-0
    c8a0:	c6c67c00 	strbgt	r7, [r6], r0, lsl #24
    c8a4:	c6c0c0fe 			; <UNDEFINED> instruction: 0xc6c0c0fe
    c8a8:	0000007c 	andeq	r0, r0, ip, ror r0
    c8ac:	18306000 	ldmdane	r0!, {sp, lr}
    c8b0:	c6c67c00 	strbgt	r7, [r6], r0, lsl #24
    c8b4:	c6c0c0fe 			; <UNDEFINED> instruction: 0xc6c0c0fe
    c8b8:	0000007c 	andeq	r0, r0, ip, ror r0
    c8bc:	66660000 	strbtvs	r0, [r6], -r0
    c8c0:	18183800 	ldmdane	r8, {fp, ip, sp}
    c8c4:	18181818 	ldmdane	r8, {r3, r4, fp, ip}
    c8c8:	0000003c 	andeq	r0, r0, ip, lsr r0
    c8cc:	663c1800 	ldrtvs	r1, [ip], -r0, lsl #16
    c8d0:	18183800 	ldmdane	r8, {fp, ip, sp}
    c8d4:	18181818 	ldmdane	r8, {r3, r4, fp, ip}
    c8d8:	0000003c 	andeq	r0, r0, ip, lsr r0
    c8dc:	18306000 	ldmdane	r0!, {sp, lr}
    c8e0:	18183800 	ldmdane	r8, {fp, ip, sp}
    c8e4:	18181818 	ldmdane	r8, {r3, r4, fp, ip}
    c8e8:	0000003c 	andeq	r0, r0, ip, lsr r0
    c8ec:	3c18dbc3 	ldccc	11, cr13, [r8], {195}	; 0xc3
    c8f0:	66666624 	strbtvs	r6, [r6], -r4, lsr #12
    c8f4:	c3c3c37e 	bicgt	ip, r3, #-134217727	; 0xf8000001
    c8f8:	000000c3 	andeq	r0, r0, r3, asr #1
    c8fc:	18242418 	stmdane	r4!, {r3, r4, sl, sp}
    c900:	6666243c 			; <UNDEFINED> instruction: 0x6666243c
    c904:	c3c3c37e 	bicgt	ip, r3, #-134217727	; 0xf8000001
    c908:	000000c3 	andeq	r0, r0, r3, asr #1
    c90c:	63ff3018 	mvnsvs	r3, #24
    c910:	7c646060 	stclvc	0, cr6, [r4], #-384	; 0xfffffe80
    c914:	63606064 	cmnvs	r0, #100	; 0x64
    c918:	000000ff 	strdeq	r0, [r0], -pc	; <UNPREDICTABLE>
    c91c:	00000000 	andeq	r0, r0, r0
    c920:	3333ee00 	teqcc	r3, #0, 28
    c924:	d8d8d87f 	ldmle	r8, {r0, r1, r2, r3, r4, r5, r6, fp, ip, lr, pc}^
    c928:	0000006f 	andeq	r0, r0, pc, rrx
    c92c:	6c6d3f00 	stclvs	15, cr3, [sp], #-0
    c930:	ff6c6c6c 			; <UNDEFINED> instruction: 0xff6c6c6c
    c934:	cdcccccc 	stclgt	12, cr12, [ip, #816]	; 0x330
    c938:	000000cf 	andeq	r0, r0, pc, asr #1
    c93c:	6c381000 	ldcvs	0, cr1, [r8], #-0
    c940:	c6c67c00 	strbgt	r7, [r6], r0, lsl #24
    c944:	c6c6c6c6 	strbgt	ip, [r6], r6, asr #13
    c948:	0000007c 	andeq	r0, r0, ip, ror r0
    c94c:	6c6c0000 	stclvs	0, cr0, [ip], #-0
    c950:	c6c67c00 	strbgt	r7, [r6], r0, lsl #24
    c954:	c6c6c6c6 	strbgt	ip, [r6], r6, asr #13
    c958:	0000007c 	andeq	r0, r0, ip, ror r0
    c95c:	18306000 	ldmdane	r0!, {sp, lr}
    c960:	c6c67c00 	strbgt	r7, [r6], r0, lsl #24
    c964:	c6c6c6c6 	strbgt	ip, [r6], r6, asr #13
    c968:	0000007c 	andeq	r0, r0, ip, ror r0
    c96c:	c66c3800 	strbtgt	r3, [ip], -r0, lsl #16
    c970:	c6c6c600 	strbgt	ip, [r6], r0, lsl #12
    c974:	c6c6c6c6 	strbgt	ip, [r6], r6, asr #13
    c978:	0000007b 	andeq	r0, r0, fp, ror r0
    c97c:	18306000 	ldmdane	r0!, {sp, lr}
    c980:	c6c6c600 	strbgt	ip, [r6], r0, lsl #12
    c984:	c6c6c6c6 	strbgt	ip, [r6], r6, asr #13
    c988:	0000007b 	andeq	r0, r0, fp, ror r0
    c98c:	c6c60000 	strbgt	r0, [r6], r0
    c990:	c6c6c600 	strbgt	ip, [r6], r0, lsl #12
    c994:	c6c6c6c6 	strbgt	ip, [r6], r6, asr #13
    c998:	70180c7e 	andsvc	r0, r8, lr, ror ip
    c99c:	7c00c6c6 	stcvc	6, cr12, [r0], {198}	; 0xc6
    c9a0:	c6c6c6c6 	strbgt	ip, [r6], r6, asr #13
    c9a4:	c6c6c6c6 	strbgt	ip, [r6], r6, asr #13
    c9a8:	0000007c 	andeq	r0, r0, ip, ror r0
    c9ac:	c600c6c6 	strgt	ip, [r0], -r6, asr #13
    c9b0:	c6c6c6c6 	strbgt	ip, [r6], r6, asr #13
    c9b4:	c6c6c6c6 	strbgt	ip, [r6], r6, asr #13
    c9b8:	0000007c 	andeq	r0, r0, ip, ror r0
    c9bc:	18180000 	ldmdane	r8, {}	; <UNPREDICTABLE>
    c9c0:	d8db7e18 	ldmle	fp, {r3, r4, r9, sl, fp, ip, sp, lr}^
    c9c4:	dbd8d8d8 	blle	ff642d2c <__bss_end+0xff622d2c>
    c9c8:	1818187e 	ldmdane	r8, {r1, r2, r3, r4, r5, r6, fp, ip}
    c9cc:	646c3800 	strbtvs	r3, [ip], #-2048	; 0x800
    c9d0:	6060f060 	rsbvs	pc, r0, r0, rrx
    c9d4:	fa606060 	blx	1824b5c <__bss_end+0x1804b5c>
    c9d8:	000000ce 	andeq	r0, r0, lr, asr #1
    c9dc:	66c30000 	strbvs	r0, [r3], r0
    c9e0:	7e18183c 	mrcvc	8, 0, r1, cr8, cr12, {1}
    c9e4:	18187e18 	ldmdane	r8, {r3, r4, r9, sl, fp, ip, sp, lr}
    c9e8:	00001818 	andeq	r1, r0, r8, lsl r8
    c9ec:	ccccf800 	stclgt	8, cr15, [ip], {0}
    c9f0:	c0f8cccc 	rscsgt	ip, r8, ip, asr #25
    c9f4:	ccdeccc4 	ldclgt	12, cr12, [lr], {196}	; 0xc4
    c9f8:	000006cc 	andeq	r0, r0, ip, asr #13
    c9fc:	1b0e0000 	blne	38ca04 <__bss_end+0x36ca04>
    ca00:	7e181818 	mrcvc	8, 0, r1, cr8, cr8, {0}
    ca04:	18181818 	ldmdane	r8, {r3, r4, fp, ip}
    ca08:	70d81818 	sbcsvc	r1, r8, r8, lsl r8
    ca0c:	30180c00 	andscc	r0, r8, r0, lsl #24
    ca10:	3e063c00 	cdpcc	12, 0, cr3, cr6, cr0, {0}
    ca14:	66666666 	strbtvs	r6, [r6], -r6, ror #12
    ca18:	0000003b 	andeq	r0, r0, fp, lsr r0
    ca1c:	30180c00 	andscc	r0, r8, r0, lsl #24
    ca20:	18183800 	ldmdane	r8, {fp, ip, sp}
    ca24:	18181818 	ldmdane	r8, {r3, r4, fp, ip}
    ca28:	0000003c 	andeq	r0, r0, ip, lsr r0
    ca2c:	30180c00 	andscc	r0, r8, r0, lsl #24
    ca30:	c6c67c00 	strbgt	r7, [r6], r0, lsl #24
    ca34:	c6c6c6c6 	strbgt	ip, [r6], r6, asr #13
    ca38:	0000007c 	andeq	r0, r0, ip, ror r0
    ca3c:	30180c00 	andscc	r0, r8, r0, lsl #24
    ca40:	c6c6c600 	strbgt	ip, [r6], r0, lsl #12
    ca44:	c6c6c6c6 	strbgt	ip, [r6], r6, asr #13
    ca48:	0000007b 	andeq	r0, r0, fp, ror r0
    ca4c:	00dc7600 	sbcseq	r7, ip, r0, lsl #12
    ca50:	6666dc00 	strbtvs	sp, [r6], -r0, lsl #24
    ca54:	66666666 	strbtvs	r6, [r6], -r6, ror #12
    ca58:	000000f7 	strdeq	r0, [r0], -r7
    ca5c:	c600dc76 			; <UNDEFINED> instruction: 0xc600dc76
    ca60:	f6f6e6e6 			; <UNDEFINED> instruction: 0xf6f6e6e6
    ca64:	c6cedede 			; <UNDEFINED> instruction: 0xc6cedede
    ca68:	000000c6 	andeq	r0, r0, r6, asr #1
    ca6c:	3c0c3800 	stccc	8, cr3, [ip], {-0}
    ca70:	7e003e6c 	cdpvc	14, 0, cr3, cr0, cr12, {3}
	...
    ca7c:	6c6c3800 	stclvs	8, cr3, [ip], #-0
    ca80:	7c00386c 	stcvc	8, cr3, [r0], {108}	; 0x6c
	...
    ca8c:	00181800 	andseq	r1, r8, r0, lsl #16
    ca90:	60301818 	eorsvs	r1, r0, r8, lsl r8
    ca94:	66c3c3c0 	strbvs	ip, [r3], r0, asr #7
    ca98:	0000003c 	andeq	r0, r0, ip, lsr r0
    ca9c:	00000000 	andeq	r0, r0, r0
    caa0:	c0fe0000 	rscsgt	r0, lr, r0
    caa4:	0000c0c0 	andeq	ip, r0, r0, asr #1
	...
    cab0:	06fe0000 	ldrbteq	r0, [lr], r0
    cab4:	00000606 	andeq	r0, r0, r6, lsl #12
    cab8:	00000000 	andeq	r0, r0, r0
    cabc:	63e16000 	mvnvs	r6, #0
    cac0:	30186c66 	andscc	r6, r8, r6, ror #24
    cac4:	069bce60 	ldreq	ip, [fp], r0, ror #28
    cac8:	00001f0c 	andeq	r1, r0, ip, lsl #30
    cacc:	63e16000 	mvnvs	r6, #0
    cad0:	30186c66 	andscc	r6, r8, r6, ror #24
    cad4:	3f96ce66 	svccc	0x0096ce66
    cad8:	00000606 	andeq	r0, r0, r6, lsl #12
    cadc:	00181800 	andseq	r1, r8, r0, lsl #16
    cae0:	18181818 	ldmdane	r8, {r3, r4, fp, ip}
    cae4:	3c3c3c3c 	ldccc	12, cr3, [ip], #-240	; 0xffffff10
    cae8:	00000018 	andeq	r0, r0, r8, lsl r0
    caec:	00000000 	andeq	r0, r0, r0
    caf0:	d86c361b 	stmdale	ip!, {r0, r1, r3, r4, r9, sl, ip, sp}^
    caf4:	1b366cd8 	blne	da7e5c <__bss_end+0xd87e5c>
	...
    cb00:	1b366cd8 	blne	da7e68 <__bss_end+0xd87e68>
    cb04:	d86c361b 	stmdale	ip!, {r0, r1, r3, r4, r9, sl, ip, sp}^
    cb08:	00000000 	andeq	r0, r0, r0
    cb0c:	10821082 	addne	r1, r2, r2, lsl #1
    cb10:	10821082 	addne	r1, r2, r2, lsl #1
    cb14:	10821082 	addne	r1, r2, r2, lsl #1
    cb18:	10821082 	addne	r1, r2, r2, lsl #1
    cb1c:	a9009500 	stmdbge	r0, {r8, sl, ip, pc}
    cb20:	a9009500 	stmdbge	r0, {r8, sl, ip, pc}
    cb24:	a9009500 	stmdbge	r0, {r8, sl, ip, pc}
    cb28:	a9009500 	stmdbge	r0, {r8, sl, ip, pc}
    cb2c:	49924992 	ldmibmi	r2, {r1, r4, r7, r8, fp, lr}
    cb30:	49924992 	ldmibmi	r2, {r1, r4, r7, r8, fp, lr}
    cb34:	49924992 	ldmibmi	r2, {r1, r4, r7, r8, fp, lr}
    cb38:	49924992 	ldmibmi	r2, {r1, r4, r7, r8, fp, lr}
    cb3c:	18181818 	ldmdane	r8, {r3, r4, fp, ip}
    cb40:	18181818 	ldmdane	r8, {r3, r4, fp, ip}
    cb44:	18181818 	ldmdane	r8, {r3, r4, fp, ip}
    cb48:	18181818 	ldmdane	r8, {r3, r4, fp, ip}
    cb4c:	18181818 	ldmdane	r8, {r3, r4, fp, ip}
    cb50:	f8181818 			; <UNDEFINED> instruction: 0xf8181818
    cb54:	18181818 	ldmdane	r8, {r3, r4, fp, ip}
    cb58:	18181818 	ldmdane	r8, {r3, r4, fp, ip}
    cb5c:	18181818 	ldmdane	r8, {r3, r4, fp, ip}
    cb60:	18f81818 	ldmne	r8!, {r3, r4, fp, ip}^
    cb64:	1818f818 	ldmdane	r8, {r3, r4, fp, ip, sp, lr, pc}
    cb68:	18181818 	ldmdane	r8, {r3, r4, fp, ip}
    cb6c:	66666666 	strbtvs	r6, [r6], -r6, ror #12
    cb70:	e6666666 	strbt	r6, [r6], -r6, ror #12
    cb74:	66666666 	strbtvs	r6, [r6], -r6, ror #12
    cb78:	66666666 	strbtvs	r6, [r6], -r6, ror #12
    cb7c:	00000000 	andeq	r0, r0, r0
    cb80:	fe000000 	cdp2	0, 0, cr0, cr0, cr0, {0}
    cb84:	66666666 	strbtvs	r6, [r6], -r6, ror #12
    cb88:	66666666 	strbtvs	r6, [r6], -r6, ror #12
    cb8c:	00000000 	andeq	r0, r0, r0
    cb90:	18f80000 	ldmne	r8!, {}^	; <UNPREDICTABLE>
    cb94:	1818f818 	ldmdane	r8, {r3, r4, fp, ip, sp, lr, pc}
    cb98:	18181818 	ldmdane	r8, {r3, r4, fp, ip}
    cb9c:	66666666 	strbtvs	r6, [r6], -r6, ror #12
    cba0:	06e66666 	strbteq	r6, [r6], r6, ror #12
    cba4:	6666e606 	strbtvs	lr, [r6], -r6, lsl #12
    cba8:	66666666 	strbtvs	r6, [r6], -r6, ror #12
    cbac:	66666666 	strbtvs	r6, [r6], -r6, ror #12
    cbb0:	66666666 	strbtvs	r6, [r6], -r6, ror #12
    cbb4:	66666666 	strbtvs	r6, [r6], -r6, ror #12
    cbb8:	66666666 	strbtvs	r6, [r6], -r6, ror #12
    cbbc:	00000000 	andeq	r0, r0, r0
    cbc0:	06fe0000 	ldrbteq	r0, [lr], r0
    cbc4:	6666e606 	strbtvs	lr, [r6], -r6, lsl #12
    cbc8:	66666666 	strbtvs	r6, [r6], -r6, ror #12
    cbcc:	66666666 	strbtvs	r6, [r6], -r6, ror #12
    cbd0:	06e66666 	strbteq	r6, [r6], r6, ror #12
    cbd4:	0000fe06 	andeq	pc, r0, r6, lsl #28
    cbd8:	00000000 	andeq	r0, r0, r0
    cbdc:	66666666 	strbtvs	r6, [r6], -r6, ror #12
    cbe0:	fe666666 	cdp2	6, 6, cr6, cr6, cr6, {3}
	...
    cbec:	18181818 	ldmdane	r8, {r3, r4, fp, ip}
    cbf0:	18f81818 	ldmne	r8!, {r3, r4, fp, ip}^
    cbf4:	0000f818 	andeq	pc, r0, r8, lsl r8	; <UNPREDICTABLE>
	...
    cc00:	f8000000 			; <UNDEFINED> instruction: 0xf8000000
    cc04:	18181818 	ldmdane	r8, {r3, r4, fp, ip}
    cc08:	18181818 	ldmdane	r8, {r3, r4, fp, ip}
    cc0c:	18181818 	ldmdane	r8, {r3, r4, fp, ip}
    cc10:	1f181818 	svcne	0x00181818
	...
    cc1c:	18181818 	ldmdane	r8, {r3, r4, fp, ip}
    cc20:	ff181818 			; <UNDEFINED> instruction: 0xff181818
	...
    cc30:	ff000000 			; <UNDEFINED> instruction: 0xff000000
    cc34:	18181818 	ldmdane	r8, {r3, r4, fp, ip}
    cc38:	18181818 	ldmdane	r8, {r3, r4, fp, ip}
    cc3c:	18181818 	ldmdane	r8, {r3, r4, fp, ip}
    cc40:	1f181818 	svcne	0x00181818
    cc44:	18181818 	ldmdane	r8, {r3, r4, fp, ip}
    cc48:	18181818 	ldmdane	r8, {r3, r4, fp, ip}
    cc4c:	00000000 	andeq	r0, r0, r0
    cc50:	ff000000 			; <UNDEFINED> instruction: 0xff000000
	...
    cc5c:	18181818 	ldmdane	r8, {r3, r4, fp, ip}
    cc60:	ff181818 			; <UNDEFINED> instruction: 0xff181818
    cc64:	18181818 	ldmdane	r8, {r3, r4, fp, ip}
    cc68:	18181818 	ldmdane	r8, {r3, r4, fp, ip}
    cc6c:	18181818 	ldmdane	r8, {r3, r4, fp, ip}
    cc70:	181f1818 	ldmdane	pc, {r3, r4, fp, ip}	; <UNPREDICTABLE>
    cc74:	18181f18 	ldmdane	r8, {r3, r4, r8, r9, sl, fp, ip}
    cc78:	18181818 	ldmdane	r8, {r3, r4, fp, ip}
    cc7c:	66666666 	strbtvs	r6, [r6], -r6, ror #12
    cc80:	67666666 	strbvs	r6, [r6, -r6, ror #12]!
    cc84:	66666666 	strbtvs	r6, [r6], -r6, ror #12
    cc88:	66666666 	strbtvs	r6, [r6], -r6, ror #12
    cc8c:	66666666 	strbtvs	r6, [r6], -r6, ror #12
    cc90:	60676666 	rsbvs	r6, r7, r6, ror #12
    cc94:	00007f60 	andeq	r7, r0, r0, ror #30
	...
    cca0:	607f0000 	rsbsvs	r0, pc, r0
    cca4:	66666760 	strbtvs	r6, [r6], -r0, ror #14
    cca8:	66666666 	strbtvs	r6, [r6], -r6, ror #12
    ccac:	66666666 	strbtvs	r6, [r6], -r6, ror #12
    ccb0:	00e76666 	rsceq	r6, r7, r6, ror #12
    ccb4:	0000ff00 	andeq	pc, r0, r0, lsl #30
	...
    ccc0:	00ff0000 	rscseq	r0, pc, r0
    ccc4:	6666e700 	strbtvs	lr, [r6], -r0, lsl #14
    ccc8:	66666666 	strbtvs	r6, [r6], -r6, ror #12
    cccc:	66666666 	strbtvs	r6, [r6], -r6, ror #12
    ccd0:	60676666 	rsbvs	r6, r7, r6, ror #12
    ccd4:	66666760 	strbtvs	r6, [r6], -r0, ror #14
    ccd8:	66666666 	strbtvs	r6, [r6], -r6, ror #12
    ccdc:	00000000 	andeq	r0, r0, r0
    cce0:	00ff0000 	rscseq	r0, pc, r0
    cce4:	0000ff00 	andeq	pc, r0, r0, lsl #30
    cce8:	00000000 	andeq	r0, r0, r0
    ccec:	66666666 	strbtvs	r6, [r6], -r6, ror #12
    ccf0:	00e76666 	rsceq	r6, r7, r6, ror #12
    ccf4:	6666e700 	strbtvs	lr, [r6], -r0, lsl #14
    ccf8:	66666666 	strbtvs	r6, [r6], -r6, ror #12
    ccfc:	18181818 	ldmdane	r8, {r3, r4, fp, ip}
    cd00:	00ff1818 	rscseq	r1, pc, r8, lsl r8	; <UNPREDICTABLE>
    cd04:	0000ff00 	andeq	pc, r0, r0, lsl #30
    cd08:	00000000 	andeq	r0, r0, r0
    cd0c:	66666666 	strbtvs	r6, [r6], -r6, ror #12
    cd10:	ff666666 			; <UNDEFINED> instruction: 0xff666666
	...
    cd20:	00ff0000 	rscseq	r0, pc, r0
    cd24:	1818ff00 	ldmdane	r8, {r8, r9, sl, fp, ip, sp, lr, pc}
    cd28:	18181818 	ldmdane	r8, {r3, r4, fp, ip}
    cd2c:	00000000 	andeq	r0, r0, r0
    cd30:	ff000000 			; <UNDEFINED> instruction: 0xff000000
    cd34:	66666666 	strbtvs	r6, [r6], -r6, ror #12
    cd38:	66666666 	strbtvs	r6, [r6], -r6, ror #12
    cd3c:	66666666 	strbtvs	r6, [r6], -r6, ror #12
    cd40:	7f666666 	svcvc	0x00666666
	...
    cd4c:	18181818 	ldmdane	r8, {r3, r4, fp, ip}
    cd50:	181f1818 	ldmdane	pc, {r3, r4, fp, ip}	; <UNPREDICTABLE>
    cd54:	00001f18 	andeq	r1, r0, r8, lsl pc
	...
    cd60:	181f0000 	ldmdane	pc, {}	; <UNPREDICTABLE>
    cd64:	18181f18 	ldmdane	r8, {r3, r4, r8, r9, sl, fp, ip}
    cd68:	18181818 	ldmdane	r8, {r3, r4, fp, ip}
    cd6c:	00000000 	andeq	r0, r0, r0
    cd70:	7f000000 	svcvc	0x00000000
    cd74:	66666666 	strbtvs	r6, [r6], -r6, ror #12
    cd78:	66666666 	strbtvs	r6, [r6], -r6, ror #12
    cd7c:	66666666 	strbtvs	r6, [r6], -r6, ror #12
    cd80:	ff666666 			; <UNDEFINED> instruction: 0xff666666
    cd84:	66666666 	strbtvs	r6, [r6], -r6, ror #12
    cd88:	66666666 	strbtvs	r6, [r6], -r6, ror #12
    cd8c:	18181818 	ldmdane	r8, {r3, r4, fp, ip}
    cd90:	00ff1818 	rscseq	r1, pc, r8, lsl r8	; <UNPREDICTABLE>
    cd94:	1818ff00 	ldmdane	r8, {r8, r9, sl, fp, ip, sp, lr, pc}
    cd98:	18181818 	ldmdane	r8, {r3, r4, fp, ip}
    cd9c:	18181818 	ldmdane	r8, {r3, r4, fp, ip}
    cda0:	f8181818 			; <UNDEFINED> instruction: 0xf8181818
	...
    cdb0:	1f000000 	svcne	0x00000000
    cdb4:	18181818 	ldmdane	r8, {r3, r4, fp, ip}
    cdb8:	18181818 	ldmdane	r8, {r3, r4, fp, ip}
    cdbc:	ffffffff 			; <UNDEFINED> instruction: 0xffffffff
    cdc0:	ffffffff 			; <UNDEFINED> instruction: 0xffffffff
    cdc4:	ffffffff 			; <UNDEFINED> instruction: 0xffffffff
    cdc8:	ffffffff 			; <UNDEFINED> instruction: 0xffffffff
	...
    cdd4:	ffffffff 			; <UNDEFINED> instruction: 0xffffffff
    cdd8:	ffffffff 			; <UNDEFINED> instruction: 0xffffffff
    cddc:	f0f0f0f0 			; <UNDEFINED> instruction: 0xf0f0f0f0
    cde0:	f0f0f0f0 			; <UNDEFINED> instruction: 0xf0f0f0f0
    cde4:	f0f0f0f0 			; <UNDEFINED> instruction: 0xf0f0f0f0
    cde8:	f0f0f0f0 			; <UNDEFINED> instruction: 0xf0f0f0f0
    cdec:	0f0f0f0f 	svceq	0x000f0f0f
    cdf0:	0f0f0f0f 	svceq	0x000f0f0f
    cdf4:	0f0f0f0f 	svceq	0x000f0f0f
    cdf8:	0f0f0f0f 	svceq	0x000f0f0f
    cdfc:	ffffffff 			; <UNDEFINED> instruction: 0xffffffff
    ce00:	ffffffff 			; <UNDEFINED> instruction: 0xffffffff
	...
    ce10:	cccc7700 	stclgt	7, cr7, [ip], {0}
    ce14:	decccccc 	cdple	12, 12, cr12, cr12, cr12, {6}
    ce18:	00000073 	andeq	r0, r0, r3, ror r0
    ce1c:	c67c0000 	ldrbtgt	r0, [ip], -r0
    ce20:	c6dcc6c6 	ldrbgt	ip, [ip], r6, asr #13
    ce24:	dcc6c6c6 	stclle	6, cr12, [r6], {198}	; 0xc6
    ce28:	0000c0c0 	andeq	ip, r0, r0, asr #1
    ce2c:	c3c3ff00 	bicgt	pc, r3, #0, 30
    ce30:	c0c0c0c0 	sbcgt	ip, r0, r0, asr #1
    ce34:	c0c0c0c0 	sbcgt	ip, r0, r0, asr #1
    ce38:	000000c0 	andeq	r0, r0, r0, asr #1
    ce3c:	00000000 	andeq	r0, r0, r0
    ce40:	6666ff00 	strbtvs	pc, [r6], -r0, lsl #30	; <UNPREDICTABLE>
    ce44:	66666666 	strbtvs	r6, [r6], -r6, ror #12
    ce48:	00000066 	andeq	r0, r0, r6, rrx
    ce4c:	c3ff0000 	mvnsgt	r0, #0
    ce50:	0c183060 	ldceq	0, cr3, [r8], {96}	; 0x60
    ce54:	c3603018 	cmngt	r0, #24
    ce58:	000000ff 	strdeq	r0, [r0], -pc	; <UNPREDICTABLE>
    ce5c:	00000000 	andeq	r0, r0, r0
    ce60:	cccc7f00 	stclgt	15, cr7, [ip], {0}
    ce64:	cccccccc 	stclgt	12, cr12, [ip], {204}	; 0xcc
    ce68:	00000078 	andeq	r0, r0, r8, ror r0
    ce6c:	00000000 	andeq	r0, r0, r0
    ce70:	66666600 	strbtvs	r6, [r6], -r0, lsl #12
    ce74:	66666666 	strbtvs	r6, [r6], -r6, ror #12
    ce78:	c060607c 	rsbgt	r6, r0, ip, ror r0
    ce7c:	00000000 	andeq	r0, r0, r0
    ce80:	18dc7700 	ldmne	ip, {r8, r9, sl, ip, sp, lr}^
    ce84:	18181818 	ldmdane	r8, {r3, r4, fp, ip}
    ce88:	00000018 	andeq	r0, r0, r8, lsl r0
    ce8c:	7e183c00 	cdpvc	12, 1, cr3, cr8, cr0, {0}
    ce90:	dbdbdbdb 	blle	ff703e04 <__bss_end+0xff6e3e04>
    ce94:	187edbdb 	ldmdane	lr!, {r0, r1, r3, r4, r6, r7, r8, r9, fp, ip, lr, pc}^
    ce98:	0000003c 	andeq	r0, r0, ip, lsr r0
    ce9c:	c3663c00 	cmngt	r6, #0, 24
    cea0:	c3ffc3c3 	mvnsgt	ip, #201326595	; 0xc000003
    cea4:	66c3c3c3 	strbvs	ip, [r3], r3, asr #7
    cea8:	0000003c 	andeq	r0, r0, ip, lsr r0
    ceac:	c3663c00 	cmngt	r6, #0, 24
    ceb0:	c3c3c3c3 	bicgt	ip, r3, #201326595	; 0xc000003
    ceb4:	a5246666 	strge	r6, [r4, #-1638]!	; 0x666
    ceb8:	000000e7 	andeq	r0, r0, r7, ror #1
    cebc:	30603c00 	rsbcc	r3, r0, r0, lsl #24
    cec0:	cccc7c18 	stclgt	12, cr7, [ip], {24}
    cec4:	cccccccc 	stclgt	12, cr12, [ip], {204}	; 0xcc
    cec8:	00000078 	andeq	r0, r0, r8, ror r0
    cecc:	00000000 	andeq	r0, r0, r0
    ced0:	dbdb7e00 	blle	ff6ec6d8 <__bss_end+0xff6cc6d8>
    ced4:	00007edb 	ldrdeq	r7, [r0], -fp
    ced8:	00000000 	andeq	r0, r0, r0
    cedc:	02000000 	andeq	r0, r0, #0
    cee0:	cece7c06 	cdpgt	12, 12, cr7, cr14, cr6, {0}
    cee4:	e6e6d6d6 	usat	sp, #6, r6, asr #13
    cee8:	0080c07c 	addeq	ip, r0, ip, ror r0
    ceec:	30301c00 	eorscc	r1, r0, r0, lsl #24
    cef0:	607c6060 	rsbsvs	r6, ip, r0, rrx
    cef4:	30306060 	eorscc	r6, r0, r0, rrx
    cef8:	0000001c 	andeq	r0, r0, ip, lsl r0
    cefc:	c67c0000 	ldrbtgt	r0, [ip], -r0
    cf00:	c6c6c6c6 	strbgt	ip, [r6], r6, asr #13
    cf04:	c6c6c6c6 	strbgt	ip, [r6], r6, asr #13
    cf08:	000000c6 	andeq	r0, r0, r6, asr #1
    cf0c:	00000000 	andeq	r0, r0, r0
    cf10:	0000fe00 	andeq	pc, r0, r0, lsl #28
    cf14:	fe0000fe 	mcr2	0, 0, r0, cr0, cr14, {7}
	...
    cf20:	7e181800 	cdpvc	8, 1, cr1, cr8, cr0, {0}
    cf24:	00001818 	andeq	r1, r0, r8, lsl r8
    cf28:	0000007e 	andeq	r0, r0, lr, ror r0
    cf2c:	30600000 	rsbcc	r0, r0, r0
    cf30:	0c060c18 	stceq	12, cr0, [r6], {24}
    cf34:	00603018 	rsbeq	r3, r0, r8, lsl r0
    cf38:	0000007e 	andeq	r0, r0, lr, ror r0
    cf3c:	180c0000 	stmdane	ip, {}	; <UNPREDICTABLE>
    cf40:	60c06030 	sbcvs	r6, r0, r0, lsr r0
    cf44:	000c1830 	andeq	r1, ip, r0, lsr r8
    cf48:	0000007c 	andeq	r0, r0, ip, ror r0
    cf4c:	1b1b0e00 	blne	6d0754 <__bss_end+0x6b0754>
    cf50:	18181818 	ldmdane	r8, {r3, r4, fp, ip}
    cf54:	18181818 	ldmdane	r8, {r3, r4, fp, ip}
    cf58:	18181818 	ldmdane	r8, {r3, r4, fp, ip}
    cf5c:	18181818 	ldmdane	r8, {r3, r4, fp, ip}
    cf60:	18181818 	ldmdane	r8, {r3, r4, fp, ip}
    cf64:	d8d81818 	ldmle	r8, {r3, r4, fp, ip}^
    cf68:	00000070 	andeq	r0, r0, r0, ror r0
    cf6c:	00000000 	andeq	r0, r0, r0
    cf70:	00181800 	andseq	r1, r8, r0, lsl #16
    cf74:	1818007e 	ldmdane	r8, {r1, r2, r3, r4, r5, r6}
	...
    cf80:	00dc7600 	sbcseq	r7, ip, r0, lsl #12
    cf84:	0000dc76 	andeq	sp, r0, r6, ror ip
    cf88:	00000000 	andeq	r0, r0, r0
    cf8c:	6c6c3800 	stclvs	8, cr3, [ip], #-0
    cf90:	0000386c 	andeq	r3, r0, ip, ror #16
	...
    cfa0:	18000000 	stmdane	r0, {}	; <UNPREDICTABLE>
    cfa4:	00000018 	andeq	r0, r0, r8, lsl r0
	...
    cfb4:	00000018 	andeq	r0, r0, r8, lsl r0
    cfb8:	00000000 	andeq	r0, r0, r0
    cfbc:	02030100 	andeq	r0, r3, #0, 2
    cfc0:	080c0406 	stmdaeq	ip, {r1, r2, sl}
    cfc4:	207050d8 	ldrsbtcs	r5, [r0], #-8
    cfc8:	00000000 	andeq	r0, r0, r0
    cfcc:	6c6c6cd8 	stclvs	12, cr6, [ip], #-864	; 0xfffffca0
    cfd0:	00ee6c6c 	rsceq	r6, lr, ip, ror #24
	...
    cfdc:	3098c870 	addscc	ip, r8, r0, ror r8
    cfe0:	00f8c860 	rscseq	ip, r8, r0, ror #16
	...
    cfec:	7c000000 	stcvc	0, cr0, [r0], {-0}
    cff0:	7c7c7c7c 	ldclvc	12, cr7, [ip], #-496	; 0xfffffe10
    cff4:	00007c7c 	andeq	r7, r0, ip, ror ip
	...

0000d00c <font_ysize>:
    d00c:	00000010 	andeq	r0, r0, r0, lsl r0

0000d010 <console_fore_color>:
    d010:	00ffffff 	ldrshteq	pc, [pc], #255	; <UNPREDICTABLE>

0000d014 <led_gpio>:
    d014:	00000010 	andeq	r0, r0, r0, lsl r0

0000d018 <led_active_low>:
    d018:	00000001 	andeq	r0, r0, r1

Disassembly of section .bss:

00010000 <bss>:
	...

00010010 <fb_info>:
	...

00010038 <framebuffer_initialized>:
   10038:	00000000 	andeq	r0, r0, r0

0001003c <current_fb>:
	...

00010070 <text_console>:
	...

00010b60 <text_color>:
	...

00011650 <console_x>:
   11650:	00000000 	andeq	r0, r0, r0

00011654 <console_y>:
   11654:	00000000 	andeq	r0, r0, r0

00011658 <console_back_color>:
	...

00011660 <gpio_reserved>:
	...

00011668 <max_chunk>:
   11668:	00000000 	andeq	r0, r0, r0

0001166c <tick_counter>:
   1166c:	00000000 	andeq	r0, r0, r0

00011670 <memory_map>:
	...

0001c000 <page_table>:
	...

Disassembly of section .comment:

00000000 <.comment>:
   0:	3a434347 	bcc	10d0d24 <__bss_end+0x10b0d24>
   4:	2e342820 	cdpcs	8, 3, cr2, cr4, cr0, {1}
   8:	2d322e38 	ldccs	14, cr2, [r2, #-224]!	; 0xffffff20
   c:	62753431 	rsbsvs	r3, r5, #822083584	; 0x31000000
  10:	75746e75 	ldrbvc	r6, [r4, #-3701]!	; 0xe75
  14:	29362b31 	ldmdbcs	r6!, {r0, r4, r5, r8, r9, fp, sp}
  18:	382e3420 	stmdacc	lr!, {r5, sl, ip, sp}
  1c:	Address 0x000000000000001c is out of bounds.


Disassembly of section .ARM.attributes:

00000000 <.ARM.attributes>:
   0:	00003541 	andeq	r3, r0, r1, asr #10
   4:	61656100 	cmnvs	r5, r0, lsl #2
   8:	01006962 	tsteq	r0, r2, ror #18
   c:	0000002b 	andeq	r0, r0, fp, lsr #32
  10:	4d524105 	ldfmie	f4, [r2, #-20]	; 0xffffffec
  14:	36373131 			; <UNDEFINED> instruction: 0x36373131
  18:	2d465a4a 	vstrcs	s11, [r6, #-296]	; 0xfffffed8
  1c:	07060053 	smlsdeq	r6, r3, r0, r0
  20:	01090108 	tsteq	r9, r8, lsl #2
  24:	01140412 	tsteq	r4, r2, lsl r4
  28:	03170115 	tsteq	r7, #1073741829	; 0x40000005
  2c:	011a0118 	tsteq	sl, r8, lsl r1
  30:	0122021e 	teqeq	r2, lr, lsl r2
  34:	Address 0x0000000000000034 is out of bounds.

