
kernel.elf:     file format elf32-littlearm


Disassembly of section .text:

00008000 <__start>:
    8000:	e59ff018 	ldr	pc, [pc, #24]	; 8020 <reset_addr>
    8004:	e59ff018 	ldr	pc, [pc, #24]	; 8024 <undefined_instruction_addr>
    8008:	e59ff018 	ldr	pc, [pc, #24]	; 8028 <software_interrupt_addr>
    800c:	e59ff018 	ldr	pc, [pc, #24]	; 802c <prefetch_abort_addr>
    8010:	e59ff018 	ldr	pc, [pc, #24]	; 8030 <data_abort_addr>
    8014:	e59ff018 	ldr	pc, [pc, #24]	; 8034 <unused_handler_addr>
    8018:	e59ff018 	ldr	pc, [pc, #24]	; 8038 <interrupt_addr>
    801c:	e59ff018 	ldr	pc, [pc, #24]	; 803c <fast_interrupt_addr>

00008020 <reset_addr>:
    8020:	00008040 	andeq	r8, r0, r0, asr #32

00008024 <undefined_instruction_addr>:
    8024:	00008834 	andeq	r8, r0, r4, lsr r8

00008028 <software_interrupt_addr>:
    8028:	00009fdc 	ldrdeq	r9, [r0], -ip

0000802c <prefetch_abort_addr>:
    802c:	00008848 	andeq	r8, r0, r8, asr #16

00008030 <data_abort_addr>:
    8030:	0000885c 	andeq	r8, r0, ip, asr r8

00008034 <unused_handler_addr>:
    8034:	00008040 	andeq	r8, r0, r0, asr #32

00008038 <interrupt_addr>:
    8038:	00008794 	muleq	r0, r4, r7

0000803c <fast_interrupt_addr>:
    803c:	00008870 	andeq	r8, r0, r0, ror r8

00008040 <reset>:
    8040:	e59f3074 	ldr	r3, [pc, #116]	; 80bc <reset_count>
    8044:	e3530000 	cmp	r3, #0
    8048:	0a000001 	beq	8054 <first_boot>
    804c:	e51ff004 	ldr	pc, [pc, #-4]	; 8050 <reset_error_addr>

00008050 <reset_error_addr>:
    8050:	00008884 	andeq	r8, r0, r4, lsl #17

00008054 <first_boot>:
    8054:	e2833001 	add	r3, r3, #1
    8058:	e58f305c 	str	r3, [pc, #92]	; 80bc <reset_count>
    805c:	e3a0d902 	mov	sp, #32768	; 0x8000
    8060:	e3a030d2 	mov	r3, #210	; 0xd2
    8064:	e121f003 	msr	CPSR_c, r3
    8068:	e3a0d901 	mov	sp, #16384	; 0x4000
    806c:	e3a030d3 	mov	r3, #211	; 0xd3
    8070:	e121f003 	msr	CPSR_c, r3
    8074:	e59f3044 	ldr	r3, [pc, #68]	; 80c0 <reset_count+0x4>
    8078:	e3a04000 	mov	r4, #0
    807c:	e8b31fe0 	ldm	r3!, {r5, r6, r7, r8, r9, sl, fp, ip}
    8080:	e8a41fe0 	stmia	r4!, {r5, r6, r7, r8, r9, sl, fp, ip}
    8084:	e8b31fe0 	ldm	r3!, {r5, r6, r7, r8, r9, sl, fp, ip}
    8088:	e8a41fe0 	stmia	r4!, {r5, r6, r7, r8, r9, sl, fp, ip}
    808c:	e59f4030 	ldr	r4, [pc, #48]	; 80c4 <reset_count+0x8>
    8090:	e59f9030 	ldr	r9, [pc, #48]	; 80c8 <reset_count+0xc>
    8094:	e3a05000 	mov	r5, #0

00008098 <clear_bss>:
    8098:	e5845000 	str	r5, [r4]
    809c:	e2844004 	add	r4, r4, #4
    80a0:	e1540009 	cmp	r4, r9
    80a4:	dafffffb 	ble	8098 <clear_bss>
    80a8:	e59f3018 	ldr	r3, [pc, #24]	; 80c8 <reset_count+0xc>
    80ac:	e59f4018 	ldr	r4, [pc, #24]	; 80cc <reset_count+0x10>
    80b0:	e12fff34 	blx	r4

000080b4 <wait_forever>:
    80b4:	e320f002 	wfe
    80b8:	eafffffd 	b	80b4 <wait_forever>

000080bc <reset_count>:
    80bc:	00000000 	andeq	r0, r0, r0
    80c0:	00008000 	andeq	r8, r0, r0
    80c4:	0000e000 	andeq	lr, r0, r0
    80c8:	00020000 	andeq	r0, r2, r0
    80cc:	000080d0 	ldrdeq	r8, [r0], -r0

000080d0 <kernel_main>:
    80d0:	e92d41f0 	push	{r4, r5, r6, r7, r8, lr}
    80d4:	e3a00010 	mov	r0, #16
    80d8:	e24dd018 	sub	sp, sp, #24
    80dc:	e1a04002 	mov	r4, r2
    80e0:	e1a07003 	mov	r7, r3
    80e4:	e1a06001 	mov	r6, r1
    80e8:	eb00055b 	bl	965c <memory_allocate>
    80ec:	e28d1004 	add	r1, sp, #4
    80f0:	e1a08000 	mov	r8, r0
    80f4:	e1a00004 	mov	r0, r4
    80f8:	eb000129 	bl	85a4 <atags_detect>
    80fc:	e59f515c 	ldr	r5, [pc, #348]	; 8260 <kernel_main+0x190>
    8100:	e59d300c 	ldr	r3, [sp, #12]
    8104:	e5853000 	str	r3, [r5]
    8108:	eb000651 	bl	9a54 <uart_init>
    810c:	eb0004a9 	bl	93b8 <led_init>
    8110:	eb0007ff 	bl	a114 <timer_init>
    8114:	e10f3000 	mrs	r3, CPSR
    8118:	e3c33080 	bic	r3, r3, #128	; 0x80
    811c:	e12ff003 	msr	CPSR_fsxc, r3
    8120:	e59f013c 	ldr	r0, [pc, #316]	; 8264 <kernel_main+0x194>
    8124:	eb0005ec 	bl	98dc <printk>
    8128:	eb00067a 	bl	9b18 <uart_getc>
    812c:	e1a01006 	mov	r1, r6
    8130:	e59f0130 	ldr	r0, [pc, #304]	; 8268 <kernel_main+0x198>
    8134:	eb0005e8 	bl	98dc <printk>
    8138:	e59f312c 	ldr	r3, [pc, #300]	; 826c <kernel_main+0x19c>
    813c:	e1560003 	cmp	r6, r3
    8140:	059f0128 	ldreq	r0, [pc, #296]	; 8270 <kernel_main+0x1a0>
    8144:	159f0128 	ldrne	r0, [pc, #296]	; 8274 <kernel_main+0x1a4>
    8148:	eb0005e3 	bl	98dc <printk>
    814c:	e59f0124 	ldr	r0, [pc, #292]	; 8278 <kernel_main+0x1a8>
    8150:	eb0005e1 	bl	98dc <printk>
    8154:	e59f0120 	ldr	r0, [pc, #288]	; 827c <kernel_main+0x1ac>
    8158:	eb0005df 	bl	98dc <printk>
    815c:	e5951000 	ldr	r1, [r5]
    8160:	e2412001 	sub	r2, r1, #1
    8164:	e3520005 	cmp	r2, #5
    8168:	979ff102 	ldrls	pc, [pc, r2, lsl #2]
    816c:	ea000038 	b	8254 <kernel_main+0x184>
    8170:	00008218 	andeq	r8, r0, r8, lsl r2
    8174:	00008224 	andeq	r8, r0, r4, lsr #4
    8178:	00008230 	andeq	r8, r0, r0, lsr r2
    817c:	0000823c 	andeq	r8, r0, ip, lsr r2
    8180:	00008248 	andeq	r8, r0, r8, asr #4
    8184:	00008188 	andeq	r8, r0, r8, lsl #3
    8188:	e59f00f0 	ldr	r0, [pc, #240]	; 8280 <kernel_main+0x1b0>
    818c:	eb0005d2 	bl	98dc <printk>
    8190:	e59f00e0 	ldr	r0, [pc, #224]	; 8278 <kernel_main+0x1a8>
    8194:	eb0005d0 	bl	98dc <printk>
    8198:	e1a00004 	mov	r0, r4
    819c:	eb000086 	bl	83bc <atags_dump>
    81a0:	e59d4008 	ldr	r4, [sp, #8]
    81a4:	e1a01007 	mov	r1, r7
    81a8:	e1a00004 	mov	r0, r4
    81ac:	eb0004fd 	bl	95a8 <memory_init>
    81b0:	e1a01004 	mov	r1, r4
    81b4:	e3a00000 	mov	r0, #0
    81b8:	eb000569 	bl	9764 <enable_mmu>
    81bc:	e3a0700d 	mov	r7, #13
    81c0:	eb000654 	bl	9b18 <uart_getc>
    81c4:	e1a0000d 	mov	r0, sp
    81c8:	ef000000 	svc	0x00000000
    81cc:	e3a02010 	mov	r2, #16
    81d0:	e3a010aa 	mov	r1, #170	; 0xaa
    81d4:	e1a00008 	mov	r0, r8
    81d8:	eb0006db 	bl	9d4c <memset>
    81dc:	e59d1000 	ldr	r1, [sp]
    81e0:	e59f009c 	ldr	r0, [pc, #156]	; 8284 <kernel_main+0x1b4>
    81e4:	eb0005bc 	bl	98dc <printk>
    81e8:	e59f0098 	ldr	r0, [pc, #152]	; 8288 <kernel_main+0x1b8>
    81ec:	eb0005ba 	bl	98dc <printk>
    81f0:	e321f0df 	msr	CPSR_c, #223	; 0xdf
    81f4:	e3a0da02 	mov	sp, #8192	; 0x2000
    81f8:	e321f0d3 	msr	CPSR_c, #211	; 0xd3
    81fc:	e59f3088 	ldr	r3, [pc, #136]	; 828c <kernel_main+0x1bc>
    8200:	e3a00010 	mov	r0, #16
    8204:	e169f000 	msr	SPSR_fc, r0
    8208:	e1a0e003 	mov	lr, r3
    820c:	e1b0f00e 	movs	pc, lr
    8210:	e28dd018 	add	sp, sp, #24
    8214:	e8bd81f0 	pop	{r4, r5, r6, r7, r8, pc}
    8218:	e59f0070 	ldr	r0, [pc, #112]	; 8290 <kernel_main+0x1c0>
    821c:	eb0005ae 	bl	98dc <printk>
    8220:	eaffffda 	b	8190 <kernel_main+0xc0>
    8224:	e59f0068 	ldr	r0, [pc, #104]	; 8294 <kernel_main+0x1c4>
    8228:	eb0005ab 	bl	98dc <printk>
    822c:	eaffffd7 	b	8190 <kernel_main+0xc0>
    8230:	e59f0060 	ldr	r0, [pc, #96]	; 8298 <kernel_main+0x1c8>
    8234:	eb0005a8 	bl	98dc <printk>
    8238:	eaffffd4 	b	8190 <kernel_main+0xc0>
    823c:	e59f0058 	ldr	r0, [pc, #88]	; 829c <kernel_main+0x1cc>
    8240:	eb0005a5 	bl	98dc <printk>
    8244:	eaffffd1 	b	8190 <kernel_main+0xc0>
    8248:	e59f0050 	ldr	r0, [pc, #80]	; 82a0 <kernel_main+0x1d0>
    824c:	eb0005a2 	bl	98dc <printk>
    8250:	eaffffce 	b	8190 <kernel_main+0xc0>
    8254:	e59f0048 	ldr	r0, [pc, #72]	; 82a4 <kernel_main+0x1d4>
    8258:	eb00059f 	bl	98dc <printk>
    825c:	eaffffcb 	b	8190 <kernel_main+0xc0>
    8260:	0000c000 	andeq	ip, r0, r0
    8264:	0000b020 	andeq	fp, r0, r0, lsr #32
    8268:	0000b058 	andeq	fp, r0, r8, asr r0
    826c:	00000c42 	andeq	r0, r0, r2, asr #24
    8270:	0000b070 	andeq	fp, r0, r0, ror r0
    8274:	0000b080 	andeq	fp, r0, r0, lsl #1
    8278:	0000b758 	andeq	fp, r0, r8, asr r7
    827c:	0000b094 	muleq	r0, r4, r0
    8280:	0000b0b8 	strheq	fp, [r0], -r8
    8284:	0000b824 	andeq	fp, r0, r4, lsr #16
    8288:	0000b0d4 	ldrdeq	fp, [r0], -r4
    828c:	0000a16c 	andeq	sl, r0, ip, ror #2
    8290:	0000b0a4 	andeq	fp, r0, r4, lsr #1
    8294:	0000b0ac 	andeq	fp, r0, ip, lsr #1
    8298:	0000b0a8 	andeq	fp, r0, r8, lsr #1
    829c:	0000b0b0 	strheq	fp, [r0], -r0
    82a0:	0000b0b4 	strheq	fp, [r0], -r4
    82a4:	0000b0c8 	andeq	fp, r0, r8, asr #1

000082a8 <parse_cmdline_int>:
    82a8:	e92d47f0 	push	{r4, r5, r6, r7, r8, r9, sl, lr}
    82ac:	e1a08001 	mov	r8, r1
    82b0:	e1a0a000 	mov	sl, r0
    82b4:	eb000698 	bl	9d1c <strlen>
    82b8:	e1a06000 	mov	r6, r0
    82bc:	e1a00008 	mov	r0, r8
    82c0:	eb000695 	bl	9d1c <strlen>
    82c4:	e5da3000 	ldrb	r3, [sl]
    82c8:	e1a07000 	mov	r7, r0
    82cc:	e3530000 	cmp	r3, #0
    82d0:	0a000030 	beq	8398 <parse_cmdline_int+0xf0>
    82d4:	e1560000 	cmp	r6, r0
    82d8:	3a00002e 	bcc	8398 <parse_cmdline_int+0xf0>
    82dc:	e1e0900a 	mvn	r9, sl
    82e0:	e0809009 	add	r9, r0, r9
    82e4:	e28a4001 	add	r4, sl, #1
    82e8:	e1a05000 	mov	r5, r0
    82ec:	e1a0100a 	mov	r1, sl
    82f0:	ea000006 	b	8310 <parse_cmdline_int+0x68>
    82f4:	e5d43000 	ldrb	r3, [r4]
    82f8:	e2844001 	add	r4, r4, #1
    82fc:	e3530000 	cmp	r3, #0
    8300:	e0895004 	add	r5, r9, r4
    8304:	0a000023 	beq	8398 <parse_cmdline_int+0xf0>
    8308:	e1560005 	cmp	r6, r5
    830c:	3a000021 	bcc	8398 <parse_cmdline_int+0xf0>
    8310:	e1a00008 	mov	r0, r8
    8314:	e1a02007 	mov	r2, r7
    8318:	eb00062f 	bl	9bdc <strncmp>
    831c:	e3500000 	cmp	r0, #0
    8320:	e1a01004 	mov	r1, r4
    8324:	1afffff2 	bne	82f4 <parse_cmdline_int+0x4c>
    8328:	e2852001 	add	r2, r5, #1
    832c:	e7da3002 	ldrb	r3, [sl, r2]
    8330:	e3530030 	cmp	r3, #48	; 0x30
    8334:	0a000019 	beq	83a0 <parse_cmdline_int+0xf8>
    8338:	e3a0100a 	mov	r1, #10
    833c:	e0823007 	add	r3, r2, r7
    8340:	e1560003 	cmp	r6, r3
    8344:	3a000013 	bcc	8398 <parse_cmdline_int+0xf0>
    8348:	e7da3002 	ldrb	r3, [sl, r2]
    834c:	e08a2002 	add	r2, sl, r2
    8350:	e31300df 	tst	r3, #223	; 0xdf
    8354:	0a00000f 	beq	8398 <parse_cmdline_int+0xf0>
    8358:	e26aa001 	rsb	sl, sl, #1
    835c:	e087700a 	add	r7, r7, sl
    8360:	e3a00000 	mov	r0, #0
    8364:	ea000002 	b	8374 <parse_cmdline_int+0xcc>
    8368:	e5f23001 	ldrb	r3, [r2, #1]!
    836c:	e31300df 	tst	r3, #223	; 0xdf
    8370:	08bd87f0 	popeq	{r4, r5, r6, r7, r8, r9, sl, pc}
    8374:	e0000190 	mul	r0, r0, r1
    8378:	e3530039 	cmp	r3, #57	; 0x39
    837c:	92400030 	subls	r0, r0, #48	; 0x30
    8380:	82400057 	subhi	r0, r0, #87	; 0x57
    8384:	e0800003 	add	r0, r0, r3
    8388:	e0873002 	add	r3, r7, r2
    838c:	e1560003 	cmp	r6, r3
    8390:	2afffff4 	bcs	8368 <parse_cmdline_int+0xc0>
    8394:	e8bd87f0 	pop	{r4, r5, r6, r7, r8, r9, sl, pc}
    8398:	e3a00000 	mov	r0, #0
    839c:	e8bd87f0 	pop	{r4, r5, r6, r7, r8, r9, sl, pc}
    83a0:	e08a3005 	add	r3, sl, r5
    83a4:	e5d33002 	ldrb	r3, [r3, #2]
    83a8:	e3530078 	cmp	r3, #120	; 0x78
    83ac:	02852003 	addeq	r2, r5, #3
    83b0:	03a01010 	moveq	r1, #16
    83b4:	1affffdf 	bne	8338 <parse_cmdline_int+0x90>
    83b8:	eaffffdf 	b	833c <parse_cmdline_int+0x94>

000083bc <atags_dump>:
    83bc:	e92d47f0 	push	{r4, r5, r6, r7, r8, r9, sl, lr}
    83c0:	e1a04000 	mov	r4, r0
    83c4:	e59f018c 	ldr	r0, [pc, #396]	; 8558 <atags_dump+0x19c>
    83c8:	eb000543 	bl	98dc <printk>
    83cc:	e59f8188 	ldr	r8, [pc, #392]	; 855c <atags_dump+0x1a0>
    83d0:	e59f9188 	ldr	r9, [pc, #392]	; 8560 <atags_dump+0x1a4>
    83d4:	e59fa188 	ldr	sl, [pc, #392]	; 8564 <atags_dump+0x1a8>
    83d8:	e5941004 	ldr	r1, [r4, #4]
    83dc:	e5947000 	ldr	r7, [r4]
    83e0:	e1510008 	cmp	r1, r8
    83e4:	0a000011 	beq	8430 <atags_dump+0x74>
    83e8:	9a000016 	bls	8448 <atags_dump+0x8c>
    83ec:	e1510009 	cmp	r1, r9
    83f0:	0a00003a 	beq	84e0 <atags_dump+0x124>
    83f4:	8a000021 	bhi	8480 <atags_dump+0xc4>
    83f8:	e59f3168 	ldr	r3, [pc, #360]	; 8568 <atags_dump+0x1ac>
    83fc:	e1510003 	cmp	r1, r3
    8400:	0a00002e 	beq	84c0 <atags_dump+0x104>
    8404:	e2833001 	add	r3, r3, #1
    8408:	e1510003 	cmp	r1, r3
    840c:	1a000018 	bne	8474 <atags_dump+0xb8>
    8410:	e5941008 	ldr	r1, [r4, #8]
    8414:	e59f0150 	ldr	r0, [pc, #336]	; 856c <atags_dump+0x1b0>
    8418:	e0844107 	add	r4, r4, r7, lsl #2
    841c:	eb00052e 	bl	98dc <printk>
    8420:	e5941004 	ldr	r1, [r4, #4]
    8424:	e5947000 	ldr	r7, [r4]
    8428:	e1510008 	cmp	r1, r8
    842c:	1affffed 	bne	83e8 <atags_dump+0x2c>
    8430:	e59f0138 	ldr	r0, [pc, #312]	; 8570 <atags_dump+0x1b4>
    8434:	e2841008 	add	r1, r4, #8
    8438:	e891000e 	ldm	r1, {r1, r2, r3}
    843c:	eb000526 	bl	98dc <printk>
    8440:	e0844107 	add	r4, r4, r7, lsl #2
    8444:	eaffffe3 	b	83d8 <atags_dump+0x1c>
    8448:	e59f3124 	ldr	r3, [pc, #292]	; 8574 <atags_dump+0x1b8>
    844c:	e1510003 	cmp	r1, r3
    8450:	0a000020 	beq	84d8 <atags_dump+0x11c>
    8454:	9a000014 	bls	84ac <atags_dump+0xf0>
    8458:	e59f3118 	ldr	r3, [pc, #280]	; 8578 <atags_dump+0x1bc>
    845c:	e1510003 	cmp	r1, r3
    8460:	0a000022 	beq	84f0 <atags_dump+0x134>
    8464:	e2833001 	add	r3, r3, #1
    8468:	e1510003 	cmp	r1, r3
    846c:	059f0108 	ldreq	r0, [pc, #264]	; 857c <atags_dump+0x1c0>
    8470:	0affffef 	beq	8434 <atags_dump+0x78>
    8474:	e59f0104 	ldr	r0, [pc, #260]	; 8580 <atags_dump+0x1c4>
    8478:	eb000517 	bl	98dc <printk>
    847c:	eaffffd5 	b	83d8 <atags_dump+0x1c>
    8480:	e151000a 	cmp	r1, sl
    8484:	0a000020 	beq	850c <atags_dump+0x150>
    8488:	e59f30f4 	ldr	r3, [pc, #244]	; 8584 <atags_dump+0x1c8>
    848c:	e1510003 	cmp	r1, r3
    8490:	1afffff7 	bne	8474 <atags_dump+0xb8>
    8494:	e594100c 	ldr	r1, [r4, #12]
    8498:	e5942008 	ldr	r2, [r4, #8]
    849c:	e59f00e4 	ldr	r0, [pc, #228]	; 8588 <atags_dump+0x1cc>
    84a0:	eb00050d 	bl	98dc <printk>
    84a4:	e0844107 	add	r4, r4, r7, lsl #2
    84a8:	eaffffca 	b	83d8 <atags_dump+0x1c>
    84ac:	e3510000 	cmp	r1, #0
    84b0:	1affffef 	bne	8474 <atags_dump+0xb8>
    84b4:	e8bd47f0 	pop	{r4, r5, r6, r7, r8, r9, sl, lr}
    84b8:	e59f00cc 	ldr	r0, [pc, #204]	; 858c <atags_dump+0x1d0>
    84bc:	ea000506 	b	98dc <printk>
    84c0:	e5941008 	ldr	r1, [r4, #8]
    84c4:	e594200c 	ldr	r2, [r4, #12]
    84c8:	e59f00c0 	ldr	r0, [pc, #192]	; 8590 <atags_dump+0x1d4>
    84cc:	eb000502 	bl	98dc <printk>
    84d0:	e0844107 	add	r4, r4, r7, lsl #2
    84d4:	eaffffbf 	b	83d8 <atags_dump+0x1c>
    84d8:	e59f00b4 	ldr	r0, [pc, #180]	; 8594 <atags_dump+0x1d8>
    84dc:	eaffffd4 	b	8434 <atags_dump+0x78>
    84e0:	e59f00b0 	ldr	r0, [pc, #176]	; 8598 <atags_dump+0x1dc>
    84e4:	e0844107 	add	r4, r4, r7, lsl #2
    84e8:	eb0004fb 	bl	98dc <printk>
    84ec:	eaffffb9 	b	83d8 <atags_dump+0x1c>
    84f0:	e5941008 	ldr	r1, [r4, #8]
    84f4:	e594300c 	ldr	r3, [r4, #12]
    84f8:	e59f009c 	ldr	r0, [pc, #156]	; 859c <atags_dump+0x1e0>
    84fc:	e1a02a21 	lsr	r2, r1, #20
    8500:	eb0004f5 	bl	98dc <printk>
    8504:	e0844107 	add	r4, r4, r7, lsl #2
    8508:	eaffffb2 	b	83d8 <atags_dump+0x1c>
    850c:	e2846008 	add	r6, r4, #8
    8510:	e1a00006 	mov	r0, r6
    8514:	eb000600 	bl	9d1c <strlen>
    8518:	e1a05000 	mov	r5, r0
    851c:	e1a01000 	mov	r1, r0
    8520:	e59f0078 	ldr	r0, [pc, #120]	; 85a0 <atags_dump+0x1e4>
    8524:	eb0004ec 	bl	98dc <printk>
    8528:	e3550000 	cmp	r5, #0
    852c:	da000005 	ble	8548 <atags_dump+0x18c>
    8530:	e1a00006 	mov	r0, r6
    8534:	e2455c01 	sub	r5, r5, #256	; 0x100
    8538:	eb0004e7 	bl	98dc <printk>
    853c:	e3550000 	cmp	r5, #0
    8540:	e2866c01 	add	r6, r6, #256	; 0x100
    8544:	cafffff9 	bgt	8530 <atags_dump+0x174>
    8548:	e59f003c 	ldr	r0, [pc, #60]	; 858c <atags_dump+0x1d0>
    854c:	e0844107 	add	r4, r4, r7, lsl #2
    8550:	eb0004e1 	bl	98dc <printk>
    8554:	eaffff9f 	b	83d8 <atags_dump+0x1c>
    8558:	0000b0ec 	andeq	fp, r0, ip, ror #1
    855c:	54410004 	strbpl	r0, [r1], #-4
    8560:	54410008 	strbpl	r0, [r1], #-8
    8564:	54410009 	strbpl	r0, [r1], #-9
    8568:	54410006 	strbpl	r0, [r1], #-6
    856c:	0000b224 	andeq	fp, r0, r4, lsr #4
    8570:	0000b1b4 			; <UNDEFINED> instruction: 0x0000b1b4
    8574:	54410001 	strbpl	r0, [r1], #-1
    8578:	54410002 	strbpl	r0, [r1], #-2
    857c:	0000b16c 	andeq	fp, r0, ip, ror #2
    8580:	0000b268 	andeq	fp, r0, r8, ror #4
    8584:	54420005 	strbpl	r0, [r2], #-5
    8588:	0000b1e0 	andeq	fp, r0, r0, ror #3
    858c:	0000b758 	andeq	fp, r0, r8, asr r7
    8590:	0000b200 	andeq	fp, r0, r0, lsl #4
    8594:	0000b114 	andeq	fp, r0, r4, lsl r1
    8598:	0000b23c 	andeq	fp, r0, ip, lsr r2
    859c:	0000b144 	andeq	fp, r0, r4, asr #2
    85a0:	0000b250 	andeq	fp, r0, r0, asr r2

000085a4 <atags_detect>:
    85a4:	e92d47f0 	push	{r4, r5, r6, r7, r8, r9, sl, lr}
    85a8:	e1a07001 	mov	r7, r1
    85ac:	e1a04000 	mov	r4, r0
    85b0:	e3a01000 	mov	r1, #0
    85b4:	e1a00007 	mov	r0, r7
    85b8:	e3a02014 	mov	r2, #20
    85bc:	eb0005e2 	bl	9d4c <memset>
    85c0:	e59f619c 	ldr	r6, [pc, #412]	; 8764 <atags_detect+0x1c0>
    85c4:	e59f819c 	ldr	r8, [pc, #412]	; 8768 <atags_detect+0x1c4>
    85c8:	e59f919c 	ldr	r9, [pc, #412]	; 876c <atags_detect+0x1c8>
    85cc:	e5943004 	ldr	r3, [r4, #4]
    85d0:	e5945000 	ldr	r5, [r4]
    85d4:	e1530006 	cmp	r3, r6
    85d8:	0a000009 	beq	8604 <atags_detect+0x60>
    85dc:	9a00000e 	bls	861c <atags_detect+0x78>
    85e0:	e1530008 	cmp	r3, r8
    85e4:	0a000006 	beq	8604 <atags_detect+0x60>
    85e8:	8a000019 	bhi	8654 <atags_detect+0xb0>
    85ec:	e59f217c 	ldr	r2, [pc, #380]	; 8770 <atags_detect+0x1cc>
    85f0:	e1530002 	cmp	r3, r2
    85f4:	0a000002 	beq	8604 <atags_detect+0x60>
    85f8:	e2822001 	add	r2, r2, #1
    85fc:	e1530002 	cmp	r3, r2
    8600:	1a000018 	bne	8668 <atags_detect+0xc4>
    8604:	e0844105 	add	r4, r4, r5, lsl #2
    8608:	e5943004 	ldr	r3, [r4, #4]
    860c:	e5945000 	ldr	r5, [r4]
    8610:	e1530006 	cmp	r3, r6
    8614:	0afffffa 	beq	8604 <atags_detect+0x60>
    8618:	8afffff0 	bhi	85e0 <atags_detect+0x3c>
    861c:	e59f2150 	ldr	r2, [pc, #336]	; 8774 <atags_detect+0x1d0>
    8620:	e1530002 	cmp	r3, r2
    8624:	0afffff6 	beq	8604 <atags_detect+0x60>
    8628:	9a000011 	bls	8674 <atags_detect+0xd0>
    862c:	e59f2144 	ldr	r2, [pc, #324]	; 8778 <atags_detect+0x1d4>
    8630:	e1530002 	cmp	r3, r2
    8634:	1affffef 	bne	85f8 <atags_detect+0x54>
    8638:	e594300c 	ldr	r3, [r4, #12]
    863c:	e594a008 	ldr	sl, [r4, #8]
    8640:	e3530000 	cmp	r3, #0
    8644:	1a000031 	bne	8710 <atags_detect+0x16c>
    8648:	e587a004 	str	sl, [r7, #4]
    864c:	e0844105 	add	r4, r4, r5, lsl #2
    8650:	eaffffdd 	b	85cc <atags_detect+0x28>
    8654:	e1530009 	cmp	r3, r9
    8658:	0a00000a 	beq	8688 <atags_detect+0xe4>
    865c:	e59f2118 	ldr	r2, [pc, #280]	; 877c <atags_detect+0x1d8>
    8660:	e1530002 	cmp	r3, r2
    8664:	0affffe6 	beq	8604 <atags_detect+0x60>
    8668:	e59f0110 	ldr	r0, [pc, #272]	; 8780 <atags_detect+0x1dc>
    866c:	eb00049a 	bl	98dc <printk>
    8670:	eaffffd5 	b	85cc <atags_detect+0x28>
    8674:	e3530000 	cmp	r3, #0
    8678:	08bd87f0 	popeq	{r4, r5, r6, r7, r8, r9, sl, pc}
    867c:	e59f00fc 	ldr	r0, [pc, #252]	; 8780 <atags_detect+0x1dc>
    8680:	eb000495 	bl	98dc <printk>
    8684:	eaffffd0 	b	85cc <atags_detect+0x28>
    8688:	e284a008 	add	sl, r4, #8
    868c:	e59f10f0 	ldr	r1, [pc, #240]	; 8784 <atags_detect+0x1e0>
    8690:	e1a0000a 	mov	r0, sl
    8694:	ebffff03 	bl	82a8 <parse_cmdline_int>
    8698:	e59f10e8 	ldr	r1, [pc, #232]	; 8788 <atags_detect+0x1e4>
    869c:	e587000c 	str	r0, [r7, #12]
    86a0:	e1a0000a 	mov	r0, sl
    86a4:	ebfffeff 	bl	82a8 <parse_cmdline_int>
    86a8:	e59f10dc 	ldr	r1, [pc, #220]	; 878c <atags_detect+0x1e8>
    86ac:	e5870010 	str	r0, [r7, #16]
    86b0:	e1a0000a 	mov	r0, sl
    86b4:	ebfffefb 	bl	82a8 <parse_cmdline_int>
    86b8:	e2403002 	sub	r3, r0, #2
    86bc:	e5870000 	str	r0, [r7]
    86c0:	e3530010 	cmp	r3, #16
    86c4:	979ff103 	ldrls	pc, [pc, r3, lsl #2]
    86c8:	ea000022 	b	8758 <atags_detect+0x1b4>
    86cc:	00008728 	andeq	r8, r0, r8, lsr #14
    86d0:	00008728 	andeq	r8, r0, r8, lsr #14
    86d4:	00008728 	andeq	r8, r0, r8, lsr #14
    86d8:	00008728 	andeq	r8, r0, r8, lsr #14
    86dc:	00008728 	andeq	r8, r0, r8, lsr #14
    86e0:	00008734 	andeq	r8, r0, r4, lsr r7
    86e4:	00008734 	andeq	r8, r0, r4, lsr r7
    86e8:	00008734 	andeq	r8, r0, r4, lsr r7
    86ec:	00008758 	andeq	r8, r0, r8, asr r7
    86f0:	00008758 	andeq	r8, r0, r8, asr r7
    86f4:	00008758 	andeq	r8, r0, r8, asr r7
    86f8:	00008728 	andeq	r8, r0, r8, lsr #14
    86fc:	00008728 	andeq	r8, r0, r8, lsr #14
    8700:	00008728 	andeq	r8, r0, r8, lsr #14
    8704:	00008740 	andeq	r8, r0, r0, asr #14
    8708:	0000874c 	andeq	r8, r0, ip, asr #14
    870c:	0000871c 	andeq	r8, r0, ip, lsl r7
    8710:	e59f0078 	ldr	r0, [pc, #120]	; 8790 <atags_detect+0x1ec>
    8714:	eb000470 	bl	98dc <printk>
    8718:	eaffffca 	b	8648 <atags_detect+0xa4>
    871c:	e3a03003 	mov	r3, #3
    8720:	e5873008 	str	r3, [r7, #8]
    8724:	eaffffb6 	b	8604 <atags_detect+0x60>
    8728:	e3a03002 	mov	r3, #2
    872c:	e5873008 	str	r3, [r7, #8]
    8730:	eaffffb3 	b	8604 <atags_detect+0x60>
    8734:	e3a03001 	mov	r3, #1
    8738:	e5873008 	str	r3, [r7, #8]
    873c:	eaffffb0 	b	8604 <atags_detect+0x60>
    8740:	e3a03004 	mov	r3, #4
    8744:	e5873008 	str	r3, [r7, #8]
    8748:	eaffffad 	b	8604 <atags_detect+0x60>
    874c:	e3a03006 	mov	r3, #6
    8750:	e5873008 	str	r3, [r7, #8]
    8754:	eaffffaa 	b	8604 <atags_detect+0x60>
    8758:	e3a03000 	mov	r3, #0
    875c:	e5873008 	str	r3, [r7, #8]
    8760:	eaffffa7 	b	8604 <atags_detect+0x60>
    8764:	54410004 	strbpl	r0, [r1], #-4
    8768:	54410008 	strbpl	r0, [r1], #-8
    876c:	54410009 	strbpl	r0, [r1], #-9
    8770:	54410006 	strbpl	r0, [r1], #-6
    8774:	54410001 	strbpl	r0, [r1], #-1
    8778:	54410002 	strbpl	r0, [r1], #-2
    877c:	54420005 	strbpl	r0, [r2], #-5
    8780:	0000b2d4 	ldrdeq	fp, [r0], -r4
    8784:	0000b2bc 			; <UNDEFINED> instruction: 0x0000b2bc
    8788:	0000b2c4 	andeq	fp, r0, r4, asr #5
    878c:	0000b2d0 	ldrdeq	fp, [r0], -r0
    8790:	0000b280 	andeq	fp, r0, r0, lsl #5

00008794 <interrupt_handler>:
    8794:	e24ee004 	sub	lr, lr, #4
    8798:	e92d503f 	push	{r0, r1, r2, r3, r4, r5, ip, lr}
    879c:	e59f1078 	ldr	r1, [pc, #120]	; 881c <interrupt_handler+0x88>
    87a0:	e5911000 	ldr	r1, [r1]
    87a4:	e3110001 	tst	r1, #1
    87a8:	0a000016 	beq	8808 <interrupt_handler+0x74>
    87ac:	e59f306c 	ldr	r3, [pc, #108]	; 8820 <interrupt_handler+0x8c>
    87b0:	e3a02001 	mov	r2, #1
    87b4:	e5832000 	str	r2, [r3]
    87b8:	e59f3064 	ldr	r3, [pc, #100]	; 8824 <interrupt_handler+0x90>
    87bc:	e59f1064 	ldr	r1, [pc, #100]	; 8828 <interrupt_handler+0x94>
    87c0:	e5932000 	ldr	r2, [r3]
    87c4:	e5911000 	ldr	r1, [r1]
    87c8:	e2822001 	add	r2, r2, #1
    87cc:	e3510000 	cmp	r1, #0
    87d0:	e5832000 	str	r2, [r3]
    87d4:	08fd903f 	ldmeq	sp!, {r0, r1, r2, r3, r4, r5, ip, pc}^
    87d8:	e59f404c 	ldr	r4, [pc, #76]	; 882c <interrupt_handler+0x98>
    87dc:	e5943000 	ldr	r3, [r4]
    87e0:	e2833001 	add	r3, r3, #1
    87e4:	e3530020 	cmp	r3, #32
    87e8:	e5843000 	str	r3, [r4]
    87ec:	0a000008 	beq	8814 <interrupt_handler+0x80>
    87f0:	e3530040 	cmp	r3, #64	; 0x40
    87f4:	18fd903f 	ldmne	sp!, {r0, r1, r2, r3, r4, r5, ip, pc}^
    87f8:	eb000305 	bl	9414 <led_on>
    87fc:	e3a03000 	mov	r3, #0
    8800:	e5843000 	str	r3, [r4]
    8804:	e8fd903f 	ldm	sp!, {r0, r1, r2, r3, r4, r5, ip, pc}^
    8808:	e59f0020 	ldr	r0, [pc, #32]	; 8830 <interrupt_handler+0x9c>
    880c:	eb000432 	bl	98dc <printk>
    8810:	e8fd903f 	ldm	sp!, {r0, r1, r2, r3, r4, r5, ip, pc}^
    8814:	eb000308 	bl	943c <led_off>
    8818:	e8fd903f 	ldm	sp!, {r0, r1, r2, r3, r4, r5, ip, pc}^
    881c:	2000b200 	andcs	fp, r0, r0, lsl #4
    8820:	2000b40c 	andcs	fp, r0, ip, lsl #8
    8824:	0001166c 	andeq	r1, r1, ip, ror #12
    8828:	0000c004 	andeq	ip, r0, r4
    882c:	00010000 	andeq	r0, r1, r0
    8830:	0000b2ec 	andeq	fp, r0, ip, ror #5

00008834 <undefined_handler>:
    8834:	e92d500f 	push	{r0, r1, r2, r3, ip, lr}
    8838:	e59f0004 	ldr	r0, [pc, #4]	; 8844 <undefined_handler+0x10>
    883c:	eb000426 	bl	98dc <printk>
    8840:	eafffffe 	b	8840 <undefined_handler+0xc>
    8844:	0000b304 	andeq	fp, r0, r4, lsl #6

00008848 <prefetch_handler>:
    8848:	e92d500f 	push	{r0, r1, r2, r3, ip, lr}
    884c:	e59f0004 	ldr	r0, [pc, #4]	; 8858 <prefetch_handler+0x10>
    8850:	eb000421 	bl	98dc <printk>
    8854:	eafffffe 	b	8854 <prefetch_handler+0xc>
    8858:	0000b31c 	andeq	fp, r0, ip, lsl r3

0000885c <data_handler>:
    885c:	e92d500f 	push	{r0, r1, r2, r3, ip, lr}
    8860:	e59f0004 	ldr	r0, [pc, #4]	; 886c <data_handler+0x10>
    8864:	eb00041c 	bl	98dc <printk>
    8868:	eafffffe 	b	8868 <data_handler+0xc>
    886c:	0000b330 	andeq	fp, r0, r0, lsr r3

00008870 <fiq_handler>:
    8870:	e92d401f 	push	{r0, r1, r2, r3, r4, lr}
    8874:	e59f0004 	ldr	r0, [pc, #4]	; 8880 <fiq_handler+0x10>
    8878:	eb000417 	bl	98dc <printk>
    887c:	eafffffe 	b	887c <fiq_handler+0xc>
    8880:	0000b340 	andeq	fp, r0, r0, asr #6

00008884 <reset_error>:
    8884:	e92d4008 	push	{r3, lr}
    8888:	e59f0004 	ldr	r0, [pc, #4]	; 8894 <reset_error+0x10>
    888c:	eb000412 	bl	98dc <printk>
    8890:	eafffffe 	b	8890 <reset_error+0xc>
    8894:	0000b350 	andeq	fp, r0, r0, asr r3

00008898 <console_write>:
    8898:	e92d4038 	push	{r3, r4, r5, lr}
    889c:	e1a05000 	mov	r5, r0
    88a0:	e1a04001 	mov	r4, r1
    88a4:	eb000108 	bl	8ccc <framebuffer_console_write>
    88a8:	e1a00005 	mov	r0, r5
    88ac:	e1a01004 	mov	r1, r4
    88b0:	e8bd4038 	pop	{r3, r4, r5, lr}
    88b4:	ea0004ad 	b	9b70 <uart_write>

000088b8 <console_read>:
    88b8:	e92d40f8 	push	{r3, r4, r5, r6, r7, lr}
    88bc:	e2517000 	subs	r7, r1, #0
    88c0:	e1a06000 	mov	r6, r0
    88c4:	0a00000d 	beq	8900 <console_read+0x48>
    88c8:	e3a05000 	mov	r5, #0
    88cc:	e1a04005 	mov	r4, r5
    88d0:	ea000003 	b	88e4 <console_read+0x2c>
    88d4:	e2844001 	add	r4, r4, #1
    88d8:	e1540007 	cmp	r4, r7
    88dc:	e1a05004 	mov	r5, r4
    88e0:	0a000004 	beq	88f8 <console_read+0x40>
    88e4:	eb000495 	bl	9b40 <uart_getc_noblock>
    88e8:	e6ef0070 	uxtb	r0, r0
    88ec:	e3500000 	cmp	r0, #0
    88f0:	e7c60005 	strb	r0, [r6, r5]
    88f4:	1afffff6 	bne	88d4 <console_read+0x1c>
    88f8:	e1a00004 	mov	r0, r4
    88fc:	e8bd80f8 	pop	{r3, r4, r5, r6, r7, pc}
    8900:	e1a04007 	mov	r4, r7
    8904:	eafffffb 	b	88f8 <console_read+0x40>

00008908 <dump_framebuffer_info.constprop.0>:
    8908:	e92d41f0 	push	{r4, r5, r6, r7, r8, lr}
    890c:	e59fc048 	ldr	ip, [pc, #72]	; 895c <dump_framebuffer_info.constprop.0+0x54>
    8910:	e24dd020 	sub	sp, sp, #32
    8914:	e89c010e 	ldm	ip, {r1, r2, r3, r8}
    8918:	e59c7010 	ldr	r7, [ip, #16]
    891c:	e59c6014 	ldr	r6, [ip, #20]
    8920:	e59c5018 	ldr	r5, [ip, #24]
    8924:	e59c401c 	ldr	r4, [ip, #28]
    8928:	e59ce020 	ldr	lr, [ip, #32]
    892c:	e59cc024 	ldr	ip, [ip, #36]	; 0x24
    8930:	e59f0028 	ldr	r0, [pc, #40]	; 8960 <dump_framebuffer_info.constprop.0+0x58>
    8934:	e58d8000 	str	r8, [sp]
    8938:	e58d7004 	str	r7, [sp, #4]
    893c:	e58d6008 	str	r6, [sp, #8]
    8940:	e58d500c 	str	r5, [sp, #12]
    8944:	e58d4010 	str	r4, [sp, #16]
    8948:	e58de014 	str	lr, [sp, #20]
    894c:	e58dc018 	str	ip, [sp, #24]
    8950:	eb0003e1 	bl	98dc <printk>
    8954:	e28dd020 	add	sp, sp, #32
    8958:	e8bd81f0 	pop	{r4, r5, r6, r7, r8, pc}
    895c:	00010010 	andeq	r0, r1, r0, lsl r0
    8960:	0000b364 	andeq	fp, r0, r4, ror #6

00008964 <framebuffer_ready>:
    8964:	e59f3004 	ldr	r3, [pc, #4]	; 8970 <framebuffer_ready+0xc>
    8968:	e5930028 	ldr	r0, [r3, #40]	; 0x28
    896c:	e12fff1e 	bx	lr
    8970:	00010010 	andeq	r0, r1, r0, lsl r0

00008974 <framebuffer_init>:
    8974:	e92d4070 	push	{r4, r5, r6, lr}
    8978:	e59f40d0 	ldr	r4, [pc, #208]	; 8a50 <framebuffer_init+0xdc>
    897c:	e1a0c000 	mov	ip, r0
    8980:	e1a03001 	mov	r3, r1
    8984:	e3a05000 	mov	r5, #0
    8988:	e1a01004 	mov	r1, r4
    898c:	e5842014 	str	r2, [r4, #20]
    8990:	e59f00bc 	ldr	r0, [pc, #188]	; 8a54 <framebuffer_init+0xe0>
    8994:	e59f20bc 	ldr	r2, [pc, #188]	; 8a58 <framebuffer_init+0xe4>
    8998:	e584c000 	str	ip, [r4]
    899c:	e9841008 	stmib	r4, {r3, ip}
    89a0:	e584300c 	str	r3, [r4, #12]
    89a4:	e5845010 	str	r5, [r4, #16]
    89a8:	e5845018 	str	r5, [r4, #24]
    89ac:	e584501c 	str	r5, [r4, #28]
    89b0:	e5845020 	str	r5, [r4, #32]
    89b4:	e5845024 	str	r5, [r4, #36]	; 0x24
    89b8:	eb0003c7 	bl	98dc <printk>
    89bc:	e59f0098 	ldr	r0, [pc, #152]	; 8a5c <framebuffer_init+0xe8>
    89c0:	eb0003c5 	bl	98dc <printk>
    89c4:	ebffffcf 	bl	8908 <dump_framebuffer_info.constprop.0>
    89c8:	e2840101 	add	r0, r4, #1073741824	; 0x40000000
    89cc:	e3a01001 	mov	r1, #1
    89d0:	eb0002a2 	bl	9460 <mailbox_write>
    89d4:	e1500005 	cmp	r0, r5
    89d8:	ba000014 	blt	8a30 <framebuffer_init+0xbc>
    89dc:	e3a00001 	mov	r0, #1
    89e0:	eb0002c8 	bl	9508 <mailbox_read>
    89e4:	e1a06000 	mov	r6, r0
    89e8:	e59f0070 	ldr	r0, [pc, #112]	; 8a60 <framebuffer_init+0xec>
    89ec:	eb0003ba 	bl	98dc <printk>
    89f0:	ebffffc4 	bl	8908 <dump_framebuffer_info.constprop.0>
    89f4:	e3760001 	cmn	r6, #1
    89f8:	0a000010 	beq	8a40 <framebuffer_init+0xcc>
    89fc:	e8941040 	ldm	r4, {r6, ip}
    8a00:	e5945020 	ldr	r5, [r4, #32]
    8a04:	e5941010 	ldr	r1, [r4, #16]
    8a08:	e5942014 	ldr	r2, [r4, #20]
    8a0c:	e3a03001 	mov	r3, #1
    8a10:	e584504c 	str	r5, [r4, #76]	; 0x4c
    8a14:	e1a00005 	mov	r0, r5
    8a18:	e584602c 	str	r6, [r4, #44]	; 0x2c
    8a1c:	e584c030 	str	ip, [r4, #48]	; 0x30
    8a20:	e584103c 	str	r1, [r4, #60]	; 0x3c
    8a24:	e5842040 	str	r2, [r4, #64]	; 0x40
    8a28:	e5843028 	str	r3, [r4, #40]	; 0x28
    8a2c:	e8bd8070 	pop	{r4, r5, r6, pc}
    8a30:	e59f002c 	ldr	r0, [pc, #44]	; 8a64 <framebuffer_init+0xf0>
    8a34:	eb0003a8 	bl	98dc <printk>
    8a38:	e1a00005 	mov	r0, r5
    8a3c:	e8bd8070 	pop	{r4, r5, r6, pc}
    8a40:	e59f0020 	ldr	r0, [pc, #32]	; 8a68 <framebuffer_init+0xf4>
    8a44:	eb0003a4 	bl	98dc <printk>
    8a48:	e1a00005 	mov	r0, r5
    8a4c:	e8bd8070 	pop	{r4, r5, r6, pc}
    8a50:	00010010 	andeq	r0, r1, r0, lsl r0
    8a54:	0000b3a8 	andeq	fp, r0, r8, lsr #7
    8a58:	2000b880 	andcs	fp, r0, r0, lsl #17
    8a5c:	0000b3d0 	ldrdeq	fp, [r0], -r0
    8a60:	0000b3f8 	strdeq	fp, [r0], -r8
    8a64:	0000b3e0 	andeq	fp, r0, r0, ror #7
    8a68:	0000b404 	andeq	fp, r0, r4, lsl #8

00008a6c <framebuffer_hline>:
    8a6c:	e92d0070 	push	{r4, r5, r6}
    8a70:	e59f506c 	ldr	r5, [pc, #108]	; 8ae4 <framebuffer_hline+0x78>
    8a74:	e20048ff 	and	r4, r0, #16711680	; 0xff0000
    8a78:	e200ccff 	and	ip, r0, #65280	; 0xff00
    8a7c:	e1510002 	cmp	r1, r2
    8a80:	e1a04844 	asr	r4, r4, #16
    8a84:	e1a0c44c 	asr	ip, ip, #8
    8a88:	e6ef0070 	uxtb	r0, r0
    8a8c:	e5956020 	ldr	r6, [r5, #32]
    8a90:	aa000010 	bge	8ad8 <framebuffer_hline+0x6c>
    8a94:	e595503c 	ldr	r5, [r5, #60]	; 0x3c
    8a98:	e0811081 	add	r1, r1, r1, lsl #1
    8a9c:	e0050395 	mul	r5, r5, r3
    8aa0:	e0822082 	add	r2, r2, r2, lsl #1
    8aa4:	e0811005 	add	r1, r1, r5
    8aa8:	e0855006 	add	r5, r5, r6
    8aac:	e0811006 	add	r1, r1, r6
    8ab0:	e0852002 	add	r2, r5, r2
    8ab4:	e6ef4074 	uxtb	r4, r4
    8ab8:	e6efc07c 	uxtb	ip, ip
    8abc:	e6ef3070 	uxtb	r3, r0
    8ac0:	e5c14000 	strb	r4, [r1]
    8ac4:	e5c1c001 	strb	ip, [r1, #1]
    8ac8:	e5c13002 	strb	r3, [r1, #2]
    8acc:	e2811003 	add	r1, r1, #3
    8ad0:	e1510002 	cmp	r1, r2
    8ad4:	1afffff9 	bne	8ac0 <framebuffer_hline+0x54>
    8ad8:	e3a00000 	mov	r0, #0
    8adc:	e8bd0070 	pop	{r4, r5, r6}
    8ae0:	e12fff1e 	bx	lr
    8ae4:	00010010 	andeq	r0, r1, r0, lsl r0

00008ae8 <framebuffer_vline>:
    8ae8:	e59fc064 	ldr	ip, [pc, #100]	; 8b54 <framebuffer_vline+0x6c>
    8aec:	e92d0070 	push	{r4, r5, r6}
    8af0:	e1510002 	cmp	r1, r2
    8af4:	e20058ff 	and	r5, r0, #16711680	; 0xff0000
    8af8:	e2004cff 	and	r4, r0, #65280	; 0xff00
    8afc:	e1a05845 	asr	r5, r5, #16
    8b00:	e1a04444 	asr	r4, r4, #8
    8b04:	e6ef0070 	uxtb	r0, r0
    8b08:	e59c6020 	ldr	r6, [ip, #32]
    8b0c:	aa00000d 	bge	8b48 <framebuffer_vline+0x60>
    8b10:	e59cc03c 	ldr	ip, [ip, #60]	; 0x3c
    8b14:	e0833083 	add	r3, r3, r3, lsl #1
    8b18:	e023319c 	mla	r3, ip, r1, r3
    8b1c:	e6ef5075 	uxtb	r5, r5
    8b20:	e0833006 	add	r3, r3, r6
    8b24:	e6ef4074 	uxtb	r4, r4
    8b28:	e6ef0070 	uxtb	r0, r0
    8b2c:	e2811001 	add	r1, r1, #1
    8b30:	e1510002 	cmp	r1, r2
    8b34:	e5c35000 	strb	r5, [r3]
    8b38:	e5c34001 	strb	r4, [r3, #1]
    8b3c:	e5c30002 	strb	r0, [r3, #2]
    8b40:	e083300c 	add	r3, r3, ip
    8b44:	1afffff8 	bne	8b2c <framebuffer_vline+0x44>
    8b48:	e3a00000 	mov	r0, #0
    8b4c:	e8bd0070 	pop	{r4, r5, r6}
    8b50:	e12fff1e 	bx	lr
    8b54:	00010010 	andeq	r0, r1, r0, lsl r0

00008b58 <framebuffer_clear_screen>:
    8b58:	e92d40f8 	push	{r3, r4, r5, r6, r7, lr}
    8b5c:	e59f303c 	ldr	r3, [pc, #60]	; 8ba0 <framebuffer_clear_screen+0x48>
    8b60:	e1a06000 	mov	r6, r0
    8b64:	e5935030 	ldr	r5, [r3, #48]	; 0x30
    8b68:	e3550000 	cmp	r5, #0
    8b6c:	da000009 	ble	8b98 <framebuffer_clear_screen+0x40>
    8b70:	e593702c 	ldr	r7, [r3, #44]	; 0x2c
    8b74:	e3a04000 	mov	r4, #0
    8b78:	e1a03004 	mov	r3, r4
    8b7c:	e1a00006 	mov	r0, r6
    8b80:	e3a01000 	mov	r1, #0
    8b84:	e1a02007 	mov	r2, r7
    8b88:	e2844001 	add	r4, r4, #1
    8b8c:	ebffffb6 	bl	8a6c <framebuffer_hline>
    8b90:	e1540005 	cmp	r4, r5
    8b94:	1afffff7 	bne	8b78 <framebuffer_clear_screen+0x20>
    8b98:	e3a00000 	mov	r0, #0
    8b9c:	e8bd80f8 	pop	{r3, r4, r5, r6, r7, pc}
    8ba0:	00010010 	andeq	r0, r1, r0, lsl r0

00008ba4 <framebuffer_putpixel>:
    8ba4:	e59f3030 	ldr	r3, [pc, #48]	; 8bdc <framebuffer_putpixel+0x38>
    8ba8:	e0811081 	add	r1, r1, r1, lsl #1
    8bac:	e593c03c 	ldr	ip, [r3, #60]	; 0x3c
    8bb0:	e5933020 	ldr	r3, [r3, #32]
    8bb4:	e022129c 	mla	r2, ip, r2, r1
    8bb8:	e52d4004 	push	{r4}		; (str r4, [sp, #-4]!)
    8bbc:	e1a04820 	lsr	r4, r0, #16
    8bc0:	e7e34002 	strb	r4, [r3, r2]!
    8bc4:	e1a02420 	lsr	r2, r0, #8
    8bc8:	e5c30002 	strb	r0, [r3, #2]
    8bcc:	e5c32001 	strb	r2, [r3, #1]
    8bd0:	e3a00000 	mov	r0, #0
    8bd4:	e49d4004 	pop	{r4}		; (ldr r4, [sp], #4)
    8bd8:	e12fff1e 	bx	lr
    8bdc:	00010010 	andeq	r0, r1, r0, lsl r0

00008be0 <framebuffer_gradient>:
    8be0:	e3a00000 	mov	r0, #0
    8be4:	e12fff1e 	bx	lr

00008be8 <framebuffer_console_setfont>:
    8be8:	e92d4008 	push	{r3, lr}
    8bec:	e59f3024 	ldr	r3, [pc, #36]	; 8c18 <framebuffer_console_setfont+0x30>
    8bf0:	e59f2024 	ldr	r2, [pc, #36]	; 8c1c <framebuffer_console_setfont+0x34>
    8bf4:	e283c004 	add	ip, r3, #4
    8bf8:	e3a01010 	mov	r1, #16
    8bfc:	e59f001c 	ldr	r0, [pc, #28]	; 8c20 <framebuffer_console_setfont+0x38>
    8c00:	e583c000 	str	ip, [r3]
    8c04:	e5021ff4 	str	r1, [r2, #-4084]	; 0xff4
    8c08:	eb000333 	bl	98dc <printk>
    8c0c:	e8bd4008 	pop	{r3, lr}
    8c10:	e3a00000 	mov	r0, #0
    8c14:	eaffffcf 	b	8b58 <framebuffer_clear_screen>
    8c18:	0000c008 	andeq	ip, r0, r8
    8c1c:	0000e000 	andeq	lr, r0, r0
    8c20:	0000b41c 	andeq	fp, r0, ip, lsl r4

00008c24 <framebuffer_console_clear>:
    8c24:	e92d4070 	push	{r4, r5, r6, lr}
    8c28:	e59f5048 	ldr	r5, [pc, #72]	; 8c78 <framebuffer_console_clear+0x54>
    8c2c:	e3a00000 	mov	r0, #0
    8c30:	ebffffc8 	bl	8b58 <framebuffer_clear_screen>
    8c34:	e3a04000 	mov	r4, #0
    8c38:	e2856eaf 	add	r6, r5, #2800	; 0xaf0
    8c3c:	e3a0c020 	mov	ip, #32
    8c40:	e3a00007 	mov	r0, #7
    8c44:	e3a03000 	mov	r3, #0
    8c48:	e0851004 	add	r1, r5, r4
    8c4c:	e0862004 	add	r2, r6, r4
    8c50:	e7c1c003 	strb	ip, [r1, r3]
    8c54:	e7c20003 	strb	r0, [r2, r3]
    8c58:	e2833001 	add	r3, r3, #1
    8c5c:	e3530050 	cmp	r3, #80	; 0x50
    8c60:	1afffffa 	bne	8c50 <framebuffer_console_clear+0x2c>
    8c64:	e2844050 	add	r4, r4, #80	; 0x50
    8c68:	e3540eaf 	cmp	r4, #2800	; 0xaf0
    8c6c:	1afffff4 	bne	8c44 <framebuffer_console_clear+0x20>
    8c70:	e3a00000 	mov	r0, #0
    8c74:	e8bd8070 	pop	{r4, r5, r6, pc}
    8c78:	00010070 	andeq	r0, r1, r0, ror r0

00008c7c <framebuffer_console_home>:
    8c7c:	e59f300c 	ldr	r3, [pc, #12]	; 8c90 <framebuffer_console_home+0x14>
    8c80:	e3a00000 	mov	r0, #0
    8c84:	e5030a18 	str	r0, [r3, #-2584]	; 0xa18
    8c88:	e5030a14 	str	r0, [r3, #-2580]	; 0xa14
    8c8c:	e12fff1e 	bx	lr
    8c90:	00012068 	andeq	r2, r1, r8, rrx

00008c94 <framebuffer_console_init>:
    8c94:	e92d4008 	push	{r3, lr}
    8c98:	ebffffe1 	bl	8c24 <framebuffer_console_clear>
    8c9c:	e59f300c 	ldr	r3, [pc, #12]	; 8cb0 <framebuffer_console_init+0x1c>
    8ca0:	e3a00000 	mov	r0, #0
    8ca4:	e5030a18 	str	r0, [r3, #-2584]	; 0xa18
    8ca8:	e5030a14 	str	r0, [r3, #-2580]	; 0xa14
    8cac:	e8bd8008 	pop	{r3, pc}
    8cb0:	00012068 	andeq	r2, r1, r8, rrx

00008cb4 <framebuffer_console_push>:
    8cb4:	e92d4008 	push	{r3, lr}
    8cb8:	ebffff29 	bl	8964 <framebuffer_ready>
    8cbc:	e3500000 	cmp	r0, #0
    8cc0:	13a00000 	movne	r0, #0
    8cc4:	03e00000 	mvneq	r0, #0
    8cc8:	e8bd8008 	pop	{r3, pc}

00008ccc <framebuffer_console_write>:
    8ccc:	e92d4ff0 	push	{r4, r5, r6, r7, r8, r9, sl, fp, lr}
    8cd0:	e251b000 	subs	fp, r1, #0
    8cd4:	e24dd024 	sub	sp, sp, #36	; 0x24
    8cd8:	e1a0a000 	mov	sl, r0
    8cdc:	da000041 	ble	8de8 <framebuffer_console_write+0x11c>
    8ce0:	e59f62c4 	ldr	r6, [pc, #708]	; 8fac <framebuffer_console_write+0x2e0>
    8ce4:	e59f82c4 	ldr	r8, [pc, #708]	; 8fb0 <framebuffer_console_write+0x2e4>
    8ce8:	e59f42c4 	ldr	r4, [pc, #708]	; 8fb4 <framebuffer_console_write+0x2e8>
    8cec:	e59f72c4 	ldr	r7, [pc, #708]	; 8fb8 <framebuffer_console_write+0x2ec>
    8cf0:	e1a09006 	mov	r9, r6
    8cf4:	e3a05000 	mov	r5, #0
    8cf8:	ea000002 	b	8d08 <framebuffer_console_write+0x3c>
    8cfc:	e2855001 	add	r5, r5, #1
    8d00:	e15b0005 	cmp	fp, r5
    8d04:	da000037 	ble	8de8 <framebuffer_console_write+0x11c>
    8d08:	e7da3005 	ldrb	r3, [sl, r5]
    8d0c:	e353000d 	cmp	r3, #13
    8d10:	0a000038 	beq	8df8 <framebuffer_console_write+0x12c>
    8d14:	e353000a 	cmp	r3, #10
    8d18:	0a00003b 	beq	8e0c <framebuffer_console_write+0x140>
    8d1c:	e3530009 	cmp	r3, #9
    8d20:	0a00003f 	beq	8e24 <framebuffer_console_write+0x158>
    8d24:	e3530008 	cmp	r3, #8
    8d28:	0a000043 	beq	8e3c <framebuffer_console_write+0x170>
    8d2c:	e353001b 	cmp	r3, #27
    8d30:	0a000048 	beq	8e58 <framebuffer_console_write+0x18c>
    8d34:	e5160a14 	ldr	r0, [r6, #-2580]	; 0xa14
    8d38:	e5162a18 	ldr	r2, [r6, #-2584]	; 0xa18
    8d3c:	e080e100 	add	lr, r0, r0, lsl #2
    8d40:	e082e20e 	add	lr, r2, lr, lsl #4
    8d44:	e1a01008 	mov	r1, r8
    8d48:	e517cff0 	ldr	ip, [r7, #-4080]	; 0xff0
    8d4c:	e7e1300e 	strb	r3, [r1, lr]!
    8d50:	e516ea10 	ldr	lr, [r6, #-2576]	; 0xa10
    8d54:	e20cc00f 	and	ip, ip, #15
    8d58:	e2822001 	add	r2, r2, #1
    8d5c:	e18cc20e 	orr	ip, ip, lr, lsl #4
    8d60:	e1a03000 	mov	r3, r0
    8d64:	e5062a18 	str	r2, [r6, #-2584]	; 0xa18
    8d68:	e5c1caf0 	strb	ip, [r1, #2800]	; 0xaf0
    8d6c:	e352004f 	cmp	r2, #79	; 0x4f
    8d70:	c2833001 	addgt	r3, r3, #1
    8d74:	c3a02000 	movgt	r2, #0
    8d78:	c5063a14 	strgt	r3, [r6, #-2580]	; 0xa14
    8d7c:	c5062a18 	strgt	r2, [r6, #-2584]	; 0xa18
    8d80:	e3530022 	cmp	r3, #34	; 0x22
    8d84:	daffffdc 	ble	8cfc <framebuffer_console_write+0x30>
    8d88:	e3a00000 	mov	r0, #0
    8d8c:	ebffff71 	bl	8b58 <framebuffer_clear_screen>
    8d90:	e59f0218 	ldr	r0, [pc, #536]	; 8fb0 <framebuffer_console_write+0x2e4>
    8d94:	e3a02eaa 	mov	r2, #2720	; 0xaa0
    8d98:	e2801050 	add	r1, r0, #80	; 0x50
    8d9c:	eb0003be 	bl	9c9c <memcpy>
    8da0:	e59f0214 	ldr	r0, [pc, #532]	; 8fbc <framebuffer_console_write+0x2f0>
    8da4:	e3a02eaa 	mov	r2, #2720	; 0xaa0
    8da8:	e2801050 	add	r1, r0, #80	; 0x50
    8dac:	eb0003ba 	bl	9c9c <memcpy>
    8db0:	e59f3208 	ldr	r3, [pc, #520]	; 8fc0 <framebuffer_console_write+0x2f4>
    8db4:	e3a00020 	mov	r0, #32
    8db8:	e2832eaf 	add	r2, r3, #2800	; 0xaf0
    8dbc:	e3a01007 	mov	r1, #7
    8dc0:	e5e30001 	strb	r0, [r3, #1]!
    8dc4:	e1530004 	cmp	r3, r4
    8dc8:	e5e21001 	strb	r1, [r2, #1]!
    8dcc:	1afffffb 	bne	8dc0 <framebuffer_console_write+0xf4>
    8dd0:	e5163a14 	ldr	r3, [r6, #-2580]	; 0xa14
    8dd4:	e2855001 	add	r5, r5, #1
    8dd8:	e2433001 	sub	r3, r3, #1
    8ddc:	e15b0005 	cmp	fp, r5
    8de0:	e5063a14 	str	r3, [r6, #-2580]	; 0xa14
    8de4:	caffffc7 	bgt	8d08 <framebuffer_console_write+0x3c>
    8de8:	ebfffedd 	bl	8964 <framebuffer_ready>
    8dec:	e3a00000 	mov	r0, #0
    8df0:	e28dd024 	add	sp, sp, #36	; 0x24
    8df4:	e8bd8ff0 	pop	{r4, r5, r6, r7, r8, r9, sl, fp, pc}
    8df8:	e5163a14 	ldr	r3, [r6, #-2580]	; 0xa14
    8dfc:	e5162a18 	ldr	r2, [r6, #-2584]	; 0xa18
    8e00:	e2833001 	add	r3, r3, #1
    8e04:	e5063a14 	str	r3, [r6, #-2580]	; 0xa14
    8e08:	eaffffd7 	b	8d6c <framebuffer_console_write+0xa0>
    8e0c:	e5163a14 	ldr	r3, [r6, #-2580]	; 0xa14
    8e10:	e3a02000 	mov	r2, #0
    8e14:	e2833001 	add	r3, r3, #1
    8e18:	e5063a14 	str	r3, [r6, #-2580]	; 0xa14
    8e1c:	e5062a18 	str	r2, [r6, #-2584]	; 0xa18
    8e20:	eaffffd6 	b	8d80 <framebuffer_console_write+0xb4>
    8e24:	e5162a18 	ldr	r2, [r6, #-2584]	; 0xa18
    8e28:	e5163a14 	ldr	r3, [r6, #-2580]	; 0xa14
    8e2c:	e2822008 	add	r2, r2, #8
    8e30:	e3c22007 	bic	r2, r2, #7
    8e34:	e5062a18 	str	r2, [r6, #-2584]	; 0xa18
    8e38:	eaffffcb 	b	8d6c <framebuffer_console_write+0xa0>
    8e3c:	e5162a18 	ldr	r2, [r6, #-2584]	; 0xa18
    8e40:	e2422001 	sub	r2, r2, #1
    8e44:	e3520000 	cmp	r2, #0
    8e48:	e5062a18 	str	r2, [r6, #-2584]	; 0xa18
    8e4c:	ba000009 	blt	8e78 <framebuffer_console_write+0x1ac>
    8e50:	e5193a14 	ldr	r3, [r9, #-2580]	; 0xa14
    8e54:	eaffffc4 	b	8d6c <framebuffer_console_write+0xa0>
    8e58:	e2853001 	add	r3, r5, #1
    8e5c:	e7da2003 	ldrb	r2, [sl, r3]
    8e60:	e352005b 	cmp	r2, #91	; 0x5b
    8e64:	0a000007 	beq	8e88 <framebuffer_console_write+0x1bc>
    8e68:	e1a05003 	mov	r5, r3
    8e6c:	e5162a18 	ldr	r2, [r6, #-2584]	; 0xa18
    8e70:	e5163a14 	ldr	r3, [r6, #-2580]	; 0xa14
    8e74:	eaffffbc 	b	8d6c <framebuffer_console_write+0xa0>
    8e78:	e3a03000 	mov	r3, #0
    8e7c:	e5093a18 	str	r3, [r9, #-2584]	; 0xa18
    8e80:	e5193a14 	ldr	r3, [r9, #-2580]	; 0xa14
    8e84:	eaffffbd 	b	8d80 <framebuffer_console_write+0xb4>
    8e88:	e2855002 	add	r5, r5, #2
    8e8c:	e7da2005 	ldrb	r2, [sl, r5]
    8e90:	e3c23020 	bic	r3, r2, #32
    8e94:	e2433041 	sub	r3, r3, #65	; 0x41
    8e98:	e6ef3073 	uxtb	r3, r3
    8e9c:	e3530019 	cmp	r3, #25
    8ea0:	83a03000 	movhi	r3, #0
    8ea4:	828d000c 	addhi	r0, sp, #12
    8ea8:	9a000036 	bls	8f88 <framebuffer_console_write+0x2bc>
    8eac:	e2855001 	add	r5, r5, #1
    8eb0:	e7c02003 	strb	r2, [r0, r3]
    8eb4:	e7da2005 	ldrb	r2, [sl, r5]
    8eb8:	e2833001 	add	r3, r3, #1
    8ebc:	e3c21020 	bic	r1, r2, #32
    8ec0:	e2411041 	sub	r1, r1, #65	; 0x41
    8ec4:	e6ef1071 	uxtb	r1, r1
    8ec8:	e3510019 	cmp	r1, #25
    8ecc:	8afffff6 	bhi	8eac <framebuffer_console_write+0x1e0>
    8ed0:	e2830001 	add	r0, r3, #1
    8ed4:	e28d1020 	add	r1, sp, #32
    8ed8:	e0813003 	add	r3, r1, r3
    8edc:	e0810000 	add	r0, r1, r0
    8ee0:	e3a01000 	mov	r1, #0
    8ee4:	e5432014 	strb	r2, [r3, #-20]
    8ee8:	e5401014 	strb	r1, [r0, #-20]
    8eec:	e5533014 	ldrb	r3, [r3, #-20]
    8ef0:	e353004a 	cmp	r3, #74	; 0x4a
    8ef4:	0a000026 	beq	8f94 <framebuffer_console_write+0x2c8>
    8ef8:	e353006d 	cmp	r3, #109	; 0x6d
    8efc:	0a000002 	beq	8f0c <framebuffer_console_write+0x240>
    8f00:	e5162a18 	ldr	r2, [r6, #-2584]	; 0xa18
    8f04:	e5163a14 	ldr	r3, [r6, #-2580]	; 0xa14
    8f08:	eaffff97 	b	8d6c <framebuffer_console_write+0xa0>
    8f0c:	e5dd300c 	ldrb	r3, [sp, #12]
    8f10:	e3530000 	cmp	r3, #0
    8f14:	0afffff9 	beq	8f00 <framebuffer_console_write+0x234>
    8f18:	e5170ff0 	ldr	r0, [r7, #-4080]	; 0xff0
    8f1c:	e5162a10 	ldr	r2, [r6, #-2576]	; 0xa10
    8f20:	e28dc00c 	add	ip, sp, #12
    8f24:	ea00000d 	b	8f60 <framebuffer_console_write+0x294>
    8f28:	e3510000 	cmp	r1, #0
    8f2c:	01a02001 	moveq	r2, r1
    8f30:	03a00007 	moveq	r0, #7
    8f34:	0a000006 	beq	8f54 <framebuffer_console_write+0x288>
    8f38:	e241301e 	sub	r3, r1, #30
    8f3c:	e3530007 	cmp	r3, #7
    8f40:	e2411028 	sub	r1, r1, #40	; 0x28
    8f44:	91a00003 	movls	r0, r3
    8f48:	e3510007 	cmp	r1, #7
    8f4c:	91a02001 	movls	r2, r1
    8f50:	e3a01000 	mov	r1, #0
    8f54:	e5fc3001 	ldrb	r3, [ip, #1]!
    8f58:	e3530000 	cmp	r3, #0
    8f5c:	0a000006 	beq	8f7c <framebuffer_console_write+0x2b0>
    8f60:	e353003b 	cmp	r3, #59	; 0x3b
    8f64:	1353006d 	cmpne	r3, #109	; 0x6d
    8f68:	0affffee 	beq	8f28 <framebuffer_console_write+0x25c>
    8f6c:	e0811101 	add	r1, r1, r1, lsl #2
    8f70:	e2433030 	sub	r3, r3, #48	; 0x30
    8f74:	e0831081 	add	r1, r3, r1, lsl #1
    8f78:	eafffff5 	b	8f54 <framebuffer_console_write+0x288>
    8f7c:	e5070ff0 	str	r0, [r7, #-4080]	; 0xff0
    8f80:	e5062a10 	str	r2, [r6, #-2576]	; 0xa10
    8f84:	eaffffdd 	b	8f00 <framebuffer_console_write+0x234>
    8f88:	e3a00001 	mov	r0, #1
    8f8c:	e3a03000 	mov	r3, #0
    8f90:	eaffffcf 	b	8ed4 <framebuffer_console_write+0x208>
    8f94:	e58d1004 	str	r1, [sp, #4]
    8f98:	ebffff21 	bl	8c24 <framebuffer_console_clear>
    8f9c:	e59d1004 	ldr	r1, [sp, #4]
    8fa0:	e5061a18 	str	r1, [r6, #-2584]	; 0xa18
    8fa4:	e5061a14 	str	r1, [r6, #-2580]	; 0xa14
    8fa8:	eaffff53 	b	8cfc <framebuffer_console_write+0x30>
    8fac:	00012068 	andeq	r2, r1, r8, rrx
    8fb0:	00010070 	andeq	r0, r1, r0, ror r0
    8fb4:	00010b5f 	andeq	r0, r1, pc, asr fp
    8fb8:	0000e000 	andeq	lr, r0, r0
    8fbc:	00010b60 	andeq	r0, r1, r0, ror #22
    8fc0:	00010b0f 	andeq	r0, r1, pc, lsl #22

00008fc4 <framebuffer_console_val>:
    8fc4:	e350004f 	cmp	r0, #79	; 0x4f
    8fc8:	ca000006 	bgt	8fe8 <framebuffer_console_val+0x24>
    8fcc:	e3510022 	cmp	r1, #34	; 0x22
    8fd0:	ca000004 	bgt	8fe8 <framebuffer_console_val+0x24>
    8fd4:	e0811101 	add	r1, r1, r1, lsl #2
    8fd8:	e59f3010 	ldr	r3, [pc, #16]	; 8ff0 <framebuffer_console_val+0x2c>
    8fdc:	e0800201 	add	r0, r0, r1, lsl #4
    8fe0:	e7d30000 	ldrb	r0, [r3, r0]
    8fe4:	e12fff1e 	bx	lr
    8fe8:	e3e00000 	mvn	r0, #0
    8fec:	e12fff1e 	bx	lr
    8ff0:	00010070 	andeq	r0, r1, r0, ror r0

00008ff4 <framebuffer_console_putchar>:
    8ff4:	e3a00000 	mov	r0, #0
    8ff8:	e12fff1e 	bx	lr

00008ffc <gpio_request>:
    8ffc:	e3500036 	cmp	r0, #54	; 0x36
    9000:	e92d41f0 	push	{r4, r5, r6, r7, r8, lr}
    9004:	e1a08001 	mov	r8, r1
    9008:	ca00001a 	bgt	9078 <gpio_request+0x7c>
    900c:	e59fc08c 	ldr	ip, [pc, #140]	; 90a0 <gpio_request+0xa4>
    9010:	e2601020 	rsb	r1, r0, #32
    9014:	e1cc40d0 	ldrd	r4, [ip]
    9018:	e1a02034 	lsr	r2, r4, r0
    901c:	e1822115 	orr	r2, r2, r5, lsl r1
    9020:	e240e020 	sub	lr, r0, #32
    9024:	e1822e35 	orr	r2, r2, r5, lsr lr
    9028:	e1a03035 	lsr	r3, r5, r0
    902c:	e3a06001 	mov	r6, #1
    9030:	e3a07000 	mov	r7, #0
    9034:	e0022006 	and	r2, r2, r6
    9038:	e0033007 	and	r3, r3, r7
    903c:	e1926003 	orrs	r6, r2, r3
    9040:	1a000011 	bne	908c <gpio_request+0x90>
    9044:	e3a03001 	mov	r3, #1
    9048:	e1a07e13 	lsl	r7, r3, lr
    904c:	e1a06013 	lsl	r6, r3, r0
    9050:	e1877133 	orr	r7, r7, r3, lsr r1
    9054:	e1a02008 	mov	r2, r8
    9058:	e1a01000 	mov	r1, r0
    905c:	e1844006 	orr	r4, r4, r6
    9060:	e1855007 	orr	r5, r5, r7
    9064:	e59f0038 	ldr	r0, [pc, #56]	; 90a4 <gpio_request+0xa8>
    9068:	e1cc40f0 	strd	r4, [ip]
    906c:	eb00021a 	bl	98dc <printk>
    9070:	e3a00000 	mov	r0, #0
    9074:	e8bd81f0 	pop	{r4, r5, r6, r7, r8, pc}
    9078:	e1a01000 	mov	r1, r0
    907c:	e59f0024 	ldr	r0, [pc, #36]	; 90a8 <gpio_request+0xac>
    9080:	eb000215 	bl	98dc <printk>
    9084:	e3e00000 	mvn	r0, #0
    9088:	e8bd81f0 	pop	{r4, r5, r6, r7, r8, pc}
    908c:	e1a01000 	mov	r1, r0
    9090:	e59f0014 	ldr	r0, [pc, #20]	; 90ac <gpio_request+0xb0>
    9094:	eb000210 	bl	98dc <printk>
    9098:	e3e00000 	mvn	r0, #0
    909c:	e8bd81f0 	pop	{r4, r5, r6, r7, r8, pc}
    90a0:	00011660 	andeq	r1, r1, r0, ror #12
    90a4:	0000b458 	andeq	fp, r0, r8, asr r4
    90a8:	0000b430 	andeq	fp, r0, r0, lsr r4
    90ac:	0000b440 	andeq	fp, r0, r0, asr #8

000090b0 <gpio_free>:
    90b0:	e3500036 	cmp	r0, #54	; 0x36
    90b4:	e92d4038 	push	{r3, r4, r5, lr}
    90b8:	ca00000f 	bgt	90fc <gpio_free+0x4c>
    90bc:	e3a01001 	mov	r1, #1
    90c0:	e240c020 	sub	ip, r0, #32
    90c4:	e1a03c11 	lsl	r3, r1, ip
    90c8:	e260c020 	rsb	ip, r0, #32
    90cc:	e1833c31 	orr	r3, r3, r1, lsr ip
    90d0:	e1a02011 	lsl	r2, r1, r0
    90d4:	e59fc034 	ldr	ip, [pc, #52]	; 9110 <gpio_free+0x60>
    90d8:	e1a01000 	mov	r1, r0
    90dc:	e1cc40d0 	ldrd	r4, [ip]
    90e0:	e59f002c 	ldr	r0, [pc, #44]	; 9114 <gpio_free+0x64>
    90e4:	e1c42002 	bic	r2, r4, r2
    90e8:	e1c53003 	bic	r3, r5, r3
    90ec:	e1cc20f0 	strd	r2, [ip]
    90f0:	eb0001f9 	bl	98dc <printk>
    90f4:	e3a00000 	mov	r0, #0
    90f8:	e8bd8038 	pop	{r3, r4, r5, pc}
    90fc:	e1a01000 	mov	r1, r0
    9100:	e59f0010 	ldr	r0, [pc, #16]	; 9118 <gpio_free+0x68>
    9104:	eb0001f4 	bl	98dc <printk>
    9108:	e3e00000 	mvn	r0, #0
    910c:	e8bd8038 	pop	{r3, r4, r5, pc}
    9110:	00011660 	andeq	r1, r1, r0, ror #12
    9114:	0000b474 	andeq	fp, r0, r4, ror r4
    9118:	0000b430 	andeq	fp, r0, r0, lsr r4

0000911c <gpio_direction_input>:
    911c:	e3500036 	cmp	r0, #54	; 0x36
    9120:	e92d4010 	push	{r4, lr}
    9124:	ca000011 	bgt	9170 <gpio_direction_input+0x54>
    9128:	e59f3054 	ldr	r3, [pc, #84]	; 9184 <gpio_direction_input+0x68>
    912c:	e1a02fc0 	asr	r2, r0, #31
    9130:	e0c31093 	smull	r1, r3, r3, r0
    9134:	e0623143 	rsb	r3, r2, r3, asr #2
    9138:	e1a03103 	lsl	r3, r3, #2
    913c:	e2833202 	add	r3, r3, #536870912	; 0x20000000
    9140:	e2833602 	add	r3, r3, #2097152	; 0x200000
    9144:	e5931000 	ldr	r1, [r3]
    9148:	e59f2034 	ldr	r2, [pc, #52]	; 9184 <gpio_direction_input+0x68>
    914c:	e1a0cfc0 	asr	ip, r0, #31
    9150:	e0c24092 	smull	r4, r2, r2, r0
    9154:	e06c2142 	rsb	r2, ip, r2, asr #2
    9158:	e0822102 	add	r2, r2, r2, lsl #2
    915c:	e0400082 	sub	r0, r0, r2, lsl #1
    9160:	e1c10180 	bic	r0, r1, r0, lsl #3
    9164:	e5830000 	str	r0, [r3]
    9168:	e3a00000 	mov	r0, #0
    916c:	e8bd8010 	pop	{r4, pc}
    9170:	e1a01000 	mov	r1, r0
    9174:	e59f000c 	ldr	r0, [pc, #12]	; 9188 <gpio_direction_input+0x6c>
    9178:	eb0001d7 	bl	98dc <printk>
    917c:	e3e00000 	mvn	r0, #0
    9180:	e8bd8010 	pop	{r4, pc}
    9184:	66666667 	strbtvs	r6, [r6], -r7, ror #12
    9188:	0000b430 	andeq	fp, r0, r0, lsr r4

0000918c <gpio_direction_output>:
    918c:	e3500036 	cmp	r0, #54	; 0x36
    9190:	e92d4010 	push	{r4, lr}
    9194:	ca000011 	bgt	91e0 <gpio_direction_output+0x54>
    9198:	e59f3054 	ldr	r3, [pc, #84]	; 91f4 <gpio_direction_output+0x68>
    919c:	e1a02fc0 	asr	r2, r0, #31
    91a0:	e0c31093 	smull	r1, r3, r3, r0
    91a4:	e0623143 	rsb	r3, r2, r3, asr #2
    91a8:	e1a03103 	lsl	r3, r3, #2
    91ac:	e2833202 	add	r3, r3, #536870912	; 0x20000000
    91b0:	e2833602 	add	r3, r3, #2097152	; 0x200000
    91b4:	e5931000 	ldr	r1, [r3]
    91b8:	e59f2034 	ldr	r2, [pc, #52]	; 91f4 <gpio_direction_output+0x68>
    91bc:	e1a0cfc0 	asr	ip, r0, #31
    91c0:	e0c24092 	smull	r4, r2, r2, r0
    91c4:	e06c2142 	rsb	r2, ip, r2, asr #2
    91c8:	e0822102 	add	r2, r2, r2, lsl #2
    91cc:	e0400082 	sub	r0, r0, r2, lsl #1
    91d0:	e1810180 	orr	r0, r1, r0, lsl #3
    91d4:	e5830000 	str	r0, [r3]
    91d8:	e3a00000 	mov	r0, #0
    91dc:	e8bd8010 	pop	{r4, pc}
    91e0:	e1a01000 	mov	r1, r0
    91e4:	e59f000c 	ldr	r0, [pc, #12]	; 91f8 <gpio_direction_output+0x6c>
    91e8:	eb0001bb 	bl	98dc <printk>
    91ec:	e3e00000 	mvn	r0, #0
    91f0:	e8bd8010 	pop	{r4, pc}
    91f4:	66666667 	strbtvs	r6, [r6], -r7, ror #12
    91f8:	0000b430 	andeq	fp, r0, r0, lsr r4

000091fc <gpio_to_irq>:
    91fc:	e3a00031 	mov	r0, #49	; 0x31
    9200:	e12fff1e 	bx	lr

00009204 <gpio_get_value>:
    9204:	e3500036 	cmp	r0, #54	; 0x36
    9208:	e92d4008 	push	{r3, lr}
    920c:	ca00000d 	bgt	9248 <gpio_get_value+0x44>
    9210:	e3500000 	cmp	r0, #0
    9214:	e280201f 	add	r2, r0, #31
    9218:	a1a02000 	movge	r2, r0
    921c:	e1a022c2 	asr	r2, r2, #5
    9220:	e59f3034 	ldr	r3, [pc, #52]	; 925c <gpio_get_value+0x58>
    9224:	e1a02102 	lsl	r2, r2, #2
    9228:	e0823003 	add	r3, r2, r3
    922c:	e5933000 	ldr	r3, [r3]
    9230:	e3a02001 	mov	r2, #1
    9234:	e200001f 	and	r0, r0, #31
    9238:	e0132012 	ands	r2, r3, r2, lsl r0
    923c:	03a00000 	moveq	r0, #0
    9240:	13a00001 	movne	r0, #1
    9244:	e8bd8008 	pop	{r3, pc}
    9248:	e1a01000 	mov	r1, r0
    924c:	e59f000c 	ldr	r0, [pc, #12]	; 9260 <gpio_get_value+0x5c>
    9250:	eb0001a1 	bl	98dc <printk>
    9254:	e3e00000 	mvn	r0, #0
    9258:	e8bd8008 	pop	{r3, pc}
    925c:	20200034 	eorcs	r0, r0, r4, lsr r0
    9260:	0000b484 	andeq	fp, r0, r4, lsl #9

00009264 <gpio_set_value>:
    9264:	e3500036 	cmp	r0, #54	; 0x36
    9268:	e92d4008 	push	{r3, lr}
    926c:	ca000019 	bgt	92d8 <gpio_set_value+0x74>
    9270:	e3500000 	cmp	r0, #0
    9274:	e280c01f 	add	ip, r0, #31
    9278:	a1a0c000 	movge	ip, r0
    927c:	e1a0c2cc 	asr	ip, ip, #5
    9280:	e200001f 	and	r0, r0, #31
    9284:	e3a02001 	mov	r2, #1
    9288:	e3510000 	cmp	r1, #0
    928c:	e1a0c10c 	lsl	ip, ip, #2
    9290:	e1a00012 	lsl	r0, r2, r0
    9294:	0a00000a 	beq	92c4 <gpio_set_value+0x60>
    9298:	e3510001 	cmp	r1, #1
    929c:	0a000003 	beq	92b0 <gpio_set_value+0x4c>
    92a0:	e59f0044 	ldr	r0, [pc, #68]	; 92ec <gpio_set_value+0x88>
    92a4:	eb00018c 	bl	98dc <printk>
    92a8:	e3a00000 	mov	r0, #0
    92ac:	e8bd8008 	pop	{r3, pc}
    92b0:	e59f3038 	ldr	r3, [pc, #56]	; 92f0 <gpio_set_value+0x8c>
    92b4:	e08c3003 	add	r3, ip, r3
    92b8:	e5830000 	str	r0, [r3]
    92bc:	e3a00000 	mov	r0, #0
    92c0:	e8bd8008 	pop	{r3, pc}
    92c4:	e59f3028 	ldr	r3, [pc, #40]	; 92f4 <gpio_set_value+0x90>
    92c8:	e08c3003 	add	r3, ip, r3
    92cc:	e5830000 	str	r0, [r3]
    92d0:	e3a00000 	mov	r0, #0
    92d4:	e8bd8008 	pop	{r3, pc}
    92d8:	e1a01000 	mov	r1, r0
    92dc:	e59f0014 	ldr	r0, [pc, #20]	; 92f8 <gpio_set_value+0x94>
    92e0:	eb00017d 	bl	98dc <printk>
    92e4:	e3e00000 	mvn	r0, #0
    92e8:	e8bd8008 	pop	{r3, pc}
    92ec:	0000b494 	muleq	r0, r4, r4
    92f0:	20200028 	eorcs	r0, r0, r8, lsr #32
    92f4:	2020001c 	eorcs	r0, r0, ip, lsl r0
    92f8:	0000b484 	andeq	fp, r0, r4, lsl #9

000092fc <gpio_set_falling>:
    92fc:	e3500036 	cmp	r0, #54	; 0x36
    9300:	e92d4008 	push	{r3, lr}
    9304:	ca00000d 	bgt	9340 <gpio_set_falling+0x44>
    9308:	e3500000 	cmp	r0, #0
    930c:	e280201f 	add	r2, r0, #31
    9310:	a1a02000 	movge	r2, r0
    9314:	e1a022c2 	asr	r2, r2, #5
    9318:	e59f3034 	ldr	r3, [pc, #52]	; 9354 <gpio_set_falling+0x58>
    931c:	e1a02102 	lsl	r2, r2, #2
    9320:	e0823003 	add	r3, r2, r3
    9324:	e5932000 	ldr	r2, [r3]
    9328:	e3a01001 	mov	r1, #1
    932c:	e200001f 	and	r0, r0, #31
    9330:	e1820011 	orr	r0, r2, r1, lsl r0
    9334:	e5830000 	str	r0, [r3]
    9338:	e3a00000 	mov	r0, #0
    933c:	e8bd8008 	pop	{r3, pc}
    9340:	e1a01000 	mov	r1, r0
    9344:	e59f000c 	ldr	r0, [pc, #12]	; 9358 <gpio_set_falling+0x5c>
    9348:	eb000163 	bl	98dc <printk>
    934c:	e3e00000 	mvn	r0, #0
    9350:	e8bd8008 	pop	{r3, pc}
    9354:	20200058 	eorcs	r0, r0, r8, asr r0
    9358:	0000b484 	andeq	fp, r0, r4, lsl #9

0000935c <gpio_clear_interrupt>:
    935c:	e3500036 	cmp	r0, #54	; 0x36
    9360:	e92d4008 	push	{r3, lr}
    9364:	ca00000c 	bgt	939c <gpio_clear_interrupt+0x40>
    9368:	e3500000 	cmp	r0, #0
    936c:	e280101f 	add	r1, r0, #31
    9370:	a1a01000 	movge	r1, r0
    9374:	e1a012c1 	asr	r1, r1, #5
    9378:	e59f3030 	ldr	r3, [pc, #48]	; 93b0 <gpio_clear_interrupt+0x54>
    937c:	e1a01101 	lsl	r1, r1, #2
    9380:	e3a02001 	mov	r2, #1
    9384:	e200001f 	and	r0, r0, #31
    9388:	e0813003 	add	r3, r1, r3
    938c:	e1a00012 	lsl	r0, r2, r0
    9390:	e5830000 	str	r0, [r3]
    9394:	e3a00000 	mov	r0, #0
    9398:	e8bd8008 	pop	{r3, pc}
    939c:	e1a01000 	mov	r1, r0
    93a0:	e59f000c 	ldr	r0, [pc, #12]	; 93b4 <gpio_clear_interrupt+0x58>
    93a4:	eb00014c 	bl	98dc <printk>
    93a8:	e3e00000 	mvn	r0, #0
    93ac:	e8bd8008 	pop	{r3, pc}
    93b0:	20200040 	eorcs	r0, r0, r0, asr #32
    93b4:	0000b484 	andeq	fp, r0, r4, lsl #9

000093b8 <led_init>:
    93b8:	e59f3044 	ldr	r3, [pc, #68]	; 9404 <led_init+0x4c>
    93bc:	e92d4010 	push	{r4, lr}
    93c0:	e5933000 	ldr	r3, [r3]
    93c4:	e59f403c 	ldr	r4, [pc, #60]	; 9408 <led_init+0x50>
    93c8:	e2433003 	sub	r3, r3, #3
    93cc:	e3530001 	cmp	r3, #1
    93d0:	93a0002f 	movls	r0, #47	; 0x2f
    93d4:	93a03000 	movls	r3, #0
    93d8:	85940000 	ldrhi	r0, [r4]
    93dc:	e59f1028 	ldr	r1, [pc, #40]	; 940c <led_init+0x54>
    93e0:	98840009 	stmls	r4, {r0, r3}
    93e4:	ebffff04 	bl	8ffc <gpio_request>
    93e8:	e5940000 	ldr	r0, [r4]
    93ec:	ebffff66 	bl	918c <gpio_direction_output>
    93f0:	e5941000 	ldr	r1, [r4]
    93f4:	e59f0014 	ldr	r0, [pc, #20]	; 9410 <led_init+0x58>
    93f8:	eb000137 	bl	98dc <printk>
    93fc:	e3a00000 	mov	r0, #0
    9400:	e8bd8010 	pop	{r4, pc}
    9404:	0000c000 	andeq	ip, r0, r0
    9408:	0000d014 	andeq	sp, r0, r4, lsl r0
    940c:	0000b4ac 	andeq	fp, r0, ip, lsr #9
    9410:	0000b4b4 			; <UNDEFINED> instruction: 0x0000b4b4

00009414 <led_on>:
    9414:	e92d4008 	push	{r3, lr}
    9418:	e59f3018 	ldr	r3, [pc, #24]	; 9438 <led_on+0x24>
    941c:	e8930005 	ldm	r3, {r0, r2}
    9420:	e3520000 	cmp	r2, #0
    9424:	13a01000 	movne	r1, #0
    9428:	03a01001 	moveq	r1, #1
    942c:	ebffff8c 	bl	9264 <gpio_set_value>
    9430:	e3a00000 	mov	r0, #0
    9434:	e8bd8008 	pop	{r3, pc}
    9438:	0000d014 	andeq	sp, r0, r4, lsl r0

0000943c <led_off>:
    943c:	e92d4008 	push	{r3, lr}
    9440:	e59f3014 	ldr	r3, [pc, #20]	; 945c <led_off+0x20>
    9444:	e8930003 	ldm	r3, {r0, r1}
    9448:	e3510000 	cmp	r1, #0
    944c:	13a01001 	movne	r1, #1
    9450:	ebffff83 	bl	9264 <gpio_set_value>
    9454:	e3a00000 	mov	r0, #0
    9458:	e8bd8008 	pop	{r3, pc}
    945c:	0000d014 	andeq	sp, r0, r4, lsl r0

00009460 <mailbox_write>:
    9460:	e92d4070 	push	{r4, r5, r6, lr}
    9464:	e1a02001 	mov	r2, r1
    9468:	e1a05000 	mov	r5, r0
    946c:	e1a06001 	mov	r6, r1
    9470:	e1a01000 	mov	r1, r0
    9474:	e59f0074 	ldr	r0, [pc, #116]	; 94f0 <mailbox_write+0x90>
    9478:	eb000117 	bl	98dc <printk>
    947c:	e315000f 	tst	r5, #15
    9480:	1a000010 	bne	94c8 <mailbox_write+0x68>
    9484:	e356000f 	cmp	r6, #15
    9488:	8a000013 	bhi	94dc <mailbox_write+0x7c>
    948c:	e59f3060 	ldr	r3, [pc, #96]	; 94f4 <mailbox_write+0x94>
    9490:	e5933000 	ldr	r3, [r3]
    9494:	e3530000 	cmp	r3, #0
    9498:	b59f4054 	ldrlt	r4, [pc, #84]	; 94f4 <mailbox_write+0x94>
    949c:	aa000004 	bge	94b4 <mailbox_write+0x54>
    94a0:	e59f0050 	ldr	r0, [pc, #80]	; 94f8 <mailbox_write+0x98>
    94a4:	eb00010c 	bl	98dc <printk>
    94a8:	e5943000 	ldr	r3, [r4]
    94ac:	e3530000 	cmp	r3, #0
    94b0:	bafffffa 	blt	94a0 <mailbox_write+0x40>
    94b4:	e1855006 	orr	r5, r5, r6
    94b8:	e59f303c 	ldr	r3, [pc, #60]	; 94fc <mailbox_write+0x9c>
    94bc:	e5835000 	str	r5, [r3]
    94c0:	e3a00000 	mov	r0, #0
    94c4:	e8bd8070 	pop	{r4, r5, r6, pc}
    94c8:	e1a01005 	mov	r1, r5
    94cc:	e59f002c 	ldr	r0, [pc, #44]	; 9500 <mailbox_write+0xa0>
    94d0:	eb000101 	bl	98dc <printk>
    94d4:	e3e00000 	mvn	r0, #0
    94d8:	e8bd8070 	pop	{r4, r5, r6, pc}
    94dc:	e1a01006 	mov	r1, r6
    94e0:	e59f001c 	ldr	r0, [pc, #28]	; 9504 <mailbox_write+0xa4>
    94e4:	eb0000fc 	bl	98dc <printk>
    94e8:	e3e00000 	mvn	r0, #0
    94ec:	e8bd8070 	pop	{r4, r5, r6, pc}
    94f0:	0000b4d8 	ldrdeq	fp, [r0], -r8
    94f4:	2000b898 	mulcs	r0, r8, r8
    94f8:	0000b550 	andeq	fp, r0, r0, asr r5
    94fc:	2000b8a0 	andcs	fp, r0, r0, lsr #17
    9500:	0000b504 	andeq	fp, r0, r4, lsl #10
    9504:	0000b52c 	andeq	fp, r0, ip, lsr #10

00009508 <mailbox_read>:
    9508:	e92d4038 	push	{r3, r4, r5, lr}
    950c:	e1a01000 	mov	r1, r0
    9510:	e1a05000 	mov	r5, r0
    9514:	e59f0074 	ldr	r0, [pc, #116]	; 9590 <mailbox_read+0x88>
    9518:	eb0000ef 	bl	98dc <printk>
    951c:	e355000f 	cmp	r5, #15
    9520:	8a000015 	bhi	957c <mailbox_read+0x74>
    9524:	e59f3068 	ldr	r3, [pc, #104]	; 9594 <mailbox_read+0x8c>
    9528:	e5933000 	ldr	r3, [r3]
    952c:	e3130101 	tst	r3, #1073741824	; 0x40000000
    9530:	159f405c 	ldrne	r4, [pc, #92]	; 9594 <mailbox_read+0x8c>
    9534:	0a000004 	beq	954c <mailbox_read+0x44>
    9538:	e59f0058 	ldr	r0, [pc, #88]	; 9598 <mailbox_read+0x90>
    953c:	eb0000e6 	bl	98dc <printk>
    9540:	e5943000 	ldr	r3, [r4]
    9544:	e3130101 	tst	r3, #1073741824	; 0x40000000
    9548:	1afffffa 	bne	9538 <mailbox_read+0x30>
    954c:	e59f0048 	ldr	r0, [pc, #72]	; 959c <mailbox_read+0x94>
    9550:	e5900000 	ldr	r0, [r0]
    9554:	e200100f 	and	r1, r0, #15
    9558:	e1510005 	cmp	r1, r5
    955c:	1a000001 	bne	9568 <mailbox_read+0x60>
    9560:	e3c0000f 	bic	r0, r0, #15
    9564:	e8bd8038 	pop	{r3, r4, r5, pc}
    9568:	e1a02005 	mov	r2, r5
    956c:	e59f002c 	ldr	r0, [pc, #44]	; 95a0 <mailbox_read+0x98>
    9570:	eb0000d9 	bl	98dc <printk>
    9574:	e3e00000 	mvn	r0, #0
    9578:	e8bd8038 	pop	{r3, r4, r5, pc}
    957c:	e1a01005 	mov	r1, r5
    9580:	e59f001c 	ldr	r0, [pc, #28]	; 95a4 <mailbox_read+0x9c>
    9584:	eb0000d4 	bl	98dc <printk>
    9588:	e3e00000 	mvn	r0, #0
    958c:	e8bd8038 	pop	{r3, r4, r5, pc}
    9590:	0000b568 	andeq	fp, r0, r8, ror #10
    9594:	2000b898 	mulcs	r0, r8, r8
    9598:	0000b5ac 	andeq	fp, r0, ip, lsr #11
    959c:	2000b880 	andcs	fp, r0, r0, lsl #17
    95a0:	0000b5c8 	andeq	fp, r0, r8, asr #11
    95a4:	0000b58c 	andeq	fp, r0, ip, lsl #11

000095a8 <memory_init>:
    95a8:	e3500101 	cmp	r0, #1073741824	; 0x40000000
    95ac:	e92d4038 	push	{r3, r4, r5, lr}
    95b0:	e1a05000 	mov	r5, r0
    95b4:	e1a04001 	mov	r4, r1
    95b8:	8a00001e 	bhi	9638 <memory_init+0x90>
    95bc:	e1a02524 	lsr	r2, r4, #10
    95c0:	e3a03008 	mov	r3, #8
    95c4:	e59f007c 	ldr	r0, [pc, #124]	; 9648 <memory_init+0xa0>
    95c8:	e1a01a25 	lsr	r1, r5, #20
    95cc:	eb0000c2 	bl	98dc <printk>
    95d0:	e1a02625 	lsr	r2, r5, #12
    95d4:	e59f3070 	ldr	r3, [pc, #112]	; 964c <memory_init+0xa4>
    95d8:	e3520000 	cmp	r2, #0
    95dc:	e5832000 	str	r2, [r3]
    95e0:	0a000005 	beq	95fc <memory_init+0x54>
    95e4:	e59f3064 	ldr	r3, [pc, #100]	; 9650 <memory_init+0xa8>
    95e8:	e3a00000 	mov	r0, #0
    95ec:	e0832102 	add	r2, r3, r2, lsl #2
    95f0:	e5a30004 	str	r0, [r3, #4]!
    95f4:	e1530002 	cmp	r3, r2
    95f8:	1afffffc 	bne	95f0 <memory_init+0x48>
    95fc:	e1b04624 	lsrs	r4, r4, #12
    9600:	0a00000a 	beq	9630 <memory_init+0x88>
    9604:	e59f1048 	ldr	r1, [pc, #72]	; 9654 <memory_init+0xac>
    9608:	e3a03000 	mov	r3, #0
    960c:	e3a05001 	mov	r5, #1
    9610:	e1a022c3 	asr	r2, r3, #5
    9614:	e7910102 	ldr	r0, [r1, r2, lsl #2]
    9618:	e203c01f 	and	ip, r3, #31
    961c:	e1800c15 	orr	r0, r0, r5, lsl ip
    9620:	e2833001 	add	r3, r3, #1
    9624:	e1530004 	cmp	r3, r4
    9628:	e7810102 	str	r0, [r1, r2, lsl #2]
    962c:	1afffff7 	bne	9610 <memory_init+0x68>
    9630:	e3a00000 	mov	r0, #0
    9634:	e8bd8038 	pop	{r3, r4, r5, pc}
    9638:	e59f0018 	ldr	r0, [pc, #24]	; 9658 <memory_init+0xb0>
    963c:	eb0000a6 	bl	98dc <printk>
    9640:	e3e00000 	mvn	r0, #0
    9644:	e8bd8038 	pop	{r3, r4, r5, pc}
    9648:	0000b614 	andeq	fp, r0, r4, lsl r6
    964c:	00011668 	andeq	r1, r1, r8, ror #12
    9650:	0001166c 	andeq	r1, r1, ip, ror #12
    9654:	00011670 	andeq	r1, r1, r0, ror r6
    9658:	0000b5f8 	strdeq	fp, [r0], -r8

0000965c <memory_allocate>:
    965c:	e2501000 	subs	r1, r0, #0
    9660:	e92d41f0 	push	{r4, r5, r6, r7, r8, lr}
    9664:	03a07001 	moveq	r7, #1
    9668:	01a01007 	moveq	r1, r7
    966c:	0a000005 	beq	9688 <memory_allocate+0x2c>
    9670:	e2413001 	sub	r3, r1, #1
    9674:	e2832eff 	add	r2, r3, #4080	; 0xff0
    9678:	e3530000 	cmp	r3, #0
    967c:	b282300f 	addlt	r3, r2, #15
    9680:	e1a07643 	asr	r7, r3, #12
    9684:	e2877001 	add	r7, r7, #1
    9688:	e59f30c8 	ldr	r3, [pc, #200]	; 9758 <memory_allocate+0xfc>
    968c:	e5938000 	ldr	r8, [r3]
    9690:	e3580000 	cmp	r8, #0
    9694:	0a00002b 	beq	9748 <memory_allocate+0xec>
    9698:	e59f50bc 	ldr	r5, [pc, #188]	; 975c <memory_allocate+0x100>
    969c:	e3a0c000 	mov	ip, #0
    96a0:	e3a06001 	mov	r6, #1
    96a4:	e1a032cc 	asr	r3, ip, #5
    96a8:	e7953103 	ldr	r3, [r5, r3, lsl #2]
    96ac:	e20c201f 	and	r2, ip, #31
    96b0:	e0133216 	ands	r3, r3, r6, lsl r2
    96b4:	1a000020 	bne	973c <memory_allocate+0xe0>
    96b8:	e3570000 	cmp	r7, #0
    96bc:	ca000003 	bgt	96d0 <memory_allocate+0x74>
    96c0:	ea00001c 	b	9738 <memory_allocate+0xdc>
    96c4:	e7954104 	ldr	r4, [r5, r4, lsl #2]
    96c8:	e0144216 	ands	r4, r4, r6, lsl r2
    96cc:	1a00001a 	bne	973c <memory_allocate+0xe0>
    96d0:	e2833001 	add	r3, r3, #1
    96d4:	e08c2003 	add	r2, ip, r3
    96d8:	e1530007 	cmp	r3, r7
    96dc:	e1a042c2 	asr	r4, r2, #5
    96e0:	e202201f 	and	r2, r2, #31
    96e4:	1afffff6 	bne	96c4 <memory_allocate+0x68>
    96e8:	e08c3003 	add	r3, ip, r3
    96ec:	e1a0200c 	mov	r2, ip
    96f0:	e3a07001 	mov	r7, #1
    96f4:	e3520000 	cmp	r2, #0
    96f8:	e1a00fc2 	asr	r0, r2, #31
    96fc:	e282101f 	add	r1, r2, #31
    9700:	e1a00da0 	lsr	r0, r0, #27
    9704:	a1a01002 	movge	r1, r2
    9708:	e0826000 	add	r6, r2, r0
    970c:	e1a012c1 	asr	r1, r1, #5
    9710:	e7954101 	ldr	r4, [r5, r1, lsl #2]
    9714:	e206601f 	and	r6, r6, #31
    9718:	e0600006 	rsb	r0, r0, r6
    971c:	e1840017 	orr	r0, r4, r7, lsl r0
    9720:	e2822001 	add	r2, r2, #1
    9724:	e1520003 	cmp	r2, r3
    9728:	e7850101 	str	r0, [r5, r1, lsl #2]
    972c:	1afffff0 	bne	96f4 <memory_allocate+0x98>
    9730:	e1a0060c 	lsl	r0, ip, #12
    9734:	e8bd81f0 	pop	{r4, r5, r6, r7, r8, pc}
    9738:	0afffffc 	beq	9730 <memory_allocate+0xd4>
    973c:	e28cc001 	add	ip, ip, #1
    9740:	e15c0008 	cmp	ip, r8
    9744:	1affffd6 	bne	96a4 <memory_allocate+0x48>
    9748:	e59f0010 	ldr	r0, [pc, #16]	; 9760 <memory_allocate+0x104>
    974c:	eb000062 	bl	98dc <printk>
    9750:	e3a00000 	mov	r0, #0
    9754:	e8bd81f0 	pop	{r4, r5, r6, r7, r8, pc}
    9758:	00011668 	andeq	r1, r1, r8, ror #12
    975c:	00011670 	andeq	r1, r1, r0, ror r6
    9760:	0000b660 	andeq	fp, r0, r0, ror #12

00009764 <enable_mmu>:
    9764:	e52d4004 	push	{r4}		; (str r4, [sp, #-4]!)
    9768:	e59fc074 	ldr	ip, [pc, #116]	; 97e4 <enable_mmu+0x80>
    976c:	e3a02000 	mov	r2, #0
    9770:	e1a04a02 	lsl	r4, r2, #20
    9774:	e3844ec1 	orr	r4, r4, #3088	; 0xc10
    9778:	e2822001 	add	r2, r2, #1
    977c:	e3844002 	orr	r4, r4, #2
    9780:	e3520a01 	cmp	r2, #4096	; 0x1000
    9784:	e5ac4004 	str	r4, [ip, #4]!
    9788:	1afffff8 	bne	9770 <enable_mmu+0xc>
    978c:	e1a03a20 	lsr	r3, r0, #20
    9790:	e1a00a21 	lsr	r0, r1, #20
    9794:	e1500003 	cmp	r0, r3
    9798:	e59fc048 	ldr	ip, [pc, #72]	; 97e8 <enable_mmu+0x84>
    979c:	82432001 	subhi	r2, r3, #1
    97a0:	808c2102 	addhi	r2, ip, r2, lsl #2
    97a4:	9a000006 	bls	97c4 <enable_mmu+0x60>
    97a8:	e1a01a03 	lsl	r1, r3, #20
    97ac:	e3811ec1 	orr	r1, r1, #3088	; 0xc10
    97b0:	e2833001 	add	r3, r3, #1
    97b4:	e381100e 	orr	r1, r1, #14
    97b8:	e1530000 	cmp	r3, r0
    97bc:	e5a21004 	str	r1, [r2, #4]!
    97c0:	1afffff8 	bne	97a8 <enable_mmu+0x44>
    97c4:	ee02cf10 	mcr	15, 0, ip, cr2, cr0, {0}
    97c8:	e3e03000 	mvn	r3, #0
    97cc:	ee033f10 	mcr	15, 0, r3, cr3, cr0, {0}
    97d0:	ee113f10 	mrc	15, 0, r3, cr1, cr0, {0}
    97d4:	e3833001 	orr	r3, r3, #1
    97d8:	ee013f10 	mcr	15, 0, r3, cr1, cr0, {0}
    97dc:	e49d4004 	pop	{r4}		; (ldr r4, [sp], #4)
    97e0:	e12fff1e 	bx	lr
    97e4:	0001bffc 	strdeq	fp, [r1], -ip
    97e8:	0001c000 	andeq	ip, r1, r0

000097ec <enable_l1_dcache>:
    97ec:	ee110f10 	mrc	15, 0, r0, cr1, cr0, {0}
    97f0:	e3800004 	orr	r0, r0, #4
    97f4:	ee010f10 	mcr	15, 0, r0, cr1, cr0, {0}
    97f8:	e12fff1e 	bx	lr

000097fc <disable_l1_dcache>:
    97fc:	e12fff1e 	bx	lr

00009800 <enable_l1_icache>:
    9800:	ee110f10 	mrc	15, 0, r0, cr1, cr0, {0}
    9804:	e3800a01 	orr	r0, r0, #4096	; 0x1000
    9808:	ee010f10 	mcr	15, 0, r0, cr1, cr0, {0}
    980c:	e12fff1e 	bx	lr

00009810 <disable_l1_icache>:
    9810:	ee110f10 	mrc	15, 0, r0, cr1, cr0, {0}
    9814:	e3c00a01 	bic	r0, r0, #4096	; 0x1000
    9818:	ee010f10 	mcr	15, 0, r0, cr1, cr0, {0}
    981c:	e12fff1e 	bx	lr

00009820 <enable_branch_predictor>:
    9820:	ee110f10 	mrc	15, 0, r0, cr1, cr0, {0}
    9824:	e3800b02 	orr	r0, r0, #2048	; 0x800
    9828:	ee010f10 	mcr	15, 0, r0, cr1, cr0, {0}
    982c:	e12fff1e 	bx	lr

00009830 <disable_branch_predictor>:
    9830:	ee110f10 	mrc	15, 0, r0, cr1, cr0, {0}
    9834:	e3c00b02 	bic	r0, r0, #2048	; 0x800
    9838:	ee010f10 	mcr	15, 0, r0, cr1, cr0, {0}
    983c:	e12fff1e 	bx	lr

00009840 <l1_cache_detect>:
    9840:	e92d4010 	push	{r4, lr}
    9844:	ee104f30 	mrc	15, 0, r4, cr0, cr0, {1}
    9848:	e1a03924 	lsr	r3, r4, #18
    984c:	e203300f 	and	r3, r3, #15
    9850:	e2433001 	sub	r3, r3, #1
    9854:	e3530007 	cmp	r3, #7
    9858:	959f2070 	ldrls	r2, [pc, #112]	; 98d0 <l1_cache_detect+0x90>
    985c:	e1a00c24 	lsr	r0, r4, #24
    9860:	97921103 	ldrls	r1, [r2, r3, lsl #2]
    9864:	e24dd008 	sub	sp, sp, #8
    9868:	e2000001 	and	r0, r0, #1
    986c:	e1a027a4 	lsr	r2, r4, #15
    9870:	e1a03624 	lsr	r3, r4, #12
    9874:	83a01000 	movhi	r1, #0
    9878:	e2022007 	and	r2, r2, #7
    987c:	e58d0000 	str	r0, [sp]
    9880:	e2033003 	and	r3, r3, #3
    9884:	e59f0048 	ldr	r0, [pc, #72]	; 98d4 <l1_cache_detect+0x94>
    9888:	eb000013 	bl	98dc <printk>
    988c:	e1a03324 	lsr	r3, r4, #6
    9890:	e203300f 	and	r3, r3, #15
    9894:	e2433001 	sub	r3, r3, #1
    9898:	e3530007 	cmp	r3, #7
    989c:	959f202c 	ldrls	r2, [pc, #44]	; 98d0 <l1_cache_detect+0x90>
    98a0:	e1a005a4 	lsr	r0, r4, #11
    98a4:	97921103 	ldrls	r1, [r2, r3, lsl #2]
    98a8:	e2000001 	and	r0, r0, #1
    98ac:	e1a021a4 	lsr	r2, r4, #3
    98b0:	e58d0000 	str	r0, [sp]
    98b4:	83a01000 	movhi	r1, #0
    98b8:	e2022007 	and	r2, r2, #7
    98bc:	e2043003 	and	r3, r4, #3
    98c0:	e59f0010 	ldr	r0, [pc, #16]	; 98d8 <l1_cache_detect+0x98>
    98c4:	eb000004 	bl	98dc <printk>
    98c8:	e28dd008 	add	sp, sp, #8
    98cc:	e8bd8010 	pop	{r4, pc}
    98d0:	0000b000 	andeq	fp, r0, r0
    98d4:	0000b68c 	andeq	fp, r0, ip, lsl #13
    98d8:	0000b6d4 	ldrdeq	fp, [r0], -r4

000098dc <printk>:
    98dc:	e92d000f 	push	{r0, r1, r2, r3}
    98e0:	e92d4070 	push	{r4, r5, r6, lr}
    98e4:	e24dde11 	sub	sp, sp, #272	; 0x110
    98e8:	e28d6f49 	add	r6, sp, #292	; 0x124
    98ec:	e59d1120 	ldr	r1, [sp, #288]	; 0x120
    98f0:	e59f5158 	ldr	r5, [pc, #344]	; 9a50 <printk+0x174>
    98f4:	e58d6000 	str	r6, [sp]
    98f8:	e3a04000 	mov	r4, #0
    98fc:	ea000006 	b	991c <printk+0x40>
    9900:	e28dee11 	add	lr, sp, #272	; 0x110
    9904:	e08e2004 	add	r2, lr, r4
    9908:	e2811001 	add	r1, r1, #1
    990c:	e5423100 	strb	r3, [r2, #-256]	; 0x100
    9910:	e2844001 	add	r4, r4, #1
    9914:	e35400ff 	cmp	r4, #255	; 0xff
    9918:	0a000026 	beq	99b8 <printk+0xdc>
    991c:	e5d13000 	ldrb	r3, [r1]
    9920:	e3530000 	cmp	r3, #0
    9924:	0a000023 	beq	99b8 <printk+0xdc>
    9928:	e3530025 	cmp	r3, #37	; 0x25
    992c:	1afffff3 	bne	9900 <printk+0x24>
    9930:	e5d13001 	ldrb	r3, [r1, #1]
    9934:	e3530064 	cmp	r3, #100	; 0x64
    9938:	0a000026 	beq	99d8 <printk+0xfc>
    993c:	e3530078 	cmp	r3, #120	; 0x78
    9940:	12811001 	addne	r1, r1, #1
    9944:	1afffff2 	bne	9914 <printk+0x38>
    9948:	e5962000 	ldr	r2, [r6]
    994c:	e2811002 	add	r1, r1, #2
    9950:	e2866004 	add	r6, r6, #4
    9954:	e3a03009 	mov	r3, #9
    9958:	e28dc004 	add	ip, sp, #4
    995c:	ea000000 	b	9964 <printk+0x88>
    9960:	e1a03000 	mov	r3, r0
    9964:	e202000f 	and	r0, r2, #15
    9968:	e3500009 	cmp	r0, #9
    996c:	92800030 	addls	r0, r0, #48	; 0x30
    9970:	82800057 	addhi	r0, r0, #87	; 0x57
    9974:	e1b02222 	lsrs	r2, r2, #4
    9978:	e7cc0003 	strb	r0, [ip, r3]
    997c:	e2430001 	sub	r0, r3, #1
    9980:	1afffff6 	bne	9960 <printk+0x84>
    9984:	e0630004 	rsb	r0, r3, r4
    9988:	e28d2010 	add	r2, sp, #16
    998c:	e0820000 	add	r0, r2, r0
    9990:	e1a0e003 	mov	lr, r3
    9994:	e7dc2003 	ldrb	r2, [ip, r3]
    9998:	e7c02003 	strb	r2, [r0, r3]
    999c:	e2833001 	add	r3, r3, #1
    99a0:	e353000a 	cmp	r3, #10
    99a4:	1afffffa 	bne	9994 <printk+0xb8>
    99a8:	e284400a 	add	r4, r4, #10
    99ac:	e06e4004 	rsb	r4, lr, r4
    99b0:	e35400ff 	cmp	r4, #255	; 0xff
    99b4:	1affffd8 	bne	991c <printk+0x40>
    99b8:	e28d0010 	add	r0, sp, #16
    99bc:	e1a01004 	mov	r1, r4
    99c0:	ebfffbb4 	bl	8898 <console_write>
    99c4:	e1a00004 	mov	r0, r4
    99c8:	e28dde11 	add	sp, sp, #272	; 0x110
    99cc:	e8bd4070 	pop	{r4, r5, r6, lr}
    99d0:	e28dd010 	add	sp, sp, #16
    99d4:	e12fff1e 	bx	lr
    99d8:	e596e000 	ldr	lr, [r6]
    99dc:	e2811002 	add	r1, r1, #2
    99e0:	e2866004 	add	r6, r6, #4
    99e4:	e3a03009 	mov	r3, #9
    99e8:	e28dc004 	add	ip, sp, #4
    99ec:	ea000000 	b	99f4 <printk+0x118>
    99f0:	e1a03002 	mov	r3, r2
    99f4:	e0820e95 	umull	r0, r2, r5, lr
    99f8:	e1a021a2 	lsr	r2, r2, #3
    99fc:	e0820102 	add	r0, r2, r2, lsl #2
    9a00:	e04e0080 	sub	r0, lr, r0, lsl #1
    9a04:	e2800030 	add	r0, r0, #48	; 0x30
    9a08:	e6ef0070 	uxtb	r0, r0
    9a0c:	e252e000 	subs	lr, r2, #0
    9a10:	e7cc0003 	strb	r0, [ip, r3]
    9a14:	e2432001 	sub	r2, r3, #1
    9a18:	1afffff4 	bne	99f0 <printk+0x114>
    9a1c:	e28de010 	add	lr, sp, #16
    9a20:	e0632004 	rsb	r2, r3, r4
    9a24:	e08e2002 	add	r2, lr, r2
    9a28:	e1a0e003 	mov	lr, r3
    9a2c:	ea000000 	b	9a34 <printk+0x158>
    9a30:	e7dc0003 	ldrb	r0, [ip, r3]
    9a34:	e7c20003 	strb	r0, [r2, r3]
    9a38:	e2833001 	add	r3, r3, #1
    9a3c:	e353000a 	cmp	r3, #10
    9a40:	1afffffa 	bne	9a30 <printk+0x154>
    9a44:	e284400a 	add	r4, r4, #10
    9a48:	e06e4004 	rsb	r4, lr, r4
    9a4c:	eaffffd7 	b	99b0 <printk+0xd4>
    9a50:	cccccccd 	stclgt	12, cr12, [ip], {205}	; 0xcd

00009a54 <uart_init>:
    9a54:	e59f3084 	ldr	r3, [pc, #132]	; 9ae0 <__delay_16+0x5c>
    9a58:	e3a02000 	mov	r2, #0
    9a5c:	e5832000 	str	r2, [r3]
    9a60:	e59f307c 	ldr	r3, [pc, #124]	; 9ae4 <__delay_16+0x60>
    9a64:	e5832000 	str	r2, [r3]
    9a68:	e3a03096 	mov	r3, #150	; 0x96

00009a6c <__delay_11>:
    9a6c:	e2533001 	subs	r3, r3, #1
    9a70:	1afffffd 	bne	9a6c <__delay_11>
    9a74:	e59f306c 	ldr	r3, [pc, #108]	; 9ae8 <__delay_16+0x64>
    9a78:	e3a02903 	mov	r2, #49152	; 0xc000
    9a7c:	e5832000 	str	r2, [r3]
    9a80:	e3a03096 	mov	r3, #150	; 0x96

00009a84 <__delay_16>:
    9a84:	e2533001 	subs	r3, r3, #1
    9a88:	1afffffd 	bne	9a84 <__delay_16>
    9a8c:	e59f3054 	ldr	r3, [pc, #84]	; 9ae8 <__delay_16+0x64>
    9a90:	e3a02000 	mov	r2, #0
    9a94:	e5832000 	str	r2, [r3]
    9a98:	e2833efa 	add	r3, r3, #4000	; 0xfa0
    9a9c:	e5832000 	str	r2, [r3]
    9aa0:	e59f2044 	ldr	r2, [pc, #68]	; 9aec <__delay_16+0x68>
    9aa4:	e283300c 	add	r3, r3, #12
    9aa8:	e5832000 	str	r2, [r3]
    9aac:	e3a02001 	mov	r2, #1
    9ab0:	e2433020 	sub	r3, r3, #32
    9ab4:	e5832000 	str	r2, [r3]
    9ab8:	e3a02028 	mov	r2, #40	; 0x28
    9abc:	e2833004 	add	r3, r3, #4
    9ac0:	e5832000 	str	r2, [r3]
    9ac4:	e3a02070 	mov	r2, #112	; 0x70
    9ac8:	e2833004 	add	r3, r3, #4
    9acc:	e5832000 	str	r2, [r3]
    9ad0:	e59f2018 	ldr	r2, [pc, #24]	; 9af0 <__delay_16+0x6c>
    9ad4:	e2833004 	add	r3, r3, #4
    9ad8:	e5832000 	str	r2, [r3]
    9adc:	e12fff1e 	bx	lr
    9ae0:	20201030 	eorcs	r1, r0, r0, lsr r0
    9ae4:	20200094 	mlacs	r0, r4, r0, r0
    9ae8:	20200098 	mlacs	r0, r8, r0, r0
    9aec:	000007ff 	strdeq	r0, [r0], -pc	; <UNPREDICTABLE>
    9af0:	00000301 	andeq	r0, r0, r1, lsl #6

00009af4 <uart_putc>:
    9af4:	e59f2014 	ldr	r2, [pc, #20]	; 9b10 <uart_putc+0x1c>
    9af8:	e5923000 	ldr	r3, [r2]
    9afc:	e3130020 	tst	r3, #32
    9b00:	1afffffc 	bne	9af8 <uart_putc+0x4>
    9b04:	e59f3008 	ldr	r3, [pc, #8]	; 9b14 <uart_putc+0x20>
    9b08:	e5830000 	str	r0, [r3]
    9b0c:	e12fff1e 	bx	lr
    9b10:	20201018 	eorcs	r1, r0, r8, lsl r0
    9b14:	20201000 	eorcs	r1, r0, r0

00009b18 <uart_getc>:
    9b18:	e59f2018 	ldr	r2, [pc, #24]	; 9b38 <uart_getc+0x20>
    9b1c:	e5923000 	ldr	r3, [r2]
    9b20:	e3130010 	tst	r3, #16
    9b24:	1afffffc 	bne	9b1c <uart_getc+0x4>
    9b28:	e59f000c 	ldr	r0, [pc, #12]	; 9b3c <uart_getc+0x24>
    9b2c:	e5900000 	ldr	r0, [r0]
    9b30:	e6ef0070 	uxtb	r0, r0
    9b34:	e12fff1e 	bx	lr
    9b38:	20201018 	eorcs	r1, r0, r8, lsl r0
    9b3c:	20201000 	eorcs	r1, r0, r0

00009b40 <uart_getc_noblock>:
    9b40:	e59f3020 	ldr	r3, [pc, #32]	; 9b68 <uart_getc_noblock+0x28>
    9b44:	e5933000 	ldr	r3, [r3]
    9b48:	e3130010 	tst	r3, #16
    9b4c:	1a000003 	bne	9b60 <uart_getc_noblock+0x20>
    9b50:	e59f0014 	ldr	r0, [pc, #20]	; 9b6c <uart_getc_noblock+0x2c>
    9b54:	e5900000 	ldr	r0, [r0]
    9b58:	e6ef0070 	uxtb	r0, r0
    9b5c:	e12fff1e 	bx	lr
    9b60:	e3a00000 	mov	r0, #0
    9b64:	e12fff1e 	bx	lr
    9b68:	20201018 	eorcs	r1, r0, r8, lsl r0
    9b6c:	20201000 	eorcs	r1, r0, r0

00009b70 <uart_write>:
    9b70:	e3510000 	cmp	r1, #0
    9b74:	e92d00f0 	push	{r4, r5, r6, r7}
    9b78:	0a00000d 	beq	9bb4 <uart_write+0x44>
    9b7c:	e59f2050 	ldr	r2, [pc, #80]	; 9bd4 <uart_write+0x64>
    9b80:	e59f5050 	ldr	r5, [pc, #80]	; 9bd8 <uart_write+0x68>
    9b84:	e1a0c000 	mov	ip, r0
    9b88:	e0806001 	add	r6, r0, r1
    9b8c:	e3a0700d 	mov	r7, #13
    9b90:	e4dc4001 	ldrb	r4, [ip], #1
    9b94:	e5923000 	ldr	r3, [r2]
    9b98:	e3130020 	tst	r3, #32
    9b9c:	1afffffc 	bne	9b94 <uart_write+0x24>
    9ba0:	e5854000 	str	r4, [r5]
    9ba4:	e354000a 	cmp	r4, #10
    9ba8:	0a000004 	beq	9bc0 <uart_write+0x50>
    9bac:	e15c0006 	cmp	ip, r6
    9bb0:	1afffff6 	bne	9b90 <uart_write+0x20>
    9bb4:	e1a00001 	mov	r0, r1
    9bb8:	e8bd00f0 	pop	{r4, r5, r6, r7}
    9bbc:	e12fff1e 	bx	lr
    9bc0:	e5923000 	ldr	r3, [r2]
    9bc4:	e3130020 	tst	r3, #32
    9bc8:	1afffffc 	bne	9bc0 <uart_write+0x50>
    9bcc:	e5857000 	str	r7, [r5]
    9bd0:	eafffff5 	b	9bac <uart_write+0x3c>
    9bd4:	20201018 	eorcs	r1, r0, r8, lsl r0
    9bd8:	20201000 	eorcs	r1, r0, r0

00009bdc <strncmp>:
    9bdc:	e3520000 	cmp	r2, #0
    9be0:	e92d0030 	push	{r4, r5}
    9be4:	0a00000c 	beq	9c1c <strncmp+0x40>
    9be8:	e5d05000 	ldrb	r5, [r0]
    9bec:	e5d14000 	ldrb	r4, [r1]
    9bf0:	e0554004 	subs	r4, r5, r4
    9bf4:	1a00000e 	bne	9c34 <strncmp+0x58>
    9bf8:	e080c002 	add	ip, r0, r2
    9bfc:	e24cc001 	sub	ip, ip, #1
    9c00:	ea000003 	b	9c14 <strncmp+0x38>
    9c04:	e5f02001 	ldrb	r2, [r0, #1]!
    9c08:	e5f13001 	ldrb	r3, [r1, #1]!
    9c0c:	e0523003 	subs	r3, r2, r3
    9c10:	1a000004 	bne	9c28 <strncmp+0x4c>
    9c14:	e150000c 	cmp	r0, ip
    9c18:	1afffff9 	bne	9c04 <strncmp+0x28>
    9c1c:	e3a00000 	mov	r0, #0
    9c20:	e8bd0030 	pop	{r4, r5}
    9c24:	e12fff1e 	bx	lr
    9c28:	e1a00003 	mov	r0, r3
    9c2c:	e8bd0030 	pop	{r4, r5}
    9c30:	e12fff1e 	bx	lr
    9c34:	e1a00004 	mov	r0, r4
    9c38:	eafffff8 	b	9c20 <strncmp+0x44>

00009c3c <memcmp>:
    9c3c:	e3520000 	cmp	r2, #0
    9c40:	e92d0030 	push	{r4, r5}
    9c44:	0a00000c 	beq	9c7c <memcmp+0x40>
    9c48:	e5d05000 	ldrb	r5, [r0]
    9c4c:	e5d14000 	ldrb	r4, [r1]
    9c50:	e0554004 	subs	r4, r5, r4
    9c54:	1a00000e 	bne	9c94 <memcmp+0x58>
    9c58:	e080c002 	add	ip, r0, r2
    9c5c:	e24cc001 	sub	ip, ip, #1
    9c60:	ea000003 	b	9c74 <memcmp+0x38>
    9c64:	e5f02001 	ldrb	r2, [r0, #1]!
    9c68:	e5f13001 	ldrb	r3, [r1, #1]!
    9c6c:	e0523003 	subs	r3, r2, r3
    9c70:	1a000004 	bne	9c88 <memcmp+0x4c>
    9c74:	e150000c 	cmp	r0, ip
    9c78:	1afffff9 	bne	9c64 <memcmp+0x28>
    9c7c:	e3a00000 	mov	r0, #0
    9c80:	e8bd0030 	pop	{r4, r5}
    9c84:	e12fff1e 	bx	lr
    9c88:	e1a00003 	mov	r0, r3
    9c8c:	e8bd0030 	pop	{r4, r5}
    9c90:	e12fff1e 	bx	lr
    9c94:	e1a00004 	mov	r0, r4
    9c98:	eafffff8 	b	9c80 <memcmp+0x44>

00009c9c <memcpy>:
    9c9c:	e3520000 	cmp	r2, #0
    9ca0:	012fff1e 	bxeq	lr
    9ca4:	e2411001 	sub	r1, r1, #1
    9ca8:	e080c002 	add	ip, r0, r2
    9cac:	e1a03000 	mov	r3, r0
    9cb0:	e5f12001 	ldrb	r2, [r1, #1]!
    9cb4:	e4c32001 	strb	r2, [r3], #1
    9cb8:	e153000c 	cmp	r3, ip
    9cbc:	1afffffb 	bne	9cb0 <memcpy+0x14>
    9cc0:	e12fff1e 	bx	lr

00009cc4 <strncpy>:
    9cc4:	e3520000 	cmp	r2, #0
    9cc8:	e52d4004 	push	{r4}		; (str r4, [sp, #-4]!)
    9ccc:	0a000010 	beq	9d14 <strncpy+0x50>
    9cd0:	e5d13000 	ldrb	r3, [r1]
    9cd4:	e5c03000 	strb	r3, [r0]
    9cd8:	e5d13000 	ldrb	r3, [r1]
    9cdc:	e3530000 	cmp	r3, #0
    9ce0:	0a00000b 	beq	9d14 <strncpy+0x50>
    9ce4:	e0804002 	add	r4, r0, r2
    9ce8:	e2444001 	sub	r4, r4, #1
    9cec:	e1a03000 	mov	r3, r0
    9cf0:	ea000004 	b	9d08 <strncpy+0x44>
    9cf4:	e5f1c001 	ldrb	ip, [r1, #1]!
    9cf8:	e5e3c001 	strb	ip, [r3, #1]!
    9cfc:	e5d22001 	ldrb	r2, [r2, #1]
    9d00:	e3520000 	cmp	r2, #0
    9d04:	0a000002 	beq	9d14 <strncpy+0x50>
    9d08:	e1530004 	cmp	r3, r4
    9d0c:	e1a02001 	mov	r2, r1
    9d10:	1afffff7 	bne	9cf4 <strncpy+0x30>
    9d14:	e49d4004 	pop	{r4}		; (ldr r4, [sp], #4)
    9d18:	e12fff1e 	bx	lr

00009d1c <strlen>:
    9d1c:	e5d03000 	ldrb	r3, [r0]
    9d20:	e3530000 	cmp	r3, #0
    9d24:	0a000006 	beq	9d44 <strlen+0x28>
    9d28:	e1a03000 	mov	r3, r0
    9d2c:	e3a00000 	mov	r0, #0
    9d30:	e5f32001 	ldrb	r2, [r3, #1]!
    9d34:	e2800001 	add	r0, r0, #1
    9d38:	e3520000 	cmp	r2, #0
    9d3c:	1afffffb 	bne	9d30 <strlen+0x14>
    9d40:	e12fff1e 	bx	lr
    9d44:	e1a00003 	mov	r0, r3
    9d48:	e12fff1e 	bx	lr

00009d4c <memset>:
    9d4c:	e92d41f0 	push	{r4, r5, r6, r7, r8, lr}
    9d50:	e1a05002 	mov	r5, r2
    9d54:	e1a06000 	mov	r6, r0
    9d58:	e1a07001 	mov	r7, r1
    9d5c:	e59f0070 	ldr	r0, [pc, #112]	; 9dd4 <memset+0x88>
    9d60:	e1a01002 	mov	r1, r2
    9d64:	ebfffedc 	bl	98dc <printk>
    9d68:	e3550000 	cmp	r5, #0
    9d6c:	0a000013 	beq	9dc0 <memset+0x74>
    9d70:	e59f8060 	ldr	r8, [pc, #96]	; 9dd8 <memset+0x8c>
    9d74:	e6ef7077 	uxtb	r7, r7
    9d78:	e3a04000 	mov	r4, #0
    9d7c:	ea000003 	b	9d90 <memset+0x44>
    9d80:	e7c67004 	strb	r7, [r6, r4]
    9d84:	e2844001 	add	r4, r4, #1
    9d88:	e1540005 	cmp	r4, r5
    9d8c:	0a00000b 	beq	9dc0 <memset+0x74>
    9d90:	e0832498 	umull	r2, r3, r8, r4
    9d94:	e1a031a3 	lsr	r3, r3, #3
    9d98:	e0833103 	add	r3, r3, r3, lsl #2
    9d9c:	e1540083 	cmp	r4, r3, lsl #1
    9da0:	1afffff6 	bne	9d80 <memset+0x34>
    9da4:	e1a01004 	mov	r1, r4
    9da8:	e59f002c 	ldr	r0, [pc, #44]	; 9ddc <memset+0x90>
    9dac:	ebfffeca 	bl	98dc <printk>
    9db0:	e7c67004 	strb	r7, [r6, r4]
    9db4:	e2844001 	add	r4, r4, #1
    9db8:	e1540005 	cmp	r4, r5
    9dbc:	1afffff3 	bne	9d90 <memset+0x44>
    9dc0:	e1a01005 	mov	r1, r5
    9dc4:	e59f0010 	ldr	r0, [pc, #16]	; 9ddc <memset+0x90>
    9dc8:	ebfffec3 	bl	98dc <printk>
    9dcc:	e3a00000 	mov	r0, #0
    9dd0:	e8bd81f0 	pop	{r4, r5, r6, r7, r8, pc}
    9dd4:	0000b724 	andeq	fp, r0, r4, lsr #14
    9dd8:	cccccccd 	stclgt	12, cr12, [ip], {205}	; 0xcd
    9ddc:	0000b824 	andeq	fp, r0, r4, lsr #16

00009de0 <memset32>:
    9de0:	e6ef1071 	uxtb	r1, r1
    9de4:	e1a0c801 	lsl	ip, r1, #16
    9de8:	e18cc401 	orr	ip, ip, r1, lsl #8
    9dec:	e92d0030 	push	{r4, r5}
    9df0:	e18cc001 	orr	ip, ip, r1
    9df4:	e2105003 	ands	r5, r0, #3
    9df8:	e18ccc01 	orr	ip, ip, r1, lsl #24
    9dfc:	01a04002 	moveq	r4, r2
    9e00:	01a03000 	moveq	r3, r0
    9e04:	0a000006 	beq	9e24 <memset32+0x44>
    9e08:	e2654004 	rsb	r4, r5, #4
    9e0c:	e0804004 	add	r4, r0, r4
    9e10:	e1a03000 	mov	r3, r0
    9e14:	e4c31001 	strb	r1, [r3], #1
    9e18:	e1530004 	cmp	r3, r4
    9e1c:	1afffffc 	bne	9e14 <memset32+0x34>
    9e20:	e2424001 	sub	r4, r2, #1
    9e24:	e1b04124 	lsrs	r4, r4, #2
    9e28:	10834104 	addne	r4, r3, r4, lsl #2
    9e2c:	0a000002 	beq	9e3c <memset32+0x5c>
    9e30:	e483c004 	str	ip, [r3], #4
    9e34:	e1530004 	cmp	r3, r4
    9e38:	1afffffc 	bne	9e30 <memset32+0x50>
    9e3c:	e3550000 	cmp	r5, #0
    9e40:	0a000006 	beq	9e60 <memset32+0x80>
    9e44:	e0652002 	rsb	r2, r5, r2
    9e48:	e0803005 	add	r3, r0, r5
    9e4c:	e0833002 	add	r3, r3, r2
    9e50:	e0800002 	add	r0, r0, r2
    9e54:	e4c01001 	strb	r1, [r0], #1
    9e58:	e1500003 	cmp	r0, r3
    9e5c:	1afffffc 	bne	9e54 <memset32+0x74>
    9e60:	e3a00000 	mov	r0, #0
    9e64:	e8bd0030 	pop	{r4, r5}
    9e68:	e12fff1e 	bx	lr

00009e6c <asm_memset>:
    9e6c:	e92d41f0 	push	{r4, r5, r6, r7, r8, lr}
    9e70:	e2103003 	ands	r3, r0, #3
    9e74:	e1a0c000 	mov	ip, r0
    9e78:	0a000006 	beq	9e98 <asm_memset_4bytealigned>
    9e7c:	e2522004 	subs	r2, r2, #4
    9e80:	ba00001a 	blt	9ef0 <asm_memset_lessthan4>
    9e84:	e3530002 	cmp	r3, #2
    9e88:	b4cc1001 	strblt	r1, [ip], #1
    9e8c:	d4cc1001 	strble	r1, [ip], #1
    9e90:	e4cc1001 	strb	r1, [ip], #1
    9e94:	e0822003 	add	r2, r2, r3

00009e98 <asm_memset_4bytealigned>:
    9e98:	e1811401 	orr	r1, r1, r1, lsl #8
    9e9c:	e1811801 	orr	r1, r1, r1, lsl #16
    9ea0:	e1a03001 	mov	r3, r1
    9ea4:	e1a04001 	mov	r4, r1
    9ea8:	e1a05001 	mov	r5, r1
    9eac:	e1a06001 	mov	r6, r1
    9eb0:	e1a07001 	mov	r7, r1
    9eb4:	e1a08001 	mov	r8, r1
    9eb8:	e1a0e001 	mov	lr, r1

00009ebc <asm_memset_loop>:
    9ebc:	e2522040 	subs	r2, r2, #64	; 0x40
    9ec0:	a8ac41fa 	stmiage	ip!, {r1, r3, r4, r5, r6, r7, r8, lr}
    9ec4:	a8ac41fa 	stmiage	ip!, {r1, r3, r4, r5, r6, r7, r8, lr}
    9ec8:	cafffffb 	bgt	9ebc <asm_memset_loop>
    9ecc:	0a00000c 	beq	9f04 <asm_memset_done>
    9ed0:	e3120020 	tst	r2, #32
    9ed4:	18ac41fa 	stmiane	ip!, {r1, r3, r4, r5, r6, r7, r8, lr}
    9ed8:	e3120010 	tst	r2, #16
    9edc:	18ac00f0 	stmiane	ip!, {r4, r5, r6, r7}
    9ee0:	e3120008 	tst	r2, #8
    9ee4:	18ac000a 	stmiane	ip!, {r1, r3}
    9ee8:	e3120004 	tst	r2, #4
    9eec:	148c1004 	strne	r1, [ip], #4

00009ef0 <asm_memset_lessthan4>:
    9ef0:	e3120002 	tst	r2, #2
    9ef4:	14cc1001 	strbne	r1, [ip], #1
    9ef8:	14cc1001 	strbne	r1, [ip], #1
    9efc:	e3120001 	tst	r2, #1
    9f00:	14cc1001 	strbne	r1, [ip], #1

00009f04 <asm_memset_done>:
    9f04:	e8bd41f0 	pop	{r4, r5, r6, r7, r8, lr}
    9f08:	e12fff1e 	bx	lr

00009f0c <test_memset>:
    9f0c:	e92d41f0 	push	{r4, r5, r6, r7, r8, lr}
    9f10:	e1a07002 	mov	r7, r2
    9f14:	e1a08000 	mov	r8, r0
    9f18:	e59f00a8 	ldr	r0, [pc, #168]	; 9fc8 <test_memset+0xbc>
    9f1c:	e1a05001 	mov	r5, r1
    9f20:	ebfffe6d 	bl	98dc <printk>
    9f24:	e3570000 	cmp	r7, #0
    9f28:	da000021 	ble	9fb4 <test_memset+0xa8>
    9f2c:	e3a06000 	mov	r6, #0
    9f30:	e1a04006 	mov	r4, r6
    9f34:	e7d8c004 	ldrb	ip, [r8, r4]
    9f38:	e1a01004 	mov	r1, r4
    9f3c:	e15c0005 	cmp	ip, r5
    9f40:	e2844001 	add	r4, r4, #1
    9f44:	e59f0080 	ldr	r0, [pc, #128]	; 9fcc <test_memset+0xc0>
    9f48:	e1a0200c 	mov	r2, ip
    9f4c:	e1a03005 	mov	r3, r5
    9f50:	0a000003 	beq	9f64 <test_memset+0x58>
    9f54:	e2866001 	add	r6, r6, #1
    9f58:	ebfffe5f 	bl	98dc <printk>
    9f5c:	e3560014 	cmp	r6, #20
    9f60:	ca00000a 	bgt	9f90 <test_memset+0x84>
    9f64:	e1540007 	cmp	r4, r7
    9f68:	1afffff1 	bne	9f34 <test_memset+0x28>
    9f6c:	e0884004 	add	r4, r8, r4
    9f70:	e5d43001 	ldrb	r3, [r4, #1]
    9f74:	e1530005 	cmp	r3, r5
    9f78:	0a000008 	beq	9fa0 <test_memset+0x94>
    9f7c:	e3560000 	cmp	r6, #0
    9f80:	1a000008 	bne	9fa8 <test_memset+0x9c>
    9f84:	e8bd41f0 	pop	{r4, r5, r6, r7, r8, lr}
    9f88:	e59f0040 	ldr	r0, [pc, #64]	; 9fd0 <test_memset+0xc4>
    9f8c:	eafffe52 	b	98dc <printk>
    9f90:	e0887007 	add	r7, r8, r7
    9f94:	e5d73001 	ldrb	r3, [r7, #1]
    9f98:	e1530005 	cmp	r3, r5
    9f9c:	1a000001 	bne	9fa8 <test_memset+0x9c>
    9fa0:	e59f002c 	ldr	r0, [pc, #44]	; 9fd4 <test_memset+0xc8>
    9fa4:	ebfffe4c 	bl	98dc <printk>
    9fa8:	e8bd41f0 	pop	{r4, r5, r6, r7, r8, lr}
    9fac:	e59f0024 	ldr	r0, [pc, #36]	; 9fd8 <test_memset+0xcc>
    9fb0:	eafffe49 	b	98dc <printk>
    9fb4:	e0887007 	add	r7, r8, r7
    9fb8:	e5d73001 	ldrb	r3, [r7, #1]
    9fbc:	e1530005 	cmp	r3, r5
    9fc0:	1affffef 	bne	9f84 <test_memset+0x78>
    9fc4:	eafffff5 	b	9fa0 <test_memset+0x94>
    9fc8:	0000b72c 	andeq	fp, r0, ip, lsr #14
    9fcc:	0000b738 	andeq	fp, r0, r8, lsr r7
    9fd0:	0000b790 	muleq	r0, r0, r7
    9fd4:	0000b75c 	andeq	fp, r0, ip, asr r7
    9fd8:	0000b784 	andeq	fp, r0, r4, lsl #15

00009fdc <swi_handler>:
    9fdc:	e92d509f 	push	{r0, r1, r2, r3, r4, r7, ip, lr}
    9fe0:	eb000001 	bl	9fec <swi_handler_c>
    9fe4:	e58d0000 	str	r0, [sp]
    9fe8:	e8fd909f 	ldm	sp!, {r0, r1, r2, r3, r4, r7, ip, pc}^

00009fec <swi_handler_c>:
    9fec:	e357000d 	cmp	r7, #13
    9ff0:	e92d4098 	push	{r3, r4, r7, lr}
    9ff4:	e1a04000 	mov	r4, r0
    9ff8:	0a000028 	beq	a0a0 <swi_handler_c+0xb4>
    9ffc:	ca00000b 	bgt	a030 <swi_handler_c+0x44>
    a000:	e3570003 	cmp	r7, #3
    a004:	0a00001e 	beq	a084 <swi_handler_c+0x98>
    a008:	e3570004 	cmp	r7, #4
    a00c:	1a00000f 	bne	a050 <swi_handler_c+0x64>
    a010:	e2403001 	sub	r3, r0, #1
    a014:	e3530001 	cmp	r3, #1
    a018:	9a000031 	bls	a0e4 <swi_handler_c+0xf8>
    a01c:	e1a01000 	mov	r1, r0
    a020:	e59f00cc 	ldr	r0, [pc, #204]	; a0f4 <swi_handler_c+0x108>
    a024:	ebfffe2c 	bl	98dc <printk>
    a028:	e3e00000 	mvn	r0, #0
    a02c:	e8bd8098 	pop	{r3, r4, r7, pc}
    a030:	e3570a02 	cmp	r7, #8192	; 0x2000
    a034:	0a00000a 	beq	a064 <swi_handler_c+0x78>
    a038:	e59f30b8 	ldr	r3, [pc, #184]	; a0f8 <swi_handler_c+0x10c>
    a03c:	e1570003 	cmp	r7, r3
    a040:	1a000002 	bne	a050 <swi_handler_c+0x64>
    a044:	ebfffae5 	bl	8be0 <framebuffer_gradient>
    a048:	e3a00000 	mov	r0, #0
    a04c:	e8bd8098 	pop	{r3, r4, r7, pc}
    a050:	e1a01007 	mov	r1, r7
    a054:	e59f00a0 	ldr	r0, [pc, #160]	; a0fc <swi_handler_c+0x110>
    a058:	ebfffe1f 	bl	98dc <printk>
    a05c:	e3a00000 	mov	r0, #0
    a060:	e8bd8098 	pop	{r3, r4, r7, pc}
    a064:	e3500000 	cmp	r0, #0
    a068:	1a000012 	bne	a0b8 <swi_handler_c+0xcc>
    a06c:	e59f008c 	ldr	r0, [pc, #140]	; a100 <swi_handler_c+0x114>
    a070:	ebfffe19 	bl	98dc <printk>
    a074:	e59f3088 	ldr	r3, [pc, #136]	; a104 <swi_handler_c+0x118>
    a078:	e1a00004 	mov	r0, r4
    a07c:	e5834000 	str	r4, [r3]
    a080:	e8bd8098 	pop	{r3, r4, r7, pc}
    a084:	e3500000 	cmp	r0, #0
    a088:	0a000011 	beq	a0d4 <swi_handler_c+0xe8>
    a08c:	e1a01000 	mov	r1, r0
    a090:	e59f0070 	ldr	r0, [pc, #112]	; a108 <swi_handler_c+0x11c>
    a094:	ebfffe10 	bl	98dc <printk>
    a098:	e3e00000 	mvn	r0, #0
    a09c:	e8bd8098 	pop	{r3, r4, r7, pc}
    a0a0:	e59f3064 	ldr	r3, [pc, #100]	; a10c <swi_handler_c+0x120>
    a0a4:	e3a00000 	mov	r0, #0
    a0a8:	e5933000 	ldr	r3, [r3]
    a0ac:	e1a03323 	lsr	r3, r3, #6
    a0b0:	e5843000 	str	r3, [r4]
    a0b4:	e8bd8098 	pop	{r3, r4, r7, pc}
    a0b8:	e59f0050 	ldr	r0, [pc, #80]	; a110 <swi_handler_c+0x124>
    a0bc:	ebfffe06 	bl	98dc <printk>
    a0c0:	e59f303c 	ldr	r3, [pc, #60]	; a104 <swi_handler_c+0x118>
    a0c4:	e3a02001 	mov	r2, #1
    a0c8:	e5832000 	str	r2, [r3]
    a0cc:	e3a00000 	mov	r0, #0
    a0d0:	e8bd8098 	pop	{r3, r4, r7, pc}
    a0d4:	e1a00001 	mov	r0, r1
    a0d8:	e8bd4098 	pop	{r3, r4, r7, lr}
    a0dc:	e1a01002 	mov	r1, r2
    a0e0:	eafff9f4 	b	88b8 <console_read>
    a0e4:	e1a00001 	mov	r0, r1
    a0e8:	e8bd4098 	pop	{r3, r4, r7, lr}
    a0ec:	e1a01002 	mov	r1, r2
    a0f0:	eafff9e8 	b	8898 <console_write>
    a0f4:	0000b7c8 	andeq	fp, r0, r8, asr #15
    a0f8:	00002002 	andeq	r2, r0, r2
    a0fc:	0000b814 	andeq	fp, r0, r4, lsl r8
    a100:	0000b7f0 	strdeq	fp, [r0], -r0
    a104:	0000c004 	andeq	ip, r0, r4
    a108:	0000b79c 	muleq	r0, ip, r7
    a10c:	0001166c 	andeq	r1, r1, ip, ror #12
    a110:	0000b804 	andeq	fp, r0, r4, lsl #16

0000a114 <timer_init>:
    a114:	e59f3038 	ldr	r3, [pc, #56]	; a154 <timer_init+0x40>
    a118:	e5933000 	ldr	r3, [r3]
    a11c:	e59f3034 	ldr	r3, [pc, #52]	; a158 <timer_init+0x44>
    a120:	e3a020f9 	mov	r2, #249	; 0xf9
    a124:	e5832000 	str	r2, [r3]
    a128:	e3a0203d 	mov	r2, #61	; 0x3d
    a12c:	e243301c 	sub	r3, r3, #28
    a130:	e5832000 	str	r2, [r3]
    a134:	e3a020aa 	mov	r2, #170	; 0xaa
    a138:	e2833008 	add	r3, r3, #8
    a13c:	e5832000 	str	r2, [r3]
    a140:	e3a02001 	mov	r2, #1
    a144:	e2433e1f 	sub	r3, r3, #496	; 0x1f0
    a148:	e5832000 	str	r2, [r3]
    a14c:	e3a00000 	mov	r0, #0
    a150:	e12fff1e 	bx	lr
    a154:	2000b408 	andcs	fp, r0, r8, lsl #8
    a158:	2000b41c 	andcs	fp, r0, ip, lsl r4

0000a15c <ticks_since_boot>:
    a15c:	e59f3004 	ldr	r3, [pc, #4]	; a168 <ticks_since_boot+0xc>
    a160:	e5930000 	ldr	r0, [r3]
    a164:	e12fff1e 	bx	lr
    a168:	0001166c 	andeq	r1, r1, ip, ror #12

0000a16c <shell>:
    a16c:	e92d40b0 	push	{r4, r5, r7, lr}
    a170:	e59f0128 	ldr	r0, [pc, #296]	; a2a0 <shell+0x134>
    a174:	e24ddf42 	sub	sp, sp, #264	; 0x108
    a178:	eb000077 	bl	a35c <printf>
    a17c:	e28d4008 	add	r4, sp, #8
    a180:	e59f011c 	ldr	r0, [pc, #284]	; a2a4 <shell+0x138>
    a184:	eb000074 	bl	a35c <printf>
    a188:	e3a05000 	mov	r5, #0
    a18c:	eb000065 	bl	a328 <getchar>
    a190:	e350000a 	cmp	r0, #10
    a194:	1350000d 	cmpne	r0, #13
    a198:	1a000020 	bne	a220 <shell+0xb4>
    a19c:	e28d3f42 	add	r3, sp, #264	; 0x108
    a1a0:	e0835005 	add	r5, r3, r5
    a1a4:	e59f00fc 	ldr	r0, [pc, #252]	; a2a8 <shell+0x13c>
    a1a8:	e3a03000 	mov	r3, #0
    a1ac:	e5453100 	strb	r3, [r5, #-256]	; 0x100
    a1b0:	eb000069 	bl	a35c <printf>
    a1b4:	e1a00004 	mov	r0, r4
    a1b8:	e59f10ec 	ldr	r1, [pc, #236]	; a2ac <shell+0x140>
    a1bc:	e3a02004 	mov	r2, #4
    a1c0:	ebfffe85 	bl	9bdc <strncmp>
    a1c4:	e3500000 	cmp	r0, #0
    a1c8:	0a000018 	beq	a230 <shell+0xc4>
    a1cc:	e1a00004 	mov	r0, r4
    a1d0:	e59f10d8 	ldr	r1, [pc, #216]	; a2b0 <shell+0x144>
    a1d4:	e3a02004 	mov	r2, #4
    a1d8:	ebfffe7f 	bl	9bdc <strncmp>
    a1dc:	e3500000 	cmp	r0, #0
    a1e0:	0a000015 	beq	a23c <shell+0xd0>
    a1e4:	e1a00004 	mov	r0, r4
    a1e8:	e59f10c4 	ldr	r1, [pc, #196]	; a2b4 <shell+0x148>
    a1ec:	e3a02004 	mov	r2, #4
    a1f0:	ebfffe79 	bl	9bdc <strncmp>
    a1f4:	e3500000 	cmp	r0, #0
    a1f8:	1a000016 	bne	a258 <shell+0xec>
    a1fc:	e59f70b4 	ldr	r7, [pc, #180]	; a2b8 <shell+0x14c>
    a200:	ef000000 	svc	0x00000000
    a204:	e59f0098 	ldr	r0, [pc, #152]	; a2a4 <shell+0x138>
    a208:	eb000053 	bl	a35c <printf>
    a20c:	eb000045 	bl	a328 <getchar>
    a210:	e350000a 	cmp	r0, #10
    a214:	1350000d 	cmpne	r0, #13
    a218:	e3a05000 	mov	r5, #0
    a21c:	0affffde 	beq	a19c <shell+0x30>
    a220:	e7c40005 	strb	r0, [r4, r5]
    a224:	e2855001 	add	r5, r5, #1
    a228:	eb000031 	bl	a2f4 <putchar>
    a22c:	eaffffd6 	b	a18c <shell+0x20>
    a230:	e59f0084 	ldr	r0, [pc, #132]	; a2bc <shell+0x150>
    a234:	eb000048 	bl	a35c <printf>
    a238:	eaffffd0 	b	a180 <shell+0x14>
    a23c:	e28d0004 	add	r0, sp, #4
    a240:	e3a0700d 	mov	r7, #13
    a244:	ef000000 	svc	0x00000000
    a248:	e59f0070 	ldr	r0, [pc, #112]	; a2c0 <shell+0x154>
    a24c:	e59d1004 	ldr	r1, [sp, #4]
    a250:	eb000041 	bl	a35c <printf>
    a254:	eaffffc9 	b	a180 <shell+0x14>
    a258:	e1a00004 	mov	r0, r4
    a25c:	e59f1060 	ldr	r1, [pc, #96]	; a2c4 <shell+0x158>
    a260:	e3a02004 	mov	r2, #4
    a264:	ebfffe5c 	bl	9bdc <strncmp>
    a268:	e3500000 	cmp	r0, #0
    a26c:	0a000008 	beq	a294 <shell+0x128>
    a270:	e1a00004 	mov	r0, r4
    a274:	e59f104c 	ldr	r1, [pc, #76]	; a2c8 <shell+0x15c>
    a278:	e3a02004 	mov	r2, #4
    a27c:	ebfffe56 	bl	9bdc <strncmp>
    a280:	e3500000 	cmp	r0, #0
    a284:	059f0040 	ldreq	r0, [pc, #64]	; a2cc <shell+0x160>
    a288:	159f0040 	ldrne	r0, [pc, #64]	; a2d0 <shell+0x164>
    a28c:	eb000032 	bl	a35c <printf>
    a290:	eaffffba 	b	a180 <shell+0x14>
    a294:	e59f0038 	ldr	r0, [pc, #56]	; a2d4 <shell+0x168>
    a298:	eb00002f 	bl	a35c <printf>
    a29c:	eaffffb7 	b	a180 <shell+0x14>
    a2a0:	0000b828 	andeq	fp, r0, r8, lsr #16
    a2a4:	0000b834 	andeq	fp, r0, r4, lsr r8
    a2a8:	0000b758 	andeq	fp, r0, r8, asr r7
    a2ac:	0000b4b0 			; <UNDEFINED> instruction: 0x0000b4b0
    a2b0:	0000b844 	andeq	fp, r0, r4, asr #16
    a2b4:	0000b858 	andeq	fp, r0, r8, asr r8
    a2b8:	00002002 	andeq	r2, r0, r2
    a2bc:	0000b838 	andeq	fp, r0, r8, lsr r8
    a2c0:	0000b84c 	andeq	fp, r0, ip, asr #16
    a2c4:	0000b864 	andeq	fp, r0, r4, ror #16
    a2c8:	0000b87c 	andeq	fp, r0, ip, ror r8
    a2cc:	0000b884 	andeq	fp, r0, r4, lsl #17
    a2d0:	0000b8ac 	andeq	fp, r0, ip, lsr #17
    a2d4:	0000b86c 	andeq	fp, r0, ip, ror #16

0000a2d8 <write>:
    a2d8:	e52d7004 	push	{r7}		; (str r7, [sp, #-4]!)
    a2dc:	e3a07004 	mov	r7, #4
    a2e0:	ef000000 	svc	0x00000000
    a2e4:	e3700a01 	cmn	r0, #4096	; 0x1000
    a2e8:	83e00000 	mvnhi	r0, #0
    a2ec:	e49d7004 	pop	{r7}		; (ldr r7, [sp], #4)
    a2f0:	e12fff1e 	bx	lr

0000a2f4 <putchar>:
    a2f4:	e52d7004 	push	{r7}		; (str r7, [sp, #-4]!)
    a2f8:	e24dd00c 	sub	sp, sp, #12
    a2fc:	e28d1008 	add	r1, sp, #8
    a300:	e5610004 	strb	r0, [r1, #-4]!
    a304:	e3a00001 	mov	r0, #1
    a308:	e1a02000 	mov	r2, r0
    a30c:	e3a07004 	mov	r7, #4
    a310:	ef000000 	svc	0x00000000
    a314:	e3700a01 	cmn	r0, #4096	; 0x1000
    a318:	83e00000 	mvnhi	r0, #0
    a31c:	e28dd00c 	add	sp, sp, #12
    a320:	e49d7004 	pop	{r7}		; (ldr r7, [sp], #4)
    a324:	e12fff1e 	bx	lr

0000a328 <getchar>:
    a328:	e52d7004 	push	{r7}		; (str r7, [sp, #-4]!)
    a32c:	e24dd00c 	sub	sp, sp, #12
    a330:	e3a00000 	mov	r0, #0
    a334:	e28d1004 	add	r1, sp, #4
    a338:	e3a02001 	mov	r2, #1
    a33c:	e3a07003 	mov	r7, #3
    a340:	ef000000 	svc	0x00000000
    a344:	e5dd0004 	ldrb	r0, [sp, #4]
    a348:	e3500000 	cmp	r0, #0
    a34c:	0afffff7 	beq	a330 <getchar+0x8>
    a350:	e28dd00c 	add	sp, sp, #12
    a354:	e49d7004 	pop	{r7}		; (ldr r7, [sp], #4)
    a358:	e12fff1e 	bx	lr

0000a35c <printf>:
    a35c:	e92d000f 	push	{r0, r1, r2, r3}
    a360:	e92d00f0 	push	{r4, r5, r6, r7}
    a364:	e24dde11 	sub	sp, sp, #272	; 0x110
    a368:	e28d7f49 	add	r7, sp, #292	; 0x124
    a36c:	e59d0120 	ldr	r0, [sp, #288]	; 0x120
    a370:	e59f617c 	ldr	r6, [pc, #380]	; a4f4 <printf+0x198>
    a374:	e58d7000 	str	r7, [sp]
    a378:	e3a02000 	mov	r2, #0
    a37c:	ea000006 	b	a39c <printf+0x40>
    a380:	e28dce11 	add	ip, sp, #272	; 0x110
    a384:	e08c1002 	add	r1, ip, r2
    a388:	e2800001 	add	r0, r0, #1
    a38c:	e5413100 	strb	r3, [r1, #-256]	; 0x100
    a390:	e2822001 	add	r2, r2, #1
    a394:	e35200ff 	cmp	r2, #255	; 0xff
    a398:	0a00002d 	beq	a454 <printf+0xf8>
    a39c:	e5d03000 	ldrb	r3, [r0]
    a3a0:	e3530000 	cmp	r3, #0
    a3a4:	0a00002a 	beq	a454 <printf+0xf8>
    a3a8:	e3530025 	cmp	r3, #37	; 0x25
    a3ac:	1afffff3 	bne	a380 <printf+0x24>
    a3b0:	e5d03001 	ldrb	r3, [r0, #1]
    a3b4:	e3530064 	cmp	r3, #100	; 0x64
    a3b8:	0a00002e 	beq	a478 <printf+0x11c>
    a3bc:	e3530078 	cmp	r3, #120	; 0x78
    a3c0:	12800001 	addne	r0, r0, #1
    a3c4:	1afffff2 	bne	a394 <printf+0x38>
    a3c8:	e5971000 	ldr	r1, [r7]
    a3cc:	e2800002 	add	r0, r0, #2
    a3d0:	e2877004 	add	r7, r7, #4
    a3d4:	e3a03009 	mov	r3, #9
    a3d8:	e28d5004 	add	r5, sp, #4
    a3dc:	ea000000 	b	a3e4 <printf+0x88>
    a3e0:	e1a0300c 	mov	r3, ip
    a3e4:	e1a0cfc1 	asr	ip, r1, #31
    a3e8:	e1a0ce2c 	lsr	ip, ip, #28
    a3ec:	e081400c 	add	r4, r1, ip
    a3f0:	e204400f 	and	r4, r4, #15
    a3f4:	e06cc004 	rsb	ip, ip, r4
    a3f8:	e35c0009 	cmp	ip, #9
    a3fc:	d28cc030 	addle	ip, ip, #48	; 0x30
    a400:	c28cc057 	addgt	ip, ip, #87	; 0x57
    a404:	e7c5c003 	strb	ip, [r5, r3]
    a408:	e3510000 	cmp	r1, #0
    a40c:	e281c00f 	add	ip, r1, #15
    a410:	b1a0100c 	movlt	r1, ip
    a414:	e1b01241 	asrs	r1, r1, #4
    a418:	e243c001 	sub	ip, r3, #1
    a41c:	1affffef 	bne	a3e0 <printf+0x84>
    a420:	e063c002 	rsb	ip, r3, r2
    a424:	e28d1010 	add	r1, sp, #16
    a428:	e081c00c 	add	ip, r1, ip
    a42c:	e1a04003 	mov	r4, r3
    a430:	e7d51003 	ldrb	r1, [r5, r3]
    a434:	e7cc1003 	strb	r1, [ip, r3]
    a438:	e2833001 	add	r3, r3, #1
    a43c:	e353000a 	cmp	r3, #10
    a440:	1afffffa 	bne	a430 <printf+0xd4>
    a444:	e282200a 	add	r2, r2, #10
    a448:	e0642002 	rsb	r2, r4, r2
    a44c:	e35200ff 	cmp	r2, #255	; 0xff
    a450:	1affffd1 	bne	a39c <printf+0x40>
    a454:	e3a00001 	mov	r0, #1
    a458:	e28d1010 	add	r1, sp, #16
    a45c:	e3a07004 	mov	r7, #4
    a460:	ef000000 	svc	0x00000000
    a464:	e1a00002 	mov	r0, r2
    a468:	e28dde11 	add	sp, sp, #272	; 0x110
    a46c:	e8bd00f0 	pop	{r4, r5, r6, r7}
    a470:	e28dd010 	add	sp, sp, #16
    a474:	e12fff1e 	bx	lr
    a478:	e597c000 	ldr	ip, [r7]
    a47c:	e2800002 	add	r0, r0, #2
    a480:	e2877004 	add	r7, r7, #4
    a484:	e3a03009 	mov	r3, #9
    a488:	e28d5004 	add	r5, sp, #4
    a48c:	ea000000 	b	a494 <printf+0x138>
    a490:	e1a03001 	mov	r3, r1
    a494:	e0c41c96 	smull	r1, r4, r6, ip
    a498:	e1a01fcc 	asr	r1, ip, #31
    a49c:	e0611144 	rsb	r1, r1, r4, asr #2
    a4a0:	e0814101 	add	r4, r1, r1, lsl #2
    a4a4:	e04c4084 	sub	r4, ip, r4, lsl #1
    a4a8:	e2844030 	add	r4, r4, #48	; 0x30
    a4ac:	e6ef4074 	uxtb	r4, r4
    a4b0:	e251c000 	subs	ip, r1, #0
    a4b4:	e7c54003 	strb	r4, [r5, r3]
    a4b8:	e2431001 	sub	r1, r3, #1
    a4bc:	1afffff3 	bne	a490 <printf+0x134>
    a4c0:	e28dc010 	add	ip, sp, #16
    a4c4:	e0631002 	rsb	r1, r3, r2
    a4c8:	e08c1001 	add	r1, ip, r1
    a4cc:	e1a0c003 	mov	ip, r3
    a4d0:	ea000000 	b	a4d8 <printf+0x17c>
    a4d4:	e7d54003 	ldrb	r4, [r5, r3]
    a4d8:	e7c14003 	strb	r4, [r1, r3]
    a4dc:	e2833001 	add	r3, r3, #1
    a4e0:	e353000a 	cmp	r3, #10
    a4e4:	1afffffa 	bne	a4d4 <printf+0x178>
    a4e8:	e282200a 	add	r2, r2, #10
    a4ec:	e06c2002 	rsb	r2, ip, r2
    a4f0:	eaffffa7 	b	a394 <printf+0x38>
    a4f4:	66666667 	strbtvs	r6, [r6], -r7, ror #12
