
kernel.elf:     file format elf32-littlearm


Disassembly of section .text:

00008000 <__start>:
    8000:	e59ff018 	ldr	pc, [pc, #24]	; 8020 <reset_addr>
    8004:	e59ff018 	ldr	pc, [pc, #24]	; 8024 <undefined_instruction_addr>
    8008:	e59ff018 	ldr	pc, [pc, #24]	; 8028 <software_interrupt_addr>
    800c:	e59ff018 	ldr	pc, [pc, #24]	; 802c <prefetch_abort_addr>
    8010:	e59ff018 	ldr	pc, [pc, #24]	; 8030 <data_abort_addr>
    8014:	e59ff018 	ldr	pc, [pc, #24]	; 8034 <unused_handler_addr>
    8018:	e59ff018 	ldr	pc, [pc, #24]	; 8038 <interrupt_addr>
    801c:	e59ff018 	ldr	pc, [pc, #24]	; 803c <fast_interrupt_addr>

00008020 <reset_addr>:
    8020:	00008040 	andeq	r8, r0, r0, asr #32

00008024 <undefined_instruction_addr>:
    8024:	00008040 	andeq	r8, r0, r0, asr #32

00008028 <software_interrupt_addr>:
    8028:	00008040 	andeq	r8, r0, r0, asr #32

0000802c <prefetch_abort_addr>:
    802c:	00008040 	andeq	r8, r0, r0, asr #32

00008030 <data_abort_addr>:
    8030:	00008040 	andeq	r8, r0, r0, asr #32

00008034 <unused_handler_addr>:
    8034:	00008040 	andeq	r8, r0, r0, asr #32

00008038 <interrupt_addr>:
    8038:	000086e8 	andeq	r8, r0, r8, ror #13

0000803c <fast_interrupt_addr>:
    803c:	00008040 	andeq	r8, r0, r0, asr #32

00008040 <reset>:
    8040:	e3a0d902 	mov	sp, #32768	; 0x8000
    8044:	e3a030d2 	mov	r3, #210	; 0xd2
    8048:	e121f003 	msr	CPSR_c, r3
    804c:	e3a0d901 	mov	sp, #16384	; 0x4000
    8050:	e3a030d3 	mov	r3, #211	; 0xd3
    8054:	e121f003 	msr	CPSR_c, r3
    8058:	e59f303c 	ldr	r3, [pc, #60]	; 809c <wait_forever+0x8>
    805c:	e3a04000 	mov	r4, #0
    8060:	e8b31fe0 	ldm	r3!, {r5, r6, r7, r8, r9, sl, fp, ip}
    8064:	e8a41fe0 	stmia	r4!, {r5, r6, r7, r8, r9, sl, fp, ip}
    8068:	e8b31fe0 	ldm	r3!, {r5, r6, r7, r8, r9, sl, fp, ip}
    806c:	e8a41fe0 	stmia	r4!, {r5, r6, r7, r8, r9, sl, fp, ip}
    8070:	e59f4028 	ldr	r4, [pc, #40]	; 80a0 <wait_forever+0xc>
    8074:	e59f9028 	ldr	r9, [pc, #40]	; 80a4 <wait_forever+0x10>
    8078:	e3a05000 	mov	r5, #0

0000807c <clear_bss>:
    807c:	e5845000 	str	r5, [r4]
    8080:	e2844004 	add	r4, r4, #4
    8084:	e1540009 	cmp	r4, r9
    8088:	dafffffb 	ble	807c <clear_bss>
    808c:	e59f3014 	ldr	r3, [pc, #20]	; 80a8 <wait_forever+0x14>
    8090:	e12fff33 	blx	r3

00008094 <wait_forever>:
    8094:	e320f002 	wfe
    8098:	eafffffd 	b	8094 <wait_forever>
    809c:	00008000 	andeq	r8, r0, r0
    80a0:	0000c000 	andeq	ip, r0, r0
    80a4:	0000d000 	andeq	sp, r0, r0
    80a8:	000080ac 	andeq	r8, r0, ip, lsr #1

000080ac <kernel_main>:
    80ac:	e92d4070 	push	{r4, r5, r6, lr}
    80b0:	e24dd018 	sub	sp, sp, #24
    80b4:	e1a00002 	mov	r0, r2
    80b8:	e1a06001 	mov	r6, r1
    80bc:	e28d1004 	add	r1, sp, #4
    80c0:	e1a04002 	mov	r4, r2
    80c4:	e59f50f4 	ldr	r5, [pc, #244]	; 81c0 <kernel_main+0x114>
    80c8:	eb00010a 	bl	84f8 <atags_detect>
    80cc:	e59d300c 	ldr	r3, [sp, #12]
    80d0:	e5853000 	str	r3, [r5]
    80d4:	eb00031f 	bl	8d58 <uart_init>
    80d8:	eb00028e 	bl	8b18 <led_init>
    80dc:	eb0003e5 	bl	9078 <timer_init>
    80e0:	e10f3000 	mrs	r3, CPSR
    80e4:	e3c33080 	bic	r3, r3, #128	; 0x80
    80e8:	e12ff003 	msr	CPSR_fsxc, r3
    80ec:	e59f00d0 	ldr	r0, [pc, #208]	; 81c4 <kernel_main+0x118>
    80f0:	eb0002b2 	bl	8bc0 <printk>
    80f4:	eb000348 	bl	8e1c <uart_getc>
    80f8:	e1a01006 	mov	r1, r6
    80fc:	e59f00c4 	ldr	r0, [pc, #196]	; 81c8 <kernel_main+0x11c>
    8100:	eb0002ae 	bl	8bc0 <printk>
    8104:	e59f30c0 	ldr	r3, [pc, #192]	; 81cc <kernel_main+0x120>
    8108:	e1560003 	cmp	r6, r3
    810c:	059f00bc 	ldreq	r0, [pc, #188]	; 81d0 <kernel_main+0x124>
    8110:	159f00bc 	ldrne	r0, [pc, #188]	; 81d4 <kernel_main+0x128>
    8114:	eb0002a9 	bl	8bc0 <printk>
    8118:	e59f00b8 	ldr	r0, [pc, #184]	; 81d8 <kernel_main+0x12c>
    811c:	eb0002a7 	bl	8bc0 <printk>
    8120:	e59f00b4 	ldr	r0, [pc, #180]	; 81dc <kernel_main+0x130>
    8124:	eb0002a5 	bl	8bc0 <printk>
    8128:	e5951000 	ldr	r1, [r5]
    812c:	e2413001 	sub	r3, r1, #1
    8130:	e3530005 	cmp	r3, #5
    8134:	979ff103 	ldrls	pc, [pc, r3, lsl #2]
    8138:	ea00001d 	b	81b4 <kernel_main+0x108>
    813c:	00008178 	andeq	r8, r0, r8, ror r1
    8140:	00008184 	andeq	r8, r0, r4, lsl #3
    8144:	00008190 	muleq	r0, r0, r1
    8148:	0000819c 	muleq	r0, ip, r1
    814c:	000081a8 	andeq	r8, r0, r8, lsr #3
    8150:	00008154 	andeq	r8, r0, r4, asr r1
    8154:	e59f0084 	ldr	r0, [pc, #132]	; 81e0 <kernel_main+0x134>
    8158:	eb000298 	bl	8bc0 <printk>
    815c:	e59f0074 	ldr	r0, [pc, #116]	; 81d8 <kernel_main+0x12c>
    8160:	eb000296 	bl	8bc0 <printk>
    8164:	e1a00004 	mov	r0, r4
    8168:	eb000068 	bl	8310 <atags_dump>
    816c:	eb00034f 	bl	8eb0 <shell>
    8170:	e28dd018 	add	sp, sp, #24
    8174:	e8bd8070 	pop	{r4, r5, r6, pc}
    8178:	e59f0064 	ldr	r0, [pc, #100]	; 81e4 <kernel_main+0x138>
    817c:	eb00028f 	bl	8bc0 <printk>
    8180:	eafffff5 	b	815c <kernel_main+0xb0>
    8184:	e59f005c 	ldr	r0, [pc, #92]	; 81e8 <kernel_main+0x13c>
    8188:	eb00028c 	bl	8bc0 <printk>
    818c:	eafffff2 	b	815c <kernel_main+0xb0>
    8190:	e59f0054 	ldr	r0, [pc, #84]	; 81ec <kernel_main+0x140>
    8194:	eb000289 	bl	8bc0 <printk>
    8198:	eaffffef 	b	815c <kernel_main+0xb0>
    819c:	e59f004c 	ldr	r0, [pc, #76]	; 81f0 <kernel_main+0x144>
    81a0:	eb000286 	bl	8bc0 <printk>
    81a4:	eaffffec 	b	815c <kernel_main+0xb0>
    81a8:	e59f0044 	ldr	r0, [pc, #68]	; 81f4 <kernel_main+0x148>
    81ac:	eb000283 	bl	8bc0 <printk>
    81b0:	eaffffe9 	b	815c <kernel_main+0xb0>
    81b4:	e59f003c 	ldr	r0, [pc, #60]	; 81f8 <kernel_main+0x14c>
    81b8:	eb000280 	bl	8bc0 <printk>
    81bc:	eaffffe6 	b	815c <kernel_main+0xb0>
    81c0:	0000b000 	andeq	fp, r0, r0
    81c4:	0000a000 	andeq	sl, r0, r0
    81c8:	0000a038 	andeq	sl, r0, r8, lsr r0
    81cc:	00000c42 	andeq	r0, r0, r2, asr #24
    81d0:	0000a050 	andeq	sl, r0, r0, asr r0
    81d4:	0000a060 	andeq	sl, r0, r0, rrx
    81d8:	0000a2ac 	andeq	sl, r0, ip, lsr #5
    81dc:	0000a074 	andeq	sl, r0, r4, ror r0
    81e0:	0000a098 	muleq	r0, r8, r0
    81e4:	0000a084 	andeq	sl, r0, r4, lsl #1
    81e8:	0000a08c 	andeq	sl, r0, ip, lsl #1
    81ec:	0000a088 	andeq	sl, r0, r8, lsl #1
    81f0:	0000a090 	muleq	r0, r0, r0
    81f4:	0000a094 	muleq	r0, r4, r0
    81f8:	0000a0a8 	andeq	sl, r0, r8, lsr #1

000081fc <parse_cmdline_int>:
    81fc:	e92d47f0 	push	{r4, r5, r6, r7, r8, r9, sl, lr}
    8200:	e1a08001 	mov	r8, r1
    8204:	e1a0a000 	mov	sl, r0
    8208:	eb00037c 	bl	9000 <strlen>
    820c:	e1a06000 	mov	r6, r0
    8210:	e1a00008 	mov	r0, r8
    8214:	eb000379 	bl	9000 <strlen>
    8218:	e5da3000 	ldrb	r3, [sl]
    821c:	e1a07000 	mov	r7, r0
    8220:	e3530000 	cmp	r3, #0
    8224:	0a000030 	beq	82ec <parse_cmdline_int+0xf0>
    8228:	e1560000 	cmp	r6, r0
    822c:	3a00002e 	bcc	82ec <parse_cmdline_int+0xf0>
    8230:	e1e0900a 	mvn	r9, sl
    8234:	e0809009 	add	r9, r0, r9
    8238:	e28a4001 	add	r4, sl, #1
    823c:	e1a05000 	mov	r5, r0
    8240:	e1a0100a 	mov	r1, sl
    8244:	ea000006 	b	8264 <parse_cmdline_int+0x68>
    8248:	e5d43000 	ldrb	r3, [r4]
    824c:	e2844001 	add	r4, r4, #1
    8250:	e3530000 	cmp	r3, #0
    8254:	e0895004 	add	r5, r9, r4
    8258:	0a000023 	beq	82ec <parse_cmdline_int+0xf0>
    825c:	e1560005 	cmp	r6, r5
    8260:	3a000021 	bcc	82ec <parse_cmdline_int+0xf0>
    8264:	e1a00008 	mov	r0, r8
    8268:	e1a02007 	mov	r2, r7
    826c:	eb000313 	bl	8ec0 <strncmp>
    8270:	e3500000 	cmp	r0, #0
    8274:	e1a01004 	mov	r1, r4
    8278:	1afffff2 	bne	8248 <parse_cmdline_int+0x4c>
    827c:	e2852001 	add	r2, r5, #1
    8280:	e7da3002 	ldrb	r3, [sl, r2]
    8284:	e3530030 	cmp	r3, #48	; 0x30
    8288:	0a000019 	beq	82f4 <parse_cmdline_int+0xf8>
    828c:	e3a0100a 	mov	r1, #10
    8290:	e0823007 	add	r3, r2, r7
    8294:	e1560003 	cmp	r6, r3
    8298:	3a000013 	bcc	82ec <parse_cmdline_int+0xf0>
    829c:	e7da3002 	ldrb	r3, [sl, r2]
    82a0:	e08a2002 	add	r2, sl, r2
    82a4:	e31300df 	tst	r3, #223	; 0xdf
    82a8:	0a00000f 	beq	82ec <parse_cmdline_int+0xf0>
    82ac:	e26aa001 	rsb	sl, sl, #1
    82b0:	e087700a 	add	r7, r7, sl
    82b4:	e3a00000 	mov	r0, #0
    82b8:	ea000002 	b	82c8 <parse_cmdline_int+0xcc>
    82bc:	e5f23001 	ldrb	r3, [r2, #1]!
    82c0:	e31300df 	tst	r3, #223	; 0xdf
    82c4:	08bd87f0 	popeq	{r4, r5, r6, r7, r8, r9, sl, pc}
    82c8:	e0000190 	mul	r0, r0, r1
    82cc:	e3530039 	cmp	r3, #57	; 0x39
    82d0:	92400030 	subls	r0, r0, #48	; 0x30
    82d4:	82400057 	subhi	r0, r0, #87	; 0x57
    82d8:	e0800003 	add	r0, r0, r3
    82dc:	e0873002 	add	r3, r7, r2
    82e0:	e1560003 	cmp	r6, r3
    82e4:	2afffff4 	bcs	82bc <parse_cmdline_int+0xc0>
    82e8:	e8bd87f0 	pop	{r4, r5, r6, r7, r8, r9, sl, pc}
    82ec:	e3a00000 	mov	r0, #0
    82f0:	e8bd87f0 	pop	{r4, r5, r6, r7, r8, r9, sl, pc}
    82f4:	e08a3005 	add	r3, sl, r5
    82f8:	e5d33002 	ldrb	r3, [r3, #2]
    82fc:	e3530078 	cmp	r3, #120	; 0x78
    8300:	02852003 	addeq	r2, r5, #3
    8304:	03a01010 	moveq	r1, #16
    8308:	1affffdf 	bne	828c <parse_cmdline_int+0x90>
    830c:	eaffffdf 	b	8290 <parse_cmdline_int+0x94>

00008310 <atags_dump>:
    8310:	e92d47f0 	push	{r4, r5, r6, r7, r8, r9, sl, lr}
    8314:	e1a04000 	mov	r4, r0
    8318:	e59f018c 	ldr	r0, [pc, #396]	; 84ac <atags_dump+0x19c>
    831c:	eb000227 	bl	8bc0 <printk>
    8320:	e59f8188 	ldr	r8, [pc, #392]	; 84b0 <atags_dump+0x1a0>
    8324:	e59f9188 	ldr	r9, [pc, #392]	; 84b4 <atags_dump+0x1a4>
    8328:	e59fa188 	ldr	sl, [pc, #392]	; 84b8 <atags_dump+0x1a8>
    832c:	e5943004 	ldr	r3, [r4, #4]
    8330:	e5947000 	ldr	r7, [r4]
    8334:	e1530008 	cmp	r3, r8
    8338:	0a000011 	beq	8384 <atags_dump+0x74>
    833c:	9a000016 	bls	839c <atags_dump+0x8c>
    8340:	e1530009 	cmp	r3, r9
    8344:	0a00003a 	beq	8434 <atags_dump+0x124>
    8348:	8a000021 	bhi	83d4 <atags_dump+0xc4>
    834c:	e59f2168 	ldr	r2, [pc, #360]	; 84bc <atags_dump+0x1ac>
    8350:	e1530002 	cmp	r3, r2
    8354:	0a00002e 	beq	8414 <atags_dump+0x104>
    8358:	e2822001 	add	r2, r2, #1
    835c:	e1530002 	cmp	r3, r2
    8360:	1a000018 	bne	83c8 <atags_dump+0xb8>
    8364:	e5941008 	ldr	r1, [r4, #8]
    8368:	e59f0150 	ldr	r0, [pc, #336]	; 84c0 <atags_dump+0x1b0>
    836c:	e0844107 	add	r4, r4, r7, lsl #2
    8370:	eb000212 	bl	8bc0 <printk>
    8374:	e5943004 	ldr	r3, [r4, #4]
    8378:	e5947000 	ldr	r7, [r4]
    837c:	e1530008 	cmp	r3, r8
    8380:	1affffed 	bne	833c <atags_dump+0x2c>
    8384:	e59f0138 	ldr	r0, [pc, #312]	; 84c4 <atags_dump+0x1b4>
    8388:	e2841008 	add	r1, r4, #8
    838c:	e891000e 	ldm	r1, {r1, r2, r3}
    8390:	eb00020a 	bl	8bc0 <printk>
    8394:	e0844107 	add	r4, r4, r7, lsl #2
    8398:	eaffffe3 	b	832c <atags_dump+0x1c>
    839c:	e59f2124 	ldr	r2, [pc, #292]	; 84c8 <atags_dump+0x1b8>
    83a0:	e1530002 	cmp	r3, r2
    83a4:	0a000020 	beq	842c <atags_dump+0x11c>
    83a8:	9a000014 	bls	8400 <atags_dump+0xf0>
    83ac:	e59f2118 	ldr	r2, [pc, #280]	; 84cc <atags_dump+0x1bc>
    83b0:	e1530002 	cmp	r3, r2
    83b4:	0a000022 	beq	8444 <atags_dump+0x134>
    83b8:	e2822001 	add	r2, r2, #1
    83bc:	e1530002 	cmp	r3, r2
    83c0:	059f0108 	ldreq	r0, [pc, #264]	; 84d0 <atags_dump+0x1c0>
    83c4:	0affffef 	beq	8388 <atags_dump+0x78>
    83c8:	e59f0104 	ldr	r0, [pc, #260]	; 84d4 <atags_dump+0x1c4>
    83cc:	eb0001fb 	bl	8bc0 <printk>
    83d0:	eaffffd5 	b	832c <atags_dump+0x1c>
    83d4:	e153000a 	cmp	r3, sl
    83d8:	0a000020 	beq	8460 <atags_dump+0x150>
    83dc:	e59f20f4 	ldr	r2, [pc, #244]	; 84d8 <atags_dump+0x1c8>
    83e0:	e1530002 	cmp	r3, r2
    83e4:	1afffff7 	bne	83c8 <atags_dump+0xb8>
    83e8:	e594100c 	ldr	r1, [r4, #12]
    83ec:	e5942008 	ldr	r2, [r4, #8]
    83f0:	e59f00e4 	ldr	r0, [pc, #228]	; 84dc <atags_dump+0x1cc>
    83f4:	eb0001f1 	bl	8bc0 <printk>
    83f8:	e0844107 	add	r4, r4, r7, lsl #2
    83fc:	eaffffca 	b	832c <atags_dump+0x1c>
    8400:	e3530000 	cmp	r3, #0
    8404:	1affffef 	bne	83c8 <atags_dump+0xb8>
    8408:	e8bd47f0 	pop	{r4, r5, r6, r7, r8, r9, sl, lr}
    840c:	e59f00cc 	ldr	r0, [pc, #204]	; 84e0 <atags_dump+0x1d0>
    8410:	ea0001ea 	b	8bc0 <printk>
    8414:	e5941008 	ldr	r1, [r4, #8]
    8418:	e594200c 	ldr	r2, [r4, #12]
    841c:	e59f00c0 	ldr	r0, [pc, #192]	; 84e4 <atags_dump+0x1d4>
    8420:	eb0001e6 	bl	8bc0 <printk>
    8424:	e0844107 	add	r4, r4, r7, lsl #2
    8428:	eaffffbf 	b	832c <atags_dump+0x1c>
    842c:	e59f00b4 	ldr	r0, [pc, #180]	; 84e8 <atags_dump+0x1d8>
    8430:	eaffffd4 	b	8388 <atags_dump+0x78>
    8434:	e59f00b0 	ldr	r0, [pc, #176]	; 84ec <atags_dump+0x1dc>
    8438:	e0844107 	add	r4, r4, r7, lsl #2
    843c:	eb0001df 	bl	8bc0 <printk>
    8440:	eaffffb9 	b	832c <atags_dump+0x1c>
    8444:	e5941008 	ldr	r1, [r4, #8]
    8448:	e594300c 	ldr	r3, [r4, #12]
    844c:	e59f009c 	ldr	r0, [pc, #156]	; 84f0 <atags_dump+0x1e0>
    8450:	e1a02a21 	lsr	r2, r1, #20
    8454:	eb0001d9 	bl	8bc0 <printk>
    8458:	e0844107 	add	r4, r4, r7, lsl #2
    845c:	eaffffb2 	b	832c <atags_dump+0x1c>
    8460:	e2846008 	add	r6, r4, #8
    8464:	e1a00006 	mov	r0, r6
    8468:	eb0002e4 	bl	9000 <strlen>
    846c:	e1a05000 	mov	r5, r0
    8470:	e1a01000 	mov	r1, r0
    8474:	e59f0078 	ldr	r0, [pc, #120]	; 84f4 <atags_dump+0x1e4>
    8478:	eb0001d0 	bl	8bc0 <printk>
    847c:	e3550000 	cmp	r5, #0
    8480:	da000005 	ble	849c <atags_dump+0x18c>
    8484:	e1a00006 	mov	r0, r6
    8488:	e2455c01 	sub	r5, r5, #256	; 0x100
    848c:	eb0001cb 	bl	8bc0 <printk>
    8490:	e3550000 	cmp	r5, #0
    8494:	e2866c01 	add	r6, r6, #256	; 0x100
    8498:	cafffff9 	bgt	8484 <atags_dump+0x174>
    849c:	e59f003c 	ldr	r0, [pc, #60]	; 84e0 <atags_dump+0x1d0>
    84a0:	e0844107 	add	r4, r4, r7, lsl #2
    84a4:	eb0001c5 	bl	8bc0 <printk>
    84a8:	eaffff9f 	b	832c <atags_dump+0x1c>
    84ac:	0000a0b4 	strheq	sl, [r0], -r4
    84b0:	54410004 	strbpl	r0, [r1], #-4
    84b4:	54410008 	strbpl	r0, [r1], #-8
    84b8:	54410009 	strbpl	r0, [r1], #-9
    84bc:	54410006 	strbpl	r0, [r1], #-6
    84c0:	0000a1ec 	andeq	sl, r0, ip, ror #3
    84c4:	0000a17c 	andeq	sl, r0, ip, ror r1
    84c8:	54410001 	strbpl	r0, [r1], #-1
    84cc:	54410002 	strbpl	r0, [r1], #-2
    84d0:	0000a134 	andeq	sl, r0, r4, lsr r1
    84d4:	0000a230 	andeq	sl, r0, r0, lsr r2
    84d8:	54420005 	strbpl	r0, [r2], #-5
    84dc:	0000a1a8 	andeq	sl, r0, r8, lsr #3
    84e0:	0000a034 	andeq	sl, r0, r4, lsr r0
    84e4:	0000a1c8 	andeq	sl, r0, r8, asr #3
    84e8:	0000a0dc 	ldrdeq	sl, [r0], -ip
    84ec:	0000a204 	andeq	sl, r0, r4, lsl #4
    84f0:	0000a10c 	andeq	sl, r0, ip, lsl #2
    84f4:	0000a218 	andeq	sl, r0, r8, lsl r2

000084f8 <atags_detect>:
    84f8:	e92d47f0 	push	{r4, r5, r6, r7, r8, r9, sl, lr}
    84fc:	e1a07001 	mov	r7, r1
    8500:	e1a04000 	mov	r4, r0
    8504:	e3a01000 	mov	r1, #0
    8508:	e1a00007 	mov	r0, r7
    850c:	e3a02014 	mov	r2, #20
    8510:	eb0002c6 	bl	9030 <memset>
    8514:	e59f619c 	ldr	r6, [pc, #412]	; 86b8 <atags_detect+0x1c0>
    8518:	e59f819c 	ldr	r8, [pc, #412]	; 86bc <atags_detect+0x1c4>
    851c:	e59f919c 	ldr	r9, [pc, #412]	; 86c0 <atags_detect+0x1c8>
    8520:	e5943004 	ldr	r3, [r4, #4]
    8524:	e5945000 	ldr	r5, [r4]
    8528:	e1530006 	cmp	r3, r6
    852c:	0a000009 	beq	8558 <atags_detect+0x60>
    8530:	9a00000e 	bls	8570 <atags_detect+0x78>
    8534:	e1530008 	cmp	r3, r8
    8538:	0a000006 	beq	8558 <atags_detect+0x60>
    853c:	8a000019 	bhi	85a8 <atags_detect+0xb0>
    8540:	e59f217c 	ldr	r2, [pc, #380]	; 86c4 <atags_detect+0x1cc>
    8544:	e1530002 	cmp	r3, r2
    8548:	0a000002 	beq	8558 <atags_detect+0x60>
    854c:	e2822001 	add	r2, r2, #1
    8550:	e1530002 	cmp	r3, r2
    8554:	1a000018 	bne	85bc <atags_detect+0xc4>
    8558:	e0844105 	add	r4, r4, r5, lsl #2
    855c:	e5943004 	ldr	r3, [r4, #4]
    8560:	e5945000 	ldr	r5, [r4]
    8564:	e1530006 	cmp	r3, r6
    8568:	0afffffa 	beq	8558 <atags_detect+0x60>
    856c:	8afffff0 	bhi	8534 <atags_detect+0x3c>
    8570:	e59f2150 	ldr	r2, [pc, #336]	; 86c8 <atags_detect+0x1d0>
    8574:	e1530002 	cmp	r3, r2
    8578:	0afffff6 	beq	8558 <atags_detect+0x60>
    857c:	9a000011 	bls	85c8 <atags_detect+0xd0>
    8580:	e59f2144 	ldr	r2, [pc, #324]	; 86cc <atags_detect+0x1d4>
    8584:	e1530002 	cmp	r3, r2
    8588:	1affffef 	bne	854c <atags_detect+0x54>
    858c:	e594300c 	ldr	r3, [r4, #12]
    8590:	e594a008 	ldr	sl, [r4, #8]
    8594:	e3530000 	cmp	r3, #0
    8598:	1a000031 	bne	8664 <atags_detect+0x16c>
    859c:	e587a004 	str	sl, [r7, #4]
    85a0:	e0844105 	add	r4, r4, r5, lsl #2
    85a4:	eaffffdd 	b	8520 <atags_detect+0x28>
    85a8:	e1530009 	cmp	r3, r9
    85ac:	0a00000a 	beq	85dc <atags_detect+0xe4>
    85b0:	e59f2118 	ldr	r2, [pc, #280]	; 86d0 <atags_detect+0x1d8>
    85b4:	e1530002 	cmp	r3, r2
    85b8:	0affffe6 	beq	8558 <atags_detect+0x60>
    85bc:	e59f0110 	ldr	r0, [pc, #272]	; 86d4 <atags_detect+0x1dc>
    85c0:	eb00017e 	bl	8bc0 <printk>
    85c4:	eaffffd5 	b	8520 <atags_detect+0x28>
    85c8:	e3530000 	cmp	r3, #0
    85cc:	08bd87f0 	popeq	{r4, r5, r6, r7, r8, r9, sl, pc}
    85d0:	e59f00fc 	ldr	r0, [pc, #252]	; 86d4 <atags_detect+0x1dc>
    85d4:	eb000179 	bl	8bc0 <printk>
    85d8:	eaffffd0 	b	8520 <atags_detect+0x28>
    85dc:	e284a008 	add	sl, r4, #8
    85e0:	e59f10f0 	ldr	r1, [pc, #240]	; 86d8 <atags_detect+0x1e0>
    85e4:	e1a0000a 	mov	r0, sl
    85e8:	ebffff03 	bl	81fc <parse_cmdline_int>
    85ec:	e59f10e8 	ldr	r1, [pc, #232]	; 86dc <atags_detect+0x1e4>
    85f0:	e587000c 	str	r0, [r7, #12]
    85f4:	e1a0000a 	mov	r0, sl
    85f8:	ebfffeff 	bl	81fc <parse_cmdline_int>
    85fc:	e59f10dc 	ldr	r1, [pc, #220]	; 86e0 <atags_detect+0x1e8>
    8600:	e5870010 	str	r0, [r7, #16]
    8604:	e1a0000a 	mov	r0, sl
    8608:	ebfffefb 	bl	81fc <parse_cmdline_int>
    860c:	e2403002 	sub	r3, r0, #2
    8610:	e5870000 	str	r0, [r7]
    8614:	e3530010 	cmp	r3, #16
    8618:	979ff103 	ldrls	pc, [pc, r3, lsl #2]
    861c:	ea000022 	b	86ac <atags_detect+0x1b4>
    8620:	0000867c 	andeq	r8, r0, ip, ror r6
    8624:	0000867c 	andeq	r8, r0, ip, ror r6
    8628:	0000867c 	andeq	r8, r0, ip, ror r6
    862c:	0000867c 	andeq	r8, r0, ip, ror r6
    8630:	0000867c 	andeq	r8, r0, ip, ror r6
    8634:	00008688 	andeq	r8, r0, r8, lsl #13
    8638:	00008688 	andeq	r8, r0, r8, lsl #13
    863c:	00008688 	andeq	r8, r0, r8, lsl #13
    8640:	000086ac 	andeq	r8, r0, ip, lsr #13
    8644:	000086ac 	andeq	r8, r0, ip, lsr #13
    8648:	000086ac 	andeq	r8, r0, ip, lsr #13
    864c:	0000867c 	andeq	r8, r0, ip, ror r6
    8650:	0000867c 	andeq	r8, r0, ip, ror r6
    8654:	0000867c 	andeq	r8, r0, ip, ror r6
    8658:	00008694 	muleq	r0, r4, r6
    865c:	000086a0 	andeq	r8, r0, r0, lsr #13
    8660:	00008670 	andeq	r8, r0, r0, ror r6
    8664:	e59f0078 	ldr	r0, [pc, #120]	; 86e4 <atags_detect+0x1ec>
    8668:	eb000154 	bl	8bc0 <printk>
    866c:	eaffffca 	b	859c <atags_detect+0xa4>
    8670:	e3a03003 	mov	r3, #3
    8674:	e5873008 	str	r3, [r7, #8]
    8678:	eaffffb6 	b	8558 <atags_detect+0x60>
    867c:	e3a03002 	mov	r3, #2
    8680:	e5873008 	str	r3, [r7, #8]
    8684:	eaffffb3 	b	8558 <atags_detect+0x60>
    8688:	e3a03001 	mov	r3, #1
    868c:	e5873008 	str	r3, [r7, #8]
    8690:	eaffffb0 	b	8558 <atags_detect+0x60>
    8694:	e3a03004 	mov	r3, #4
    8698:	e5873008 	str	r3, [r7, #8]
    869c:	eaffffad 	b	8558 <atags_detect+0x60>
    86a0:	e3a03006 	mov	r3, #6
    86a4:	e5873008 	str	r3, [r7, #8]
    86a8:	eaffffaa 	b	8558 <atags_detect+0x60>
    86ac:	e3a03000 	mov	r3, #0
    86b0:	e5873008 	str	r3, [r7, #8]
    86b4:	eaffffa7 	b	8558 <atags_detect+0x60>
    86b8:	54410004 	strbpl	r0, [r1], #-4
    86bc:	54410008 	strbpl	r0, [r1], #-8
    86c0:	54410009 	strbpl	r0, [r1], #-9
    86c4:	54410006 	strbpl	r0, [r1], #-6
    86c8:	54410001 	strbpl	r0, [r1], #-1
    86cc:	54410002 	strbpl	r0, [r1], #-2
    86d0:	54420005 	strbpl	r0, [r2], #-5
    86d4:	0000a230 	andeq	sl, r0, r0, lsr r2
    86d8:	0000a284 	andeq	sl, r0, r4, lsl #5
    86dc:	0000a28c 	andeq	sl, r0, ip, lsl #5
    86e0:	0000a298 	muleq	r0, r8, r2
    86e4:	0000a248 	andeq	sl, r0, r8, asr #4

000086e8 <interrupt_handler>:
    86e8:	e24ee004 	sub	lr, lr, #4
    86ec:	e92d503f 	push	{r0, r1, r2, r3, r4, r5, ip, lr}
    86f0:	e59f3050 	ldr	r3, [pc, #80]	; 8748 <interrupt_handler+0x60>
    86f4:	e5933000 	ldr	r3, [r3]
    86f8:	e3530000 	cmp	r3, #0
    86fc:	0a00000e 	beq	873c <interrupt_handler+0x54>
    8700:	e59f3044 	ldr	r3, [pc, #68]	; 874c <interrupt_handler+0x64>
    8704:	e3a02001 	mov	r2, #1
    8708:	e5832000 	str	r2, [r3]
    870c:	e59f403c 	ldr	r4, [pc, #60]	; 8750 <interrupt_handler+0x68>
    8710:	e5943000 	ldr	r3, [r4]
    8714:	e3530000 	cmp	r3, #0
    8718:	0a000003 	beq	872c <interrupt_handler+0x44>
    871c:	eb00011e 	bl	8b9c <led_off>
    8720:	e3a03000 	mov	r3, #0
    8724:	e5843000 	str	r3, [r4]
    8728:	e8fd903f 	ldm	sp!, {r0, r1, r2, r3, r4, r5, ip, pc}^
    872c:	eb000110 	bl	8b74 <led_on>
    8730:	e3a03001 	mov	r3, #1
    8734:	e5843000 	str	r3, [r4]
    8738:	e8fd903f 	ldm	sp!, {r0, r1, r2, r3, r4, r5, ip, pc}^
    873c:	e59f0010 	ldr	r0, [pc, #16]	; 8754 <interrupt_handler+0x6c>
    8740:	eb00011e 	bl	8bc0 <printk>
    8744:	e8fd903f 	ldm	sp!, {r0, r1, r2, r3, r4, r5, ip, pc}^
    8748:	2000b200 	andcs	fp, r0, r0, lsl #4
    874c:	2000b40c 	andcs	fp, r0, ip, lsl #8
    8750:	0000c000 	andeq	ip, r0, r0
    8754:	0000a29c 	muleq	r0, ip, r2

00008758 <console_write>:
    8758:	ea0001b9 	b	8e44 <uart_write>

0000875c <gpio_request>:
    875c:	e3500036 	cmp	r0, #54	; 0x36
    8760:	e92d41f0 	push	{r4, r5, r6, r7, r8, lr}
    8764:	e1a08001 	mov	r8, r1
    8768:	ca00001a 	bgt	87d8 <gpio_request+0x7c>
    876c:	e59fc08c 	ldr	ip, [pc, #140]	; 8800 <gpio_request+0xa4>
    8770:	e2601020 	rsb	r1, r0, #32
    8774:	e1cc40d0 	ldrd	r4, [ip]
    8778:	e1a02034 	lsr	r2, r4, r0
    877c:	e1822115 	orr	r2, r2, r5, lsl r1
    8780:	e240e020 	sub	lr, r0, #32
    8784:	e1822e35 	orr	r2, r2, r5, lsr lr
    8788:	e1a03035 	lsr	r3, r5, r0
    878c:	e3a06001 	mov	r6, #1
    8790:	e3a07000 	mov	r7, #0
    8794:	e0022006 	and	r2, r2, r6
    8798:	e0033007 	and	r3, r3, r7
    879c:	e1926003 	orrs	r6, r2, r3
    87a0:	1a000011 	bne	87ec <gpio_request+0x90>
    87a4:	e3a03001 	mov	r3, #1
    87a8:	e1a07e13 	lsl	r7, r3, lr
    87ac:	e1a06013 	lsl	r6, r3, r0
    87b0:	e1877133 	orr	r7, r7, r3, lsr r1
    87b4:	e1a02008 	mov	r2, r8
    87b8:	e1a01000 	mov	r1, r0
    87bc:	e1844006 	orr	r4, r4, r6
    87c0:	e1855007 	orr	r5, r5, r7
    87c4:	e59f0038 	ldr	r0, [pc, #56]	; 8804 <gpio_request+0xa8>
    87c8:	e1cc40f0 	strd	r4, [ip]
    87cc:	eb0000fb 	bl	8bc0 <printk>
    87d0:	e3a00000 	mov	r0, #0
    87d4:	e8bd81f0 	pop	{r4, r5, r6, r7, r8, pc}
    87d8:	e1a01000 	mov	r1, r0
    87dc:	e59f0024 	ldr	r0, [pc, #36]	; 8808 <gpio_request+0xac>
    87e0:	eb0000f6 	bl	8bc0 <printk>
    87e4:	e3e00000 	mvn	r0, #0
    87e8:	e8bd81f0 	pop	{r4, r5, r6, r7, r8, pc}
    87ec:	e1a01000 	mov	r1, r0
    87f0:	e59f0014 	ldr	r0, [pc, #20]	; 880c <gpio_request+0xb0>
    87f4:	eb0000f1 	bl	8bc0 <printk>
    87f8:	e3e00000 	mvn	r0, #0
    87fc:	e8bd81f0 	pop	{r4, r5, r6, r7, r8, pc}
    8800:	0000c008 	andeq	ip, r0, r8
    8804:	0000a2d8 	ldrdeq	sl, [r0], -r8
    8808:	0000a2b0 			; <UNDEFINED> instruction: 0x0000a2b0
    880c:	0000a2c0 	andeq	sl, r0, r0, asr #5

00008810 <gpio_free>:
    8810:	e3500036 	cmp	r0, #54	; 0x36
    8814:	e92d4038 	push	{r3, r4, r5, lr}
    8818:	ca00000f 	bgt	885c <gpio_free+0x4c>
    881c:	e3a01001 	mov	r1, #1
    8820:	e240c020 	sub	ip, r0, #32
    8824:	e1a03c11 	lsl	r3, r1, ip
    8828:	e260c020 	rsb	ip, r0, #32
    882c:	e1833c31 	orr	r3, r3, r1, lsr ip
    8830:	e1a02011 	lsl	r2, r1, r0
    8834:	e59fc034 	ldr	ip, [pc, #52]	; 8870 <gpio_free+0x60>
    8838:	e1a01000 	mov	r1, r0
    883c:	e1cc40d0 	ldrd	r4, [ip]
    8840:	e59f002c 	ldr	r0, [pc, #44]	; 8874 <gpio_free+0x64>
    8844:	e1c42002 	bic	r2, r4, r2
    8848:	e1c53003 	bic	r3, r5, r3
    884c:	e1cc20f0 	strd	r2, [ip]
    8850:	eb0000da 	bl	8bc0 <printk>
    8854:	e3a00000 	mov	r0, #0
    8858:	e8bd8038 	pop	{r3, r4, r5, pc}
    885c:	e1a01000 	mov	r1, r0
    8860:	e59f0010 	ldr	r0, [pc, #16]	; 8878 <gpio_free+0x68>
    8864:	eb0000d5 	bl	8bc0 <printk>
    8868:	e3e00000 	mvn	r0, #0
    886c:	e8bd8038 	pop	{r3, r4, r5, pc}
    8870:	0000c008 	andeq	ip, r0, r8
    8874:	0000a2f4 	strdeq	sl, [r0], -r4
    8878:	0000a2b0 			; <UNDEFINED> instruction: 0x0000a2b0

0000887c <gpio_direction_input>:
    887c:	e3500036 	cmp	r0, #54	; 0x36
    8880:	e92d4010 	push	{r4, lr}
    8884:	ca000011 	bgt	88d0 <gpio_direction_input+0x54>
    8888:	e59f3054 	ldr	r3, [pc, #84]	; 88e4 <gpio_direction_input+0x68>
    888c:	e1a02fc0 	asr	r2, r0, #31
    8890:	e0c31093 	smull	r1, r3, r3, r0
    8894:	e0623143 	rsb	r3, r2, r3, asr #2
    8898:	e1a03103 	lsl	r3, r3, #2
    889c:	e2833202 	add	r3, r3, #536870912	; 0x20000000
    88a0:	e2833602 	add	r3, r3, #2097152	; 0x200000
    88a4:	e5931000 	ldr	r1, [r3]
    88a8:	e59f2034 	ldr	r2, [pc, #52]	; 88e4 <gpio_direction_input+0x68>
    88ac:	e1a0cfc0 	asr	ip, r0, #31
    88b0:	e0c24092 	smull	r4, r2, r2, r0
    88b4:	e06c2142 	rsb	r2, ip, r2, asr #2
    88b8:	e0822102 	add	r2, r2, r2, lsl #2
    88bc:	e0400082 	sub	r0, r0, r2, lsl #1
    88c0:	e1c10180 	bic	r0, r1, r0, lsl #3
    88c4:	e5830000 	str	r0, [r3]
    88c8:	e3a00000 	mov	r0, #0
    88cc:	e8bd8010 	pop	{r4, pc}
    88d0:	e1a01000 	mov	r1, r0
    88d4:	e59f000c 	ldr	r0, [pc, #12]	; 88e8 <gpio_direction_input+0x6c>
    88d8:	eb0000b8 	bl	8bc0 <printk>
    88dc:	e3e00000 	mvn	r0, #0
    88e0:	e8bd8010 	pop	{r4, pc}
    88e4:	66666667 	strbtvs	r6, [r6], -r7, ror #12
    88e8:	0000a2b0 			; <UNDEFINED> instruction: 0x0000a2b0

000088ec <gpio_direction_output>:
    88ec:	e3500036 	cmp	r0, #54	; 0x36
    88f0:	e92d4010 	push	{r4, lr}
    88f4:	ca000011 	bgt	8940 <gpio_direction_output+0x54>
    88f8:	e59f3054 	ldr	r3, [pc, #84]	; 8954 <gpio_direction_output+0x68>
    88fc:	e1a02fc0 	asr	r2, r0, #31
    8900:	e0c31093 	smull	r1, r3, r3, r0
    8904:	e0623143 	rsb	r3, r2, r3, asr #2
    8908:	e1a03103 	lsl	r3, r3, #2
    890c:	e2833202 	add	r3, r3, #536870912	; 0x20000000
    8910:	e2833602 	add	r3, r3, #2097152	; 0x200000
    8914:	e5931000 	ldr	r1, [r3]
    8918:	e59f2034 	ldr	r2, [pc, #52]	; 8954 <gpio_direction_output+0x68>
    891c:	e1a0cfc0 	asr	ip, r0, #31
    8920:	e0c24092 	smull	r4, r2, r2, r0
    8924:	e06c2142 	rsb	r2, ip, r2, asr #2
    8928:	e0822102 	add	r2, r2, r2, lsl #2
    892c:	e0400082 	sub	r0, r0, r2, lsl #1
    8930:	e1810180 	orr	r0, r1, r0, lsl #3
    8934:	e5830000 	str	r0, [r3]
    8938:	e3a00000 	mov	r0, #0
    893c:	e8bd8010 	pop	{r4, pc}
    8940:	e1a01000 	mov	r1, r0
    8944:	e59f000c 	ldr	r0, [pc, #12]	; 8958 <gpio_direction_output+0x6c>
    8948:	eb00009c 	bl	8bc0 <printk>
    894c:	e3e00000 	mvn	r0, #0
    8950:	e8bd8010 	pop	{r4, pc}
    8954:	66666667 	strbtvs	r6, [r6], -r7, ror #12
    8958:	0000a2b0 			; <UNDEFINED> instruction: 0x0000a2b0

0000895c <gpio_to_irq>:
    895c:	e3a00031 	mov	r0, #49	; 0x31
    8960:	e12fff1e 	bx	lr

00008964 <gpio_get_value>:
    8964:	e3500036 	cmp	r0, #54	; 0x36
    8968:	e92d4008 	push	{r3, lr}
    896c:	ca00000d 	bgt	89a8 <gpio_get_value+0x44>
    8970:	e3500000 	cmp	r0, #0
    8974:	e280201f 	add	r2, r0, #31
    8978:	a1a02000 	movge	r2, r0
    897c:	e1a022c2 	asr	r2, r2, #5
    8980:	e59f3034 	ldr	r3, [pc, #52]	; 89bc <gpio_get_value+0x58>
    8984:	e1a02102 	lsl	r2, r2, #2
    8988:	e0823003 	add	r3, r2, r3
    898c:	e5933000 	ldr	r3, [r3]
    8990:	e3a02001 	mov	r2, #1
    8994:	e200001f 	and	r0, r0, #31
    8998:	e0132012 	ands	r2, r3, r2, lsl r0
    899c:	03a00000 	moveq	r0, #0
    89a0:	13a00001 	movne	r0, #1
    89a4:	e8bd8008 	pop	{r3, pc}
    89a8:	e1a01000 	mov	r1, r0
    89ac:	e59f000c 	ldr	r0, [pc, #12]	; 89c0 <gpio_get_value+0x5c>
    89b0:	eb000082 	bl	8bc0 <printk>
    89b4:	e3e00000 	mvn	r0, #0
    89b8:	e8bd8008 	pop	{r3, pc}
    89bc:	20200034 	eorcs	r0, r0, r4, lsr r0
    89c0:	0000a304 	andeq	sl, r0, r4, lsl #6

000089c4 <gpio_set_value>:
    89c4:	e3500036 	cmp	r0, #54	; 0x36
    89c8:	e92d4008 	push	{r3, lr}
    89cc:	ca000019 	bgt	8a38 <gpio_set_value+0x74>
    89d0:	e3500000 	cmp	r0, #0
    89d4:	e280c01f 	add	ip, r0, #31
    89d8:	a1a0c000 	movge	ip, r0
    89dc:	e1a0c2cc 	asr	ip, ip, #5
    89e0:	e200001f 	and	r0, r0, #31
    89e4:	e3a02001 	mov	r2, #1
    89e8:	e3510000 	cmp	r1, #0
    89ec:	e1a0c10c 	lsl	ip, ip, #2
    89f0:	e1a00012 	lsl	r0, r2, r0
    89f4:	0a00000a 	beq	8a24 <gpio_set_value+0x60>
    89f8:	e3510001 	cmp	r1, #1
    89fc:	0a000003 	beq	8a10 <gpio_set_value+0x4c>
    8a00:	e59f0044 	ldr	r0, [pc, #68]	; 8a4c <gpio_set_value+0x88>
    8a04:	eb00006d 	bl	8bc0 <printk>
    8a08:	e3a00000 	mov	r0, #0
    8a0c:	e8bd8008 	pop	{r3, pc}
    8a10:	e59f3038 	ldr	r3, [pc, #56]	; 8a50 <gpio_set_value+0x8c>
    8a14:	e08c3003 	add	r3, ip, r3
    8a18:	e5830000 	str	r0, [r3]
    8a1c:	e3a00000 	mov	r0, #0
    8a20:	e8bd8008 	pop	{r3, pc}
    8a24:	e59f3028 	ldr	r3, [pc, #40]	; 8a54 <gpio_set_value+0x90>
    8a28:	e08c3003 	add	r3, ip, r3
    8a2c:	e5830000 	str	r0, [r3]
    8a30:	e3a00000 	mov	r0, #0
    8a34:	e8bd8008 	pop	{r3, pc}
    8a38:	e1a01000 	mov	r1, r0
    8a3c:	e59f0014 	ldr	r0, [pc, #20]	; 8a58 <gpio_set_value+0x94>
    8a40:	eb00005e 	bl	8bc0 <printk>
    8a44:	e3e00000 	mvn	r0, #0
    8a48:	e8bd8008 	pop	{r3, pc}
    8a4c:	0000a314 	andeq	sl, r0, r4, lsl r3
    8a50:	20200028 	eorcs	r0, r0, r8, lsr #32
    8a54:	2020001c 	eorcs	r0, r0, ip, lsl r0
    8a58:	0000a304 	andeq	sl, r0, r4, lsl #6

00008a5c <gpio_set_falling>:
    8a5c:	e3500036 	cmp	r0, #54	; 0x36
    8a60:	e92d4008 	push	{r3, lr}
    8a64:	ca00000d 	bgt	8aa0 <gpio_set_falling+0x44>
    8a68:	e3500000 	cmp	r0, #0
    8a6c:	e280201f 	add	r2, r0, #31
    8a70:	a1a02000 	movge	r2, r0
    8a74:	e1a022c2 	asr	r2, r2, #5
    8a78:	e59f3034 	ldr	r3, [pc, #52]	; 8ab4 <gpio_set_falling+0x58>
    8a7c:	e1a02102 	lsl	r2, r2, #2
    8a80:	e0823003 	add	r3, r2, r3
    8a84:	e5932000 	ldr	r2, [r3]
    8a88:	e3a01001 	mov	r1, #1
    8a8c:	e200001f 	and	r0, r0, #31
    8a90:	e1820011 	orr	r0, r2, r1, lsl r0
    8a94:	e5830000 	str	r0, [r3]
    8a98:	e3a00000 	mov	r0, #0
    8a9c:	e8bd8008 	pop	{r3, pc}
    8aa0:	e1a01000 	mov	r1, r0
    8aa4:	e59f000c 	ldr	r0, [pc, #12]	; 8ab8 <gpio_set_falling+0x5c>
    8aa8:	eb000044 	bl	8bc0 <printk>
    8aac:	e3e00000 	mvn	r0, #0
    8ab0:	e8bd8008 	pop	{r3, pc}
    8ab4:	20200058 	eorcs	r0, r0, r8, asr r0
    8ab8:	0000a304 	andeq	sl, r0, r4, lsl #6

00008abc <gpio_clear_interrupt>:
    8abc:	e3500036 	cmp	r0, #54	; 0x36
    8ac0:	e92d4008 	push	{r3, lr}
    8ac4:	ca00000c 	bgt	8afc <gpio_clear_interrupt+0x40>
    8ac8:	e3500000 	cmp	r0, #0
    8acc:	e280101f 	add	r1, r0, #31
    8ad0:	a1a01000 	movge	r1, r0
    8ad4:	e1a012c1 	asr	r1, r1, #5
    8ad8:	e59f3030 	ldr	r3, [pc, #48]	; 8b10 <gpio_clear_interrupt+0x54>
    8adc:	e1a01101 	lsl	r1, r1, #2
    8ae0:	e3a02001 	mov	r2, #1
    8ae4:	e200001f 	and	r0, r0, #31
    8ae8:	e0813003 	add	r3, r1, r3
    8aec:	e1a00012 	lsl	r0, r2, r0
    8af0:	e5830000 	str	r0, [r3]
    8af4:	e3a00000 	mov	r0, #0
    8af8:	e8bd8008 	pop	{r3, pc}
    8afc:	e1a01000 	mov	r1, r0
    8b00:	e59f000c 	ldr	r0, [pc, #12]	; 8b14 <gpio_clear_interrupt+0x58>
    8b04:	eb00002d 	bl	8bc0 <printk>
    8b08:	e3e00000 	mvn	r0, #0
    8b0c:	e8bd8008 	pop	{r3, pc}
    8b10:	20200040 	eorcs	r0, r0, r0, asr #32
    8b14:	0000a304 	andeq	sl, r0, r4, lsl #6

00008b18 <led_init>:
    8b18:	e59f3044 	ldr	r3, [pc, #68]	; 8b64 <led_init+0x4c>
    8b1c:	e92d4010 	push	{r4, lr}
    8b20:	e5933000 	ldr	r3, [r3]
    8b24:	e59f403c 	ldr	r4, [pc, #60]	; 8b68 <led_init+0x50>
    8b28:	e2433003 	sub	r3, r3, #3
    8b2c:	e3530001 	cmp	r3, #1
    8b30:	93a0002f 	movls	r0, #47	; 0x2f
    8b34:	93a03000 	movls	r3, #0
    8b38:	85940000 	ldrhi	r0, [r4]
    8b3c:	e59f1028 	ldr	r1, [pc, #40]	; 8b6c <led_init+0x54>
    8b40:	98840009 	stmls	r4, {r0, r3}
    8b44:	ebffff04 	bl	875c <gpio_request>
    8b48:	e5940000 	ldr	r0, [r4]
    8b4c:	ebffff66 	bl	88ec <gpio_direction_output>
    8b50:	e5941000 	ldr	r1, [r4]
    8b54:	e59f0014 	ldr	r0, [pc, #20]	; 8b70 <led_init+0x58>
    8b58:	eb000018 	bl	8bc0 <printk>
    8b5c:	e3a00000 	mov	r0, #0
    8b60:	e8bd8010 	pop	{r4, pc}
    8b64:	0000b000 	andeq	fp, r0, r0
    8b68:	0000b004 	andeq	fp, r0, r4
    8b6c:	0000a32c 	andeq	sl, r0, ip, lsr #6
    8b70:	0000a334 	andeq	sl, r0, r4, lsr r3

00008b74 <led_on>:
    8b74:	e92d4008 	push	{r3, lr}
    8b78:	e59f3018 	ldr	r3, [pc, #24]	; 8b98 <led_on+0x24>
    8b7c:	e8930005 	ldm	r3, {r0, r2}
    8b80:	e3520000 	cmp	r2, #0
    8b84:	13a01000 	movne	r1, #0
    8b88:	03a01001 	moveq	r1, #1
    8b8c:	ebffff8c 	bl	89c4 <gpio_set_value>
    8b90:	e3a00000 	mov	r0, #0
    8b94:	e8bd8008 	pop	{r3, pc}
    8b98:	0000b004 	andeq	fp, r0, r4

00008b9c <led_off>:
    8b9c:	e92d4008 	push	{r3, lr}
    8ba0:	e59f3014 	ldr	r3, [pc, #20]	; 8bbc <led_off+0x20>
    8ba4:	e8930003 	ldm	r3, {r0, r1}
    8ba8:	e3510000 	cmp	r1, #0
    8bac:	13a01001 	movne	r1, #1
    8bb0:	ebffff83 	bl	89c4 <gpio_set_value>
    8bb4:	e3a00000 	mov	r0, #0
    8bb8:	e8bd8008 	pop	{r3, pc}
    8bbc:	0000b004 	andeq	fp, r0, r4

00008bc0 <printk>:
    8bc0:	e92d000f 	push	{r0, r1, r2, r3}
    8bc4:	e92d4070 	push	{r4, r5, r6, lr}
    8bc8:	e24dde11 	sub	sp, sp, #272	; 0x110
    8bcc:	e28d6f49 	add	r6, sp, #292	; 0x124
    8bd0:	e59d1120 	ldr	r1, [sp, #288]	; 0x120
    8bd4:	e59f5178 	ldr	r5, [pc, #376]	; 8d54 <printk+0x194>
    8bd8:	e58d6000 	str	r6, [sp]
    8bdc:	e3a04000 	mov	r4, #0
    8be0:	ea000006 	b	8c00 <printk+0x40>
    8be4:	e28d0e11 	add	r0, sp, #272	; 0x110
    8be8:	e0802004 	add	r2, r0, r4
    8bec:	e2811001 	add	r1, r1, #1
    8bf0:	e5423100 	strb	r3, [r2, #-256]	; 0x100
    8bf4:	e2844001 	add	r4, r4, #1
    8bf8:	e35400ff 	cmp	r4, #255	; 0xff
    8bfc:	0a00002d 	beq	8cb8 <printk+0xf8>
    8c00:	e5d13000 	ldrb	r3, [r1]
    8c04:	e3530000 	cmp	r3, #0
    8c08:	0a00002a 	beq	8cb8 <printk+0xf8>
    8c0c:	e3530025 	cmp	r3, #37	; 0x25
    8c10:	1afffff3 	bne	8be4 <printk+0x24>
    8c14:	e5d13001 	ldrb	r3, [r1, #1]
    8c18:	e3530064 	cmp	r3, #100	; 0x64
    8c1c:	0a00002d 	beq	8cd8 <printk+0x118>
    8c20:	e3530078 	cmp	r3, #120	; 0x78
    8c24:	12811001 	addne	r1, r1, #1
    8c28:	1afffff2 	bne	8bf8 <printk+0x38>
    8c2c:	e5962000 	ldr	r2, [r6]
    8c30:	e2811002 	add	r1, r1, #2
    8c34:	e2866004 	add	r6, r6, #4
    8c38:	e3a03009 	mov	r3, #9
    8c3c:	e28de004 	add	lr, sp, #4
    8c40:	ea000000 	b	8c48 <printk+0x88>
    8c44:	e1a03000 	mov	r3, r0
    8c48:	e1a00fc2 	asr	r0, r2, #31
    8c4c:	e1a00e20 	lsr	r0, r0, #28
    8c50:	e082c000 	add	ip, r2, r0
    8c54:	e20cc00f 	and	ip, ip, #15
    8c58:	e060000c 	rsb	r0, r0, ip
    8c5c:	e3500009 	cmp	r0, #9
    8c60:	d2800030 	addle	r0, r0, #48	; 0x30
    8c64:	c2800057 	addgt	r0, r0, #87	; 0x57
    8c68:	e7ce0003 	strb	r0, [lr, r3]
    8c6c:	e3520000 	cmp	r2, #0
    8c70:	e282000f 	add	r0, r2, #15
    8c74:	b1a02000 	movlt	r2, r0
    8c78:	e1b02242 	asrs	r2, r2, #4
    8c7c:	e2430001 	sub	r0, r3, #1
    8c80:	1affffef 	bne	8c44 <printk+0x84>
    8c84:	e0630004 	rsb	r0, r3, r4
    8c88:	e28d2010 	add	r2, sp, #16
    8c8c:	e0820000 	add	r0, r2, r0
    8c90:	e1a0c003 	mov	ip, r3
    8c94:	e7de2003 	ldrb	r2, [lr, r3]
    8c98:	e7c02003 	strb	r2, [r0, r3]
    8c9c:	e2833001 	add	r3, r3, #1
    8ca0:	e353000a 	cmp	r3, #10
    8ca4:	1afffffa 	bne	8c94 <printk+0xd4>
    8ca8:	e284400a 	add	r4, r4, #10
    8cac:	e06c4004 	rsb	r4, ip, r4
    8cb0:	e35400ff 	cmp	r4, #255	; 0xff
    8cb4:	1affffd1 	bne	8c00 <printk+0x40>
    8cb8:	e28d0010 	add	r0, sp, #16
    8cbc:	e1a01004 	mov	r1, r4
    8cc0:	ebfffea4 	bl	8758 <console_write>
    8cc4:	e1a00004 	mov	r0, r4
    8cc8:	e28dde11 	add	sp, sp, #272	; 0x110
    8ccc:	e8bd4070 	pop	{r4, r5, r6, lr}
    8cd0:	e28dd010 	add	sp, sp, #16
    8cd4:	e12fff1e 	bx	lr
    8cd8:	e5960000 	ldr	r0, [r6]
    8cdc:	e2811002 	add	r1, r1, #2
    8ce0:	e2866004 	add	r6, r6, #4
    8ce4:	e3a03009 	mov	r3, #9
    8ce8:	e28de004 	add	lr, sp, #4
    8cec:	ea000000 	b	8cf4 <printk+0x134>
    8cf0:	e1a03002 	mov	r3, r2
    8cf4:	e0cc2095 	smull	r2, ip, r5, r0
    8cf8:	e1a02fc0 	asr	r2, r0, #31
    8cfc:	e062214c 	rsb	r2, r2, ip, asr #2
    8d00:	e082c102 	add	ip, r2, r2, lsl #2
    8d04:	e040c08c 	sub	ip, r0, ip, lsl #1
    8d08:	e28cc030 	add	ip, ip, #48	; 0x30
    8d0c:	e6efc07c 	uxtb	ip, ip
    8d10:	e2520000 	subs	r0, r2, #0
    8d14:	e7cec003 	strb	ip, [lr, r3]
    8d18:	e2432001 	sub	r2, r3, #1
    8d1c:	1afffff3 	bne	8cf0 <printk+0x130>
    8d20:	e28d0010 	add	r0, sp, #16
    8d24:	e0632004 	rsb	r2, r3, r4
    8d28:	e0802002 	add	r2, r0, r2
    8d2c:	e1a00003 	mov	r0, r3
    8d30:	ea000000 	b	8d38 <printk+0x178>
    8d34:	e7dec003 	ldrb	ip, [lr, r3]
    8d38:	e7c2c003 	strb	ip, [r2, r3]
    8d3c:	e2833001 	add	r3, r3, #1
    8d40:	e353000a 	cmp	r3, #10
    8d44:	1afffffa 	bne	8d34 <printk+0x174>
    8d48:	e284400a 	add	r4, r4, #10
    8d4c:	e0604004 	rsb	r4, r0, r4
    8d50:	eaffffa8 	b	8bf8 <printk+0x38>
    8d54:	66666667 	strbtvs	r6, [r6], -r7, ror #12

00008d58 <uart_init>:
    8d58:	e59f3084 	ldr	r3, [pc, #132]	; 8de4 <__delay_16+0x5c>
    8d5c:	e3a02000 	mov	r2, #0
    8d60:	e5832000 	str	r2, [r3]
    8d64:	e59f307c 	ldr	r3, [pc, #124]	; 8de8 <__delay_16+0x60>
    8d68:	e5832000 	str	r2, [r3]
    8d6c:	e3a03096 	mov	r3, #150	; 0x96

00008d70 <__delay_11>:
    8d70:	e2533001 	subs	r3, r3, #1
    8d74:	1afffffd 	bne	8d70 <__delay_11>
    8d78:	e59f306c 	ldr	r3, [pc, #108]	; 8dec <__delay_16+0x64>
    8d7c:	e3a02903 	mov	r2, #49152	; 0xc000
    8d80:	e5832000 	str	r2, [r3]
    8d84:	e3a03096 	mov	r3, #150	; 0x96

00008d88 <__delay_16>:
    8d88:	e2533001 	subs	r3, r3, #1
    8d8c:	1afffffd 	bne	8d88 <__delay_16>
    8d90:	e59f3054 	ldr	r3, [pc, #84]	; 8dec <__delay_16+0x64>
    8d94:	e3a02000 	mov	r2, #0
    8d98:	e5832000 	str	r2, [r3]
    8d9c:	e2833efa 	add	r3, r3, #4000	; 0xfa0
    8da0:	e5832000 	str	r2, [r3]
    8da4:	e59f2044 	ldr	r2, [pc, #68]	; 8df0 <__delay_16+0x68>
    8da8:	e283300c 	add	r3, r3, #12
    8dac:	e5832000 	str	r2, [r3]
    8db0:	e3a02001 	mov	r2, #1
    8db4:	e2433020 	sub	r3, r3, #32
    8db8:	e5832000 	str	r2, [r3]
    8dbc:	e3a02028 	mov	r2, #40	; 0x28
    8dc0:	e2833004 	add	r3, r3, #4
    8dc4:	e5832000 	str	r2, [r3]
    8dc8:	e3a02070 	mov	r2, #112	; 0x70
    8dcc:	e2833004 	add	r3, r3, #4
    8dd0:	e5832000 	str	r2, [r3]
    8dd4:	e59f2018 	ldr	r2, [pc, #24]	; 8df4 <__delay_16+0x6c>
    8dd8:	e2833004 	add	r3, r3, #4
    8ddc:	e5832000 	str	r2, [r3]
    8de0:	e12fff1e 	bx	lr
    8de4:	20201030 	eorcs	r1, r0, r0, lsr r0
    8de8:	20200094 	mlacs	r0, r4, r0, r0
    8dec:	20200098 	mlacs	r0, r8, r0, r0
    8df0:	000007ff 	strdeq	r0, [r0], -pc	; <UNPREDICTABLE>
    8df4:	00000301 	andeq	r0, r0, r1, lsl #6

00008df8 <uart_putc>:
    8df8:	e59f2014 	ldr	r2, [pc, #20]	; 8e14 <uart_putc+0x1c>
    8dfc:	e5923000 	ldr	r3, [r2]
    8e00:	e3130020 	tst	r3, #32
    8e04:	1afffffc 	bne	8dfc <uart_putc+0x4>
    8e08:	e59f3008 	ldr	r3, [pc, #8]	; 8e18 <uart_putc+0x20>
    8e0c:	e5830000 	str	r0, [r3]
    8e10:	e12fff1e 	bx	lr
    8e14:	20201018 	eorcs	r1, r0, r8, lsl r0
    8e18:	20201000 	eorcs	r1, r0, r0

00008e1c <uart_getc>:
    8e1c:	e59f2018 	ldr	r2, [pc, #24]	; 8e3c <uart_getc+0x20>
    8e20:	e5923000 	ldr	r3, [r2]
    8e24:	e3130010 	tst	r3, #16
    8e28:	1afffffc 	bne	8e20 <uart_getc+0x4>
    8e2c:	e59f000c 	ldr	r0, [pc, #12]	; 8e40 <uart_getc+0x24>
    8e30:	e5900000 	ldr	r0, [r0]
    8e34:	e6ef0070 	uxtb	r0, r0
    8e38:	e12fff1e 	bx	lr
    8e3c:	20201018 	eorcs	r1, r0, r8, lsl r0
    8e40:	20201000 	eorcs	r1, r0, r0

00008e44 <uart_write>:
    8e44:	e3510000 	cmp	r1, #0
    8e48:	e92d00f0 	push	{r4, r5, r6, r7}
    8e4c:	0a00000d 	beq	8e88 <uart_write+0x44>
    8e50:	e59f2050 	ldr	r2, [pc, #80]	; 8ea8 <uart_write+0x64>
    8e54:	e59f5050 	ldr	r5, [pc, #80]	; 8eac <uart_write+0x68>
    8e58:	e1a0c000 	mov	ip, r0
    8e5c:	e0806001 	add	r6, r0, r1
    8e60:	e3a0700d 	mov	r7, #13
    8e64:	e4dc4001 	ldrb	r4, [ip], #1
    8e68:	e5923000 	ldr	r3, [r2]
    8e6c:	e3130020 	tst	r3, #32
    8e70:	1afffffc 	bne	8e68 <uart_write+0x24>
    8e74:	e5854000 	str	r4, [r5]
    8e78:	e354000a 	cmp	r4, #10
    8e7c:	0a000004 	beq	8e94 <uart_write+0x50>
    8e80:	e15c0006 	cmp	ip, r6
    8e84:	1afffff6 	bne	8e64 <uart_write+0x20>
    8e88:	e1a00001 	mov	r0, r1
    8e8c:	e8bd00f0 	pop	{r4, r5, r6, r7}
    8e90:	e12fff1e 	bx	lr
    8e94:	e5923000 	ldr	r3, [r2]
    8e98:	e3130020 	tst	r3, #32
    8e9c:	1afffffc 	bne	8e94 <uart_write+0x50>
    8ea0:	e5857000 	str	r7, [r5]
    8ea4:	eafffff5 	b	8e80 <uart_write+0x3c>
    8ea8:	20201018 	eorcs	r1, r0, r8, lsl r0
    8eac:	20201000 	eorcs	r1, r0, r0

00008eb0 <shell>:
    8eb0:	e92d4008 	push	{r3, lr}
    8eb4:	ebffffd8 	bl	8e1c <uart_getc>
    8eb8:	ebffffce 	bl	8df8 <uart_putc>
    8ebc:	eafffffc 	b	8eb4 <shell+0x4>

00008ec0 <strncmp>:
    8ec0:	e3520000 	cmp	r2, #0
    8ec4:	e92d0030 	push	{r4, r5}
    8ec8:	0a00000c 	beq	8f00 <strncmp+0x40>
    8ecc:	e5d05000 	ldrb	r5, [r0]
    8ed0:	e5d14000 	ldrb	r4, [r1]
    8ed4:	e0554004 	subs	r4, r5, r4
    8ed8:	1a00000e 	bne	8f18 <strncmp+0x58>
    8edc:	e080c002 	add	ip, r0, r2
    8ee0:	e24cc001 	sub	ip, ip, #1
    8ee4:	ea000003 	b	8ef8 <strncmp+0x38>
    8ee8:	e5f02001 	ldrb	r2, [r0, #1]!
    8eec:	e5f13001 	ldrb	r3, [r1, #1]!
    8ef0:	e0523003 	subs	r3, r2, r3
    8ef4:	1a000004 	bne	8f0c <strncmp+0x4c>
    8ef8:	e150000c 	cmp	r0, ip
    8efc:	1afffff9 	bne	8ee8 <strncmp+0x28>
    8f00:	e3a00000 	mov	r0, #0
    8f04:	e8bd0030 	pop	{r4, r5}
    8f08:	e12fff1e 	bx	lr
    8f0c:	e1a00003 	mov	r0, r3
    8f10:	e8bd0030 	pop	{r4, r5}
    8f14:	e12fff1e 	bx	lr
    8f18:	e1a00004 	mov	r0, r4
    8f1c:	eafffff8 	b	8f04 <strncmp+0x44>

00008f20 <memcmp>:
    8f20:	e3520000 	cmp	r2, #0
    8f24:	e92d0030 	push	{r4, r5}
    8f28:	0a00000c 	beq	8f60 <memcmp+0x40>
    8f2c:	e5d05000 	ldrb	r5, [r0]
    8f30:	e5d14000 	ldrb	r4, [r1]
    8f34:	e0554004 	subs	r4, r5, r4
    8f38:	1a00000e 	bne	8f78 <memcmp+0x58>
    8f3c:	e080c002 	add	ip, r0, r2
    8f40:	e24cc001 	sub	ip, ip, #1
    8f44:	ea000003 	b	8f58 <memcmp+0x38>
    8f48:	e5f02001 	ldrb	r2, [r0, #1]!
    8f4c:	e5f13001 	ldrb	r3, [r1, #1]!
    8f50:	e0523003 	subs	r3, r2, r3
    8f54:	1a000004 	bne	8f6c <memcmp+0x4c>
    8f58:	e150000c 	cmp	r0, ip
    8f5c:	1afffff9 	bne	8f48 <memcmp+0x28>
    8f60:	e3a00000 	mov	r0, #0
    8f64:	e8bd0030 	pop	{r4, r5}
    8f68:	e12fff1e 	bx	lr
    8f6c:	e1a00003 	mov	r0, r3
    8f70:	e8bd0030 	pop	{r4, r5}
    8f74:	e12fff1e 	bx	lr
    8f78:	e1a00004 	mov	r0, r4
    8f7c:	eafffff8 	b	8f64 <memcmp+0x44>

00008f80 <memcpy>:
    8f80:	e3520000 	cmp	r2, #0
    8f84:	012fff1e 	bxeq	lr
    8f88:	e2411001 	sub	r1, r1, #1
    8f8c:	e080c002 	add	ip, r0, r2
    8f90:	e1a03000 	mov	r3, r0
    8f94:	e5f12001 	ldrb	r2, [r1, #1]!
    8f98:	e4c32001 	strb	r2, [r3], #1
    8f9c:	e153000c 	cmp	r3, ip
    8fa0:	1afffffb 	bne	8f94 <memcpy+0x14>
    8fa4:	e12fff1e 	bx	lr

00008fa8 <strncpy>:
    8fa8:	e3520000 	cmp	r2, #0
    8fac:	e52d4004 	push	{r4}		; (str r4, [sp, #-4]!)
    8fb0:	0a000010 	beq	8ff8 <strncpy+0x50>
    8fb4:	e5d13000 	ldrb	r3, [r1]
    8fb8:	e5c03000 	strb	r3, [r0]
    8fbc:	e5d13000 	ldrb	r3, [r1]
    8fc0:	e3530000 	cmp	r3, #0
    8fc4:	0a00000b 	beq	8ff8 <strncpy+0x50>
    8fc8:	e0804002 	add	r4, r0, r2
    8fcc:	e2444001 	sub	r4, r4, #1
    8fd0:	e1a03000 	mov	r3, r0
    8fd4:	ea000004 	b	8fec <strncpy+0x44>
    8fd8:	e5f1c001 	ldrb	ip, [r1, #1]!
    8fdc:	e5e3c001 	strb	ip, [r3, #1]!
    8fe0:	e5d22001 	ldrb	r2, [r2, #1]
    8fe4:	e3520000 	cmp	r2, #0
    8fe8:	0a000002 	beq	8ff8 <strncpy+0x50>
    8fec:	e1530004 	cmp	r3, r4
    8ff0:	e1a02001 	mov	r2, r1
    8ff4:	1afffff7 	bne	8fd8 <strncpy+0x30>
    8ff8:	e49d4004 	pop	{r4}		; (ldr r4, [sp], #4)
    8ffc:	e12fff1e 	bx	lr

00009000 <strlen>:
    9000:	e5d03000 	ldrb	r3, [r0]
    9004:	e3530000 	cmp	r3, #0
    9008:	0a000006 	beq	9028 <strlen+0x28>
    900c:	e1a03000 	mov	r3, r0
    9010:	e3a00000 	mov	r0, #0
    9014:	e5f32001 	ldrb	r2, [r3, #1]!
    9018:	e2800001 	add	r0, r0, #1
    901c:	e3520000 	cmp	r2, #0
    9020:	1afffffb 	bne	9014 <strlen+0x14>
    9024:	e12fff1e 	bx	lr
    9028:	e1a00003 	mov	r0, r3
    902c:	e12fff1e 	bx	lr

00009030 <memset>:
    9030:	e3520000 	cmp	r2, #0
    9034:	0a000004 	beq	904c <memset+0x1c>
    9038:	e0803002 	add	r3, r0, r2
    903c:	e6ef1071 	uxtb	r1, r1
    9040:	e4c01001 	strb	r1, [r0], #1
    9044:	e1500003 	cmp	r0, r3
    9048:	1afffffc 	bne	9040 <memset+0x10>
    904c:	e3a00000 	mov	r0, #0
    9050:	e12fff1e 	bx	lr

00009054 <memset32>:
    9054:	e3520000 	cmp	r2, #0
    9058:	0a000004 	beq	9070 <memset32+0x1c>
    905c:	e0803002 	add	r3, r0, r2
    9060:	e6ef1071 	uxtb	r1, r1
    9064:	e4c01001 	strb	r1, [r0], #1
    9068:	e1500003 	cmp	r0, r3
    906c:	1afffffc 	bne	9064 <memset32+0x10>
    9070:	e3a00000 	mov	r0, #0
    9074:	e12fff1e 	bx	lr

00009078 <timer_init>:
    9078:	e59f3038 	ldr	r3, [pc, #56]	; 90b8 <timer_init+0x40>
    907c:	e5933000 	ldr	r3, [r3]
    9080:	e59f3034 	ldr	r3, [pc, #52]	; 90bc <timer_init+0x44>
    9084:	e3a020f9 	mov	r2, #249	; 0xf9
    9088:	e5832000 	str	r2, [r3]
    908c:	e59f202c 	ldr	r2, [pc, #44]	; 90c0 <timer_init+0x48>
    9090:	e243301c 	sub	r3, r3, #28
    9094:	e5832000 	str	r2, [r3]
    9098:	e3a020aa 	mov	r2, #170	; 0xaa
    909c:	e2833008 	add	r3, r3, #8
    90a0:	e5832000 	str	r2, [r3]
    90a4:	e3a02001 	mov	r2, #1
    90a8:	e2433e1f 	sub	r3, r3, #496	; 0x1f0
    90ac:	e5832000 	str	r2, [r3]
    90b0:	e3a00000 	mov	r0, #0
    90b4:	e12fff1e 	bx	lr
    90b8:	2000b408 	andcs	fp, r0, r8, lsl #8
    90bc:	2000b41c 	andcs	fp, r0, ip, lsl r4
    90c0:	00000f61 	andeq	r0, r0, r1, ror #30

Disassembly of section .rodata.str1.4:

0000a000 <__rodata_start>:
    a000:	6961570a 	stmdbvs	r1!, {r1, r3, r8, r9, sl, ip, lr}^
    a004:	676e6974 			; <UNDEFINED> instruction: 0x676e6974
    a008:	726f6620 	rsbvc	r6, pc, #32, 12	; 0x2000000
    a00c:	72657320 	rsbvc	r7, r5, #32, 6	; 0x80000000
    a010:	206c6169 	rsbcs	r6, ip, r9, ror #2
    a014:	74726f70 	ldrbtvc	r6, [r2], #-3952	; 0xf70
    a018:	206f7420 	rsbcs	r7, pc, r0, lsr #8
    a01c:	72206562 	eorvc	r6, r0, #411041792	; 0x18800000
    a020:	79646165 	stmdbvc	r4!, {r0, r2, r5, r6, r8, sp, lr}^
    a024:	72702820 	rsbsvc	r2, r0, #32, 16	; 0x200000
    a028:	20737365 	rsbscs	r7, r3, r5, ror #6
    a02c:	20796e61 	rsbscs	r6, r9, r1, ror #28
    a030:	2979656b 	ldmdbcs	r9!, {r0, r1, r3, r5, r6, r8, sl, sp, lr}^
    a034:	0000000a 	andeq	r0, r0, sl
    a038:	64726148 	ldrbtvs	r6, [r2], #-328	; 0x148
    a03c:	65726177 	ldrbvs	r6, [r2, #-375]!	; 0x177
    a040:	72657620 	rsbvc	r7, r5, #32, 12	; 0x2000000
    a044:	6e6f6973 	mcrvs	9, 3, r6, cr15, cr3, {3}
    a048:	7825203a 	stmdavc	r5!, {r1, r3, r4, r5, sp}
    a04c:	00000020 	andeq	r0, r0, r0, lsr #32
    a050:	73615228 	cmnvc	r1, #40, 4	; 0x80000002
    a054:	72656270 	rsbvc	r6, r5, #112, 4
    a058:	50207972 	eorpl	r7, r0, r2, ror r9
    a05c:	00002969 	andeq	r2, r0, r9, ror #18
    a060:	6b6e5528 	blvs	1b9f508 <__bss_end+0x1b92508>
    a064:	6e776f6e 	cdpvs	15, 7, cr6, cr7, cr14, {3}
    a068:	72614820 	rsbvc	r4, r1, #32, 16	; 0x200000
    a06c:	72617764 	rsbvc	r7, r1, #100, 14	; 0x1900000
    a070:	00002965 	andeq	r2, r0, r5, ror #18
    a074:	65746544 	ldrbvs	r6, [r4, #-1348]!	; 0x544
    a078:	64657463 	strbtvs	r7, [r5], #-1123	; 0x463
    a07c:	646f4d20 	strbtvs	r4, [pc], #-3360	; a084 <__rodata_start+0x84>
    a080:	00206c65 	eoreq	r6, r0, r5, ror #24
    a084:	00000041 	andeq	r0, r0, r1, asr #32
    a088:	00002b41 	andeq	r2, r0, r1, asr #22
    a08c:	00000042 	andeq	r0, r0, r2, asr #32
    a090:	00002b42 	andeq	r2, r0, r2, asr #22
    a094:	00003242 	andeq	r3, r0, r2, asr #4
    a098:	706d6f43 	rsbvc	r6, sp, r3, asr #30
    a09c:	20657475 	rsbcs	r7, r5, r5, ror r4
    a0a0:	65646f4e 	strbvs	r6, [r4, #-3918]!	; 0xf4e
    a0a4:	00000000 	andeq	r0, r0, r0
    a0a8:	6e6b6e55 	mcrvs	14, 3, r6, cr11, cr5, {2}
    a0ac:	206e776f 	rsbcs	r7, lr, pc, ror #14
    a0b0:	00007825 	andeq	r7, r0, r5, lsr #16
    a0b4:	706d7544 	rsbvc	r7, sp, r4, asr #10
    a0b8:	20676e69 	rsbcs	r6, r7, r9, ror #28
    a0bc:	47415441 	strbmi	r5, [r1, -r1, asr #8]
    a0c0:	72702073 	rsbsvc	r2, r0, #115	; 0x73
    a0c4:	6569766f 	strbvs	r7, [r9, #-1647]!	; 0x66f
    a0c8:	79622064 	stmdbvc	r2!, {r2, r5, r6, sp}^
    a0cc:	6f6f6220 	svcvs	0x006f6220
    a0d0:	616f6c74 	smcvs	63172	; 0xf6c4
    a0d4:	3a726564 	bcc	1ca366c <__bss_end+0x1c9666c>
    a0d8:	0000000a 	andeq	r0, r0, sl
    a0dc:	4f432020 	svcmi	0x00432020
    a0e0:	203a4552 	eorscs	r4, sl, r2, asr r5
    a0e4:	67616c66 	strbvs	r6, [r1, -r6, ror #24]!
    a0e8:	25203a73 	strcs	r3, [r0, #-2675]!	; 0xa73
    a0ec:	70202c78 	eorvc	r2, r0, r8, ror ip
    a0f0:	73656761 	cmnvc	r5, #25427968	; 0x1840000
    a0f4:	3a657a69 	bcc	1968aa0 <__bss_end+0x195baa0>
    a0f8:	2c782520 	cfldr64cs	mvdx2, [r8], #-128	; 0xffffff80
    a0fc:	6f6f7220 	svcvs	0x006f7220
    a100:	76656474 			; <UNDEFINED> instruction: 0x76656474
    a104:	7825203a 	stmdavc	r5!, {r1, r3, r4, r5, sp}
    a108:	0000000a 	andeq	r0, r0, sl
    a10c:	454d2020 	strbmi	r2, [sp, #-32]
    a110:	59524f4d 	ldmdbpl	r2, {r0, r2, r3, r6, r8, r9, sl, fp, lr}^
    a114:	6973203a 	ldmdbvs	r3!, {r1, r3, r4, r5, sp}^
    a118:	203a657a 	eorscs	r6, sl, sl, ror r5
    a11c:	28207825 	stmdacs	r0!, {r0, r2, r5, fp, ip, sp, lr}
    a120:	424d6425 	submi	r6, sp, #620756992	; 0x25000000
    a124:	73202c29 	teqvc	r0, #10496	; 0x2900
    a128:	74726174 	ldrbtvc	r6, [r2], #-372	; 0x174
    a12c:	7825203a 	stmdavc	r5!, {r1, r3, r4, r5, sp}
    a130:	0000000a 	andeq	r0, r0, sl
    a134:	49562020 	ldmdbmi	r6, {r5, sp}^
    a138:	544f4544 	strbpl	r4, [pc], #-1348	; a140 <__rodata_start+0x140>
    a13c:	20545845 	subscs	r5, r4, r5, asr #16
    a140:	2c792c78 	ldclcs	12, cr2, [r9], #-480	; 0xfffffe20
    a144:	65646976 	strbvs	r6, [r4, #-2422]!	; 0x976
    a148:	25203a6f 	strcs	r3, [r0, #-2671]!	; 0xa6f
    a14c:	6d202c78 	stcvs	12, cr2, [r0, #-480]!	; 0xfffffe20
    a150:	2c65646f 	cfstrdcs	mvd6, [r5], #-444	; 0xfffffe44
    a154:	736c6f63 	cmnvc	ip, #396	; 0x18c
    a158:	6765202c 	strbvs	r2, [r5, -ip, lsr #32]!
    a15c:	25203a61 	strcs	r3, [r0, #-2657]!	; 0xa61
    a160:	6c202c78 	stcvs	12, cr2, [r0], #-480	; 0xfffffe20
    a164:	73656e69 	cmnvc	r5, #1680	; 0x690
    a168:	6776202c 	ldrbvs	r2, [r6, -ip, lsr #32]!
    a16c:	70202c61 	eorvc	r2, r0, r1, ror #24
    a170:	746e696f 	strbtvc	r6, [lr], #-2415	; 0x96f
    a174:	25203a73 	strcs	r3, [r0, #-2675]!	; 0xa73
    a178:	00000a78 	andeq	r0, r0, r8, ror sl
    a17c:	41522020 	cmpmi	r2, r0, lsr #32
    a180:	5349444d 	movtpl	r4, #37965	; 0x944d
    a184:	6c66204b 	stclvs	0, cr2, [r6], #-300	; 0xfffffed4
    a188:	3a736761 	bcc	1ce3f14 <__bss_end+0x1cd6f14>
    a18c:	2c782520 	cfldr64cs	mvdx2, [r8], #-128	; 0xffffff80
    a190:	7a697320 	bvc	1a66e18 <__bss_end+0x1a59e18>
    a194:	25203a65 	strcs	r3, [r0, #-2661]!	; 0xa65
    a198:	73202c78 	teqvc	r0, #120, 24	; 0x7800
    a19c:	74726174 	ldrbtvc	r6, [r2], #-372	; 0x174
    a1a0:	7825203a 	stmdavc	r5!, {r1, r3, r4, r5, sp}
    a1a4:	0000000a 	andeq	r0, r0, sl
    a1a8:	4e492020 	cdpmi	0, 4, cr2, cr9, cr0, {1}
    a1ac:	44525449 	ldrbmi	r5, [r2], #-1097	; 0x449
    a1b0:	7a697320 	bvc	1a66e38 <__bss_end+0x1a59e38>
    a1b4:	25203a65 	strcs	r3, [r0, #-2661]!	; 0xa65
    a1b8:	73202c78 	teqvc	r0, #120, 24	; 0x7800
    a1bc:	74726174 	ldrbtvc	r6, [r2], #-372	; 0x174
    a1c0:	7825203a 	stmdavc	r5!, {r1, r3, r4, r5, sp}
    a1c4:	0000000a 	andeq	r0, r0, sl
    a1c8:	52455320 	subpl	r5, r5, #32, 6	; 0x80000000
    a1cc:	204c4149 	subcs	r4, ip, r9, asr #2
    a1d0:	424d554e 	submi	r5, sp, #327155712	; 0x13800000
    a1d4:	203a5245 	eorscs	r5, sl, r5, asr #4
    a1d8:	3a776f6c 	bcc	1de5f90 <__bss_end+0x1dd8f90>
    a1dc:	2c782520 	cfldr64cs	mvdx2, [r8], #-128	; 0xffffff80
    a1e0:	67696820 	strbvs	r6, [r9, -r0, lsr #16]!
    a1e4:	25203a68 	strcs	r3, [r0, #-2664]!	; 0xa68
    a1e8:	00000a78 	andeq	r0, r0, r8, ror sl
    a1ec:	616f4220 	cmnvs	pc, r0, lsr #4
    a1f0:	72206472 	eorvc	r6, r0, #1912602624	; 0x72000000
    a1f4:	73697665 	cmnvc	r9, #105906176	; 0x6500000
    a1f8:	3a6e6f69 	bcc	1ba5fa4 <__bss_end+0x1b98fa4>
    a1fc:	0a782520 	beq	1e13684 <__bss_end+0x1e06684>
    a200:	00000000 	andeq	r0, r0, r0
    a204:	45562020 	ldrbmi	r2, [r6, #-32]
    a208:	66204153 			; <UNDEFINED> instruction: 0x66204153
    a20c:	656d6172 	strbvs	r6, [sp, #-370]!	; 0x172
    a210:	66667562 	strbtvs	r7, [r6], -r2, ror #10
    a214:	000a7265 	andeq	r7, sl, r5, ror #4
    a218:	6f432020 	svcvs	0x00432020
    a21c:	6e616d6d 	cdpvs	13, 6, cr6, cr1, cr13, {3}
    a220:	6e696c64 	cdpvs	12, 6, cr6, cr9, cr4, {3}
    a224:	25282065 	strcs	r2, [r8, #-101]!	; 0x65
    a228:	203a2964 	eorscs	r2, sl, r4, ror #18
    a22c:	00000000 	andeq	r0, r0, r0
    a230:	4f525245 	svcmi	0x00525245
    a234:	55202152 	strpl	r2, [r0, #-338]!	; 0x152
    a238:	6f6e6b6e 	svcvs	0x006e6b6e
    a23c:	61206e77 	teqvs	r0, r7, ror lr
    a240:	0a676174 	beq	19e2818 <__bss_end+0x19d5818>
    a244:	00000000 	andeq	r0, r0, r0
    a248:	6e726157 	mrcvs	1, 3, r6, cr2, cr7, {2}
    a24c:	21676e69 	cmncs	r7, r9, ror #28
    a250:	65572020 	ldrbvs	r2, [r7, #-32]
    a254:	206f6420 	rsbcs	r6, pc, r0, lsr #8
    a258:	20746f6e 	rsbscs	r6, r4, lr, ror #30
    a25c:	646e6168 	strbtvs	r6, [lr], #-360	; 0x168
    a260:	6d20656c 	cfstr32vs	mvfx6, [r0, #-432]!	; 0xfffffe50
    a264:	726f6d65 	rsbvc	r6, pc, #6464	; 0x1940
    a268:	6f6e2079 	svcvs	0x006e2079
    a26c:	74732074 	ldrbtvc	r2, [r3], #-116	; 0x74
    a270:	69747261 	ldmdbvs	r4!, {r0, r5, r6, r9, ip, sp, lr}^
    a274:	6120676e 	teqvs	r0, lr, ror #14
    a278:	657a2074 	ldrbvs	r2, [sl, #-116]!	; 0x74
    a27c:	0a216f72 	beq	86604c <__bss_end+0x85904c>
    a280:	00000000 	andeq	r0, r0, r0
    a284:	69776266 	ldmdbvs	r7!, {r1, r2, r5, r6, r9, sp, lr}^
    a288:	00687464 	rsbeq	r7, r8, r4, ror #8
    a28c:	65686266 	strbvs	r6, [r8, #-614]!	; 0x266
    a290:	74686769 	strbtvc	r6, [r8], #-1897	; 0x769
    a294:	00000000 	andeq	r0, r0, r0
    a298:	00766572 	rsbseq	r6, r6, r2, ror r5
    a29c:	6568744f 	strbvs	r7, [r8, #-1103]!	; 0x44f
    a2a0:	6e492072 	mcrvs	0, 2, r2, cr9, cr2, {3}
    a2a4:	72726574 	rsbsvc	r6, r2, #116, 10	; 0x1d000000
    a2a8:	20747075 	rsbscs	r7, r4, r5, ror r0
    a2ac:	00000a0d 	andeq	r0, r0, sp, lsl #20
    a2b0:	61766e49 	cmnvs	r6, r9, asr #28
    a2b4:	2064696c 	rsbcs	r6, r4, ip, ror #18
    a2b8:	4f495047 	svcmi	0x00495047
    a2bc:	000a6425 	andeq	r6, sl, r5, lsr #8
    a2c0:	4f495047 	svcmi	0x00495047
    a2c4:	61206425 	teqvs	r0, r5, lsr #8
    a2c8:	6165726c 	cmnvs	r5, ip, ror #4
    a2cc:	69207964 	stmdbvs	r0!, {r2, r5, r6, r8, fp, ip, sp, lr}
    a2d0:	7375206e 	cmnvc	r5, #110	; 0x6e
    a2d4:	00000a65 	andeq	r0, r0, r5, ror #20
    a2d8:	6f6c6c41 	svcvs	0x006c6c41
    a2dc:	69746163 	ldmdbvs	r4!, {r0, r1, r5, r6, r8, sp, lr}^
    a2e0:	4720676e 	strmi	r6, [r0, -lr, ror #14]!
    a2e4:	254f4950 	strbcs	r4, [pc, #-2384]	; 999c <timer_init+0x924>
    a2e8:	73612064 	cmnvc	r1, #100	; 0x64
    a2ec:	0a732520 	beq	1cd3774 <__bss_end+0x1cc6774>
    a2f0:	00000000 	andeq	r0, r0, r0
    a2f4:	65657246 	strbvs	r7, [r5, #-582]!	; 0x246
    a2f8:	20676e69 	rsbcs	r6, r7, r9, ror #28
    a2fc:	4f495047 	svcmi	0x00495047
    a300:	000a6425 	andeq	r6, sl, r5, lsr #8
    a304:	4f495047 	svcmi	0x00495047
    a308:	74206425 	strtvc	r6, [r0], #-1061	; 0x425
    a30c:	62206f6f 	eorvs	r6, r0, #444	; 0x1bc
    a310:	000a6769 	andeq	r6, sl, r9, ror #14
    a314:	61766e49 	cmnvs	r6, r9, asr #28
    a318:	2064696c 	rsbcs	r6, r4, ip, ror #18
    a31c:	4f495047 	svcmi	0x00495047
    a320:	6c617620 	stclvs	6, cr7, [r1], #-128	; 0xffffff80
    a324:	25206575 	strcs	r6, [r0, #-1397]!	; 0x575
    a328:	00000a64 	andeq	r0, r0, r4, ror #20
    a32c:	5f746361 	svcpl	0x00746361
    a330:	0064656c 	rsbeq	r6, r4, ip, ror #10
    a334:	72617453 	rsbvc	r7, r1, #1392508928	; 0x53000000
    a338:	676e6974 			; <UNDEFINED> instruction: 0x676e6974
    a33c:	61656820 	cmnvs	r5, r0, lsr #16
    a340:	65627472 	strbvs	r7, [r2, #-1138]!	; 0x472
    a344:	4c207461 	cfstrsmi	mvf7, [r0], #-388	; 0xfffffe7c
    a348:	6f204445 	svcvs	0x00204445
    a34c:	5047206e 	subpl	r2, r7, lr, rrx
    a350:	64254f49 	strtvs	r4, [r5], #-3913	; 0xf49
    a354:	0000000a 	andeq	r0, r0, sl

Disassembly of section .data:

0000b000 <__data_start>:
    b000:	00000002 	andeq	r0, r0, r2

0000b004 <led_gpio>:
    b004:	00000010 	andeq	r0, r0, r0, lsl r0

0000b008 <led_active_low>:
    b008:	00000001 	andeq	r0, r0, r1

Disassembly of section .bss:

0000c000 <__bss_start>:
	...

0000c008 <gpio_reserved>:
	...

Disassembly of section .comment:

00000000 <.comment>:
   0:	3a434347 	bcc	10d0d24 <__bss_end+0x10c3d24>
   4:	2e342820 	cdpcs	8, 3, cr2, cr4, cr0, {1}
   8:	2d322e38 	ldccs	14, cr2, [r2, #-224]!	; 0xffffff20
   c:	62753431 	rsbsvs	r3, r5, #822083584	; 0x31000000
  10:	75746e75 	ldrbvc	r6, [r4, #-3701]!	; 0xe75
  14:	29362b31 	ldmdbcs	r6!, {r0, r4, r5, r8, r9, fp, sp}
  18:	382e3420 	stmdacc	lr!, {r5, sl, ip, sp}
  1c:	Address 0x000000000000001c is out of bounds.


Disassembly of section .ARM.attributes:

00000000 <.ARM.attributes>:
   0:	00003541 	andeq	r3, r0, r1, asr #10
   4:	61656100 	cmnvs	r5, r0, lsl #2
   8:	01006962 	tsteq	r0, r2, ror #18
   c:	0000002b 	andeq	r0, r0, fp, lsr #32
  10:	4d524105 	ldfmie	f4, [r2, #-20]	; 0xffffffec
  14:	36373131 			; <UNDEFINED> instruction: 0x36373131
  18:	2d465a4a 	vstrcs	s11, [r6, #-296]	; 0xfffffed8
  1c:	07060053 	smlsdeq	r6, r3, r0, r0
  20:	01090108 	tsteq	r9, r8, lsl #2
  24:	01140412 	tsteq	r4, r2, lsl r4
  28:	03170115 	tsteq	r7, #1073741829	; 0x40000005
  2c:	011a0118 	tsteq	sl, r8, lsl r1
  30:	0122021e 	teqeq	r2, lr, lsl r2
  34:	Address 0x0000000000000034 is out of bounds.

