
kernel.elf:     file format elf32-littlearm


Disassembly of section .text:

00008000 <__start>:
    8000:	e3a0d902 	mov	sp, #32768	; 0x8000
    8004:	e59f4024 	ldr	r4, [pc, #36]	; 8030 <wait_forever+0x8>
    8008:	e59f9024 	ldr	r9, [pc, #36]	; 8034 <wait_forever+0xc>
    800c:	e3a05000 	mov	r5, #0

00008010 <clear_bss>:
    8010:	e5845000 	str	r5, [r4]
    8014:	e2844004 	add	r4, r4, #4
    8018:	e1540009 	cmp	r4, r9
    801c:	dafffffb 	ble	8010 <clear_bss>
    8020:	e59f3010 	ldr	r3, [pc, #16]	; 8038 <wait_forever+0x10>
    8024:	e12fff33 	blx	r3

00008028 <wait_forever>:
    8028:	e320f002 	wfe
    802c:	eafffffd 	b	8028 <wait_forever>
    8030:	0000a000 	andeq	sl, r0, r0
    8034:	0000b000 	andeq	fp, r0, r0
    8038:	0000803c 	andeq	r8, r0, ip, lsr r0

0000803c <kernel_main>:
    803c:	e92d4070 	push	{r4, r5, r6, lr}
    8040:	e59f3078 	ldr	r3, [pc, #120]	; 80c0 <kernel_main+0x84>
    8044:	e59f5078 	ldr	r5, [pc, #120]	; 80c4 <kernel_main+0x88>
    8048:	e3a06902 	mov	r6, #32768	; 0x8000
    804c:	e5853000 	str	r3, [r5]
    8050:	eb00008a 	bl	8280 <uart_init>
    8054:	e5953000 	ldr	r3, [r5]
    8058:	e3a02602 	mov	r2, #2097152	; 0x200000
    805c:	e5832010 	str	r2, [r3, #16]
    8060:	e59f0060 	ldr	r0, [pc, #96]	; 80c8 <kernel_main+0x8c>
    8064:	eb00001f 	bl	80e8 <printk>
    8068:	e5953000 	ldr	r3, [r5]
    806c:	e1a04006 	mov	r4, r6
    8070:	e5836020 	str	r6, [r3, #32]
    8074:	eb0000b2 	bl	8344 <uart_getc>
    8078:	e5953000 	ldr	r3, [r5]
    807c:	e59f0048 	ldr	r0, [pc, #72]	; 80cc <kernel_main+0x90>
    8080:	e583602c 	str	r6, [r3, #44]	; 0x2c
    8084:	eb000017 	bl	80e8 <printk>
    8088:	e59f0040 	ldr	r0, [pc, #64]	; 80d0 <kernel_main+0x94>
    808c:	eb000015 	bl	80e8 <printk>
    8090:	e59f303c 	ldr	r3, [pc, #60]	; 80d4 <kernel_main+0x98>
    8094:	e59f003c 	ldr	r0, [pc, #60]	; 80d8 <kernel_main+0x9c>
    8098:	e3a01010 	mov	r1, #16
    809c:	e3a02080 	mov	r2, #128	; 0x80
    80a0:	eb000010 	bl	80e8 <printk>
    80a4:	e5953000 	ldr	r3, [r5]
    80a8:	e5834020 	str	r4, [r3, #32]
    80ac:	eb0000a4 	bl	8344 <uart_getc>
    80b0:	eb00009a 	bl	8320 <uart_putc>
    80b4:	e5953000 	ldr	r3, [r5]
    80b8:	e583402c 	str	r4, [r3, #44]	; 0x2c
    80bc:	eafffff9 	b	80a8 <kernel_main+0x6c>
    80c0:	20200000 	eorcs	r0, r0, r0
    80c4:	0000a000 	andeq	sl, r0, r0
    80c8:	00009000 	andeq	r9, r0, r0
    80cc:	00009020 	andeq	r9, r0, r0, lsr #32
    80d0:	0000911c 	andeq	r9, r0, ip, lsl r1
    80d4:	0000ffff 	strdeq	pc, [r0], -pc	; <UNPREDICTABLE>
    80d8:	000091cc 	andeq	r9, r0, ip, asr #3

000080dc <console_write>:
    80dc:	e92d4008 	push	{r3, lr}
    80e0:	eb0000a1 	bl	836c <uart_write>
    80e4:	e8bd8008 	pop	{r3, pc}

000080e8 <printk>:
    80e8:	e92d000f 	push	{r0, r1, r2, r3}
    80ec:	e92d4070 	push	{r4, r5, r6, lr}
    80f0:	e24dde11 	sub	sp, sp, #272	; 0x110
    80f4:	e28d6f49 	add	r6, sp, #292	; 0x124
    80f8:	e59d1120 	ldr	r1, [sp, #288]	; 0x120
    80fc:	e59f5178 	ldr	r5, [pc, #376]	; 827c <printk+0x194>
    8100:	e58d6000 	str	r6, [sp]
    8104:	e3a04000 	mov	r4, #0
    8108:	ea000006 	b	8128 <printk+0x40>
    810c:	e28d0e11 	add	r0, sp, #272	; 0x110
    8110:	e0802004 	add	r2, r0, r4
    8114:	e2811001 	add	r1, r1, #1
    8118:	e5423100 	strb	r3, [r2, #-256]	; 0x100
    811c:	e2844001 	add	r4, r4, #1
    8120:	e35400ff 	cmp	r4, #255	; 0xff
    8124:	0a00002d 	beq	81e0 <printk+0xf8>
    8128:	e5d13000 	ldrb	r3, [r1]
    812c:	e3530000 	cmp	r3, #0
    8130:	0a00002a 	beq	81e0 <printk+0xf8>
    8134:	e3530025 	cmp	r3, #37	; 0x25
    8138:	1afffff3 	bne	810c <printk+0x24>
    813c:	e5d13001 	ldrb	r3, [r1, #1]
    8140:	e3530064 	cmp	r3, #100	; 0x64
    8144:	0a00002d 	beq	8200 <printk+0x118>
    8148:	e3530078 	cmp	r3, #120	; 0x78
    814c:	12811001 	addne	r1, r1, #1
    8150:	1afffff2 	bne	8120 <printk+0x38>
    8154:	e5962000 	ldr	r2, [r6]
    8158:	e2811002 	add	r1, r1, #2
    815c:	e2866004 	add	r6, r6, #4
    8160:	e3a03009 	mov	r3, #9
    8164:	e28de004 	add	lr, sp, #4
    8168:	ea000000 	b	8170 <printk+0x88>
    816c:	e1a03000 	mov	r3, r0
    8170:	e1a00fc2 	asr	r0, r2, #31
    8174:	e1a00e20 	lsr	r0, r0, #28
    8178:	e082c000 	add	ip, r2, r0
    817c:	e20cc00f 	and	ip, ip, #15
    8180:	e060000c 	rsb	r0, r0, ip
    8184:	e3500009 	cmp	r0, #9
    8188:	c2800057 	addgt	r0, r0, #87	; 0x57
    818c:	d2800030 	addle	r0, r0, #48	; 0x30
    8190:	e7ce0003 	strb	r0, [lr, r3]
    8194:	e3520000 	cmp	r2, #0
    8198:	e282000f 	add	r0, r2, #15
    819c:	b1a02000 	movlt	r2, r0
    81a0:	e1b02242 	asrs	r2, r2, #4
    81a4:	e2430001 	sub	r0, r3, #1
    81a8:	1affffef 	bne	816c <printk+0x84>
    81ac:	e0630004 	rsb	r0, r3, r4
    81b0:	e28d2010 	add	r2, sp, #16
    81b4:	e0820000 	add	r0, r2, r0
    81b8:	e1a0c003 	mov	ip, r3
    81bc:	e7de2003 	ldrb	r2, [lr, r3]
    81c0:	e7c02003 	strb	r2, [r0, r3]
    81c4:	e2833001 	add	r3, r3, #1
    81c8:	e353000a 	cmp	r3, #10
    81cc:	1afffffa 	bne	81bc <printk+0xd4>
    81d0:	e284400a 	add	r4, r4, #10
    81d4:	e06c4004 	rsb	r4, ip, r4
    81d8:	e35400ff 	cmp	r4, #255	; 0xff
    81dc:	1affffd1 	bne	8128 <printk+0x40>
    81e0:	e28d0010 	add	r0, sp, #16
    81e4:	e1a01004 	mov	r1, r4
    81e8:	ebffffbb 	bl	80dc <console_write>
    81ec:	e1a00004 	mov	r0, r4
    81f0:	e28dde11 	add	sp, sp, #272	; 0x110
    81f4:	e8bd4070 	pop	{r4, r5, r6, lr}
    81f8:	e28dd010 	add	sp, sp, #16
    81fc:	e12fff1e 	bx	lr
    8200:	e5960000 	ldr	r0, [r6]
    8204:	e2811002 	add	r1, r1, #2
    8208:	e2866004 	add	r6, r6, #4
    820c:	e3a03009 	mov	r3, #9
    8210:	e28de004 	add	lr, sp, #4
    8214:	ea000000 	b	821c <printk+0x134>
    8218:	e1a03002 	mov	r3, r2
    821c:	e0cc2095 	smull	r2, ip, r5, r0
    8220:	e1a02fc0 	asr	r2, r0, #31
    8224:	e062214c 	rsb	r2, r2, ip, asr #2
    8228:	e082c102 	add	ip, r2, r2, lsl #2
    822c:	e040c08c 	sub	ip, r0, ip, lsl #1
    8230:	e28cc030 	add	ip, ip, #48	; 0x30
    8234:	e6efc07c 	uxtb	ip, ip
    8238:	e2520000 	subs	r0, r2, #0
    823c:	e7cec003 	strb	ip, [lr, r3]
    8240:	e2432001 	sub	r2, r3, #1
    8244:	1afffff3 	bne	8218 <printk+0x130>
    8248:	e28d0010 	add	r0, sp, #16
    824c:	e0632004 	rsb	r2, r3, r4
    8250:	e0802002 	add	r2, r0, r2
    8254:	e1a00003 	mov	r0, r3
    8258:	ea000000 	b	8260 <printk+0x178>
    825c:	e7dec003 	ldrb	ip, [lr, r3]
    8260:	e7c2c003 	strb	ip, [r2, r3]
    8264:	e2833001 	add	r3, r3, #1
    8268:	e353000a 	cmp	r3, #10
    826c:	1afffffa 	bne	825c <printk+0x174>
    8270:	e284400a 	add	r4, r4, #10
    8274:	e0604004 	rsb	r4, r0, r4
    8278:	eaffffa8 	b	8120 <printk+0x38>
    827c:	66666667 	strbtvs	r6, [r6], -r7, ror #12

00008280 <uart_init>:
    8280:	e59f3084 	ldr	r3, [pc, #132]	; 830c <__delay_16+0x5c>
    8284:	e3a02000 	mov	r2, #0
    8288:	e5832000 	str	r2, [r3]
    828c:	e59f307c 	ldr	r3, [pc, #124]	; 8310 <__delay_16+0x60>
    8290:	e5832000 	str	r2, [r3]
    8294:	e3a03096 	mov	r3, #150	; 0x96

00008298 <__delay_11>:
    8298:	e2533001 	subs	r3, r3, #1
    829c:	1afffffd 	bne	8298 <__delay_11>
    82a0:	e59f306c 	ldr	r3, [pc, #108]	; 8314 <__delay_16+0x64>
    82a4:	e3a02903 	mov	r2, #49152	; 0xc000
    82a8:	e5832000 	str	r2, [r3]
    82ac:	e3a03096 	mov	r3, #150	; 0x96

000082b0 <__delay_16>:
    82b0:	e2533001 	subs	r3, r3, #1
    82b4:	1afffffd 	bne	82b0 <__delay_16>
    82b8:	e59f3054 	ldr	r3, [pc, #84]	; 8314 <__delay_16+0x64>
    82bc:	e3a02000 	mov	r2, #0
    82c0:	e5832000 	str	r2, [r3]
    82c4:	e2833efa 	add	r3, r3, #4000	; 0xfa0
    82c8:	e5832000 	str	r2, [r3]
    82cc:	e59f2044 	ldr	r2, [pc, #68]	; 8318 <__delay_16+0x68>
    82d0:	e283300c 	add	r3, r3, #12
    82d4:	e5832000 	str	r2, [r3]
    82d8:	e3a02001 	mov	r2, #1
    82dc:	e2433020 	sub	r3, r3, #32
    82e0:	e5832000 	str	r2, [r3]
    82e4:	e3a02028 	mov	r2, #40	; 0x28
    82e8:	e2833004 	add	r3, r3, #4
    82ec:	e5832000 	str	r2, [r3]
    82f0:	e3a02070 	mov	r2, #112	; 0x70
    82f4:	e2833004 	add	r3, r3, #4
    82f8:	e5832000 	str	r2, [r3]
    82fc:	e59f2018 	ldr	r2, [pc, #24]	; 831c <__delay_16+0x6c>
    8300:	e2833004 	add	r3, r3, #4
    8304:	e5832000 	str	r2, [r3]
    8308:	e12fff1e 	bx	lr
    830c:	20201030 	eorcs	r1, r0, r0, lsr r0
    8310:	20200094 	mlacs	r0, r4, r0, r0
    8314:	20200098 	mlacs	r0, r8, r0, r0
    8318:	000007ff 	strdeq	r0, [r0], -pc	; <UNPREDICTABLE>
    831c:	00000301 	andeq	r0, r0, r1, lsl #6

00008320 <uart_putc>:
    8320:	e59f2014 	ldr	r2, [pc, #20]	; 833c <uart_putc+0x1c>
    8324:	e5923000 	ldr	r3, [r2]
    8328:	e3130020 	tst	r3, #32
    832c:	1afffffc 	bne	8324 <uart_putc+0x4>
    8330:	e59f3008 	ldr	r3, [pc, #8]	; 8340 <uart_putc+0x20>
    8334:	e5830000 	str	r0, [r3]
    8338:	e12fff1e 	bx	lr
    833c:	20201018 	eorcs	r1, r0, r8, lsl r0
    8340:	20201000 	eorcs	r1, r0, r0

00008344 <uart_getc>:
    8344:	e59f2018 	ldr	r2, [pc, #24]	; 8364 <uart_getc+0x20>
    8348:	e5923000 	ldr	r3, [r2]
    834c:	e3130010 	tst	r3, #16
    8350:	1afffffc 	bne	8348 <uart_getc+0x4>
    8354:	e59f000c 	ldr	r0, [pc, #12]	; 8368 <uart_getc+0x24>
    8358:	e5900000 	ldr	r0, [r0]
    835c:	e6ef0070 	uxtb	r0, r0
    8360:	e12fff1e 	bx	lr
    8364:	20201018 	eorcs	r1, r0, r8, lsl r0
    8368:	20201000 	eorcs	r1, r0, r0

0000836c <uart_write>:
    836c:	e3510000 	cmp	r1, #0
    8370:	e52d4004 	push	{r4}		; (str r4, [sp, #-4]!)
    8374:	0a000009 	beq	83a0 <uart_write+0x34>
    8378:	e59f2028 	ldr	r2, [pc, #40]	; 83a8 <uart_write+0x3c>
    837c:	e59f4028 	ldr	r4, [pc, #40]	; 83ac <uart_write+0x40>
    8380:	e080c001 	add	ip, r0, r1
    8384:	e4d01001 	ldrb	r1, [r0], #1
    8388:	e5923000 	ldr	r3, [r2]
    838c:	e3130020 	tst	r3, #32
    8390:	1afffffc 	bne	8388 <uart_write+0x1c>
    8394:	e5841000 	str	r1, [r4]
    8398:	e150000c 	cmp	r0, ip
    839c:	1afffff8 	bne	8384 <uart_write+0x18>
    83a0:	e49d4004 	pop	{r4}		; (ldr r4, [sp], #4)
    83a4:	e12fff1e 	bx	lr
    83a8:	20201018 	eorcs	r1, r0, r8, lsl r0
    83ac:	20201000 	eorcs	r1, r0, r0
