
kernel.elf:     file format elf32-littlearm


Disassembly of section .text:

00008000 <__start>:
    8000:	e59ff018 	ldr	pc, [pc, #24]	; 8020 <reset_addr>
    8004:	e59ff018 	ldr	pc, [pc, #24]	; 8024 <undefined_instruction_addr>
    8008:	e59ff018 	ldr	pc, [pc, #24]	; 8028 <software_interrupt_addr>
    800c:	e59ff018 	ldr	pc, [pc, #24]	; 802c <prefetch_abort_addr>
    8010:	e59ff018 	ldr	pc, [pc, #24]	; 8030 <data_abort_addr>
    8014:	e59ff018 	ldr	pc, [pc, #24]	; 8034 <unused_handler_addr>
    8018:	e59ff018 	ldr	pc, [pc, #24]	; 8038 <interrupt_addr>
    801c:	e59ff018 	ldr	pc, [pc, #24]	; 803c <fast_interrupt_addr>

00008020 <reset_addr>:
    8020:	00008040 	andeq	r8, r0, r0, asr #32

00008024 <undefined_instruction_addr>:
    8024:	000087f4 	strdeq	r8, [r0], -r4

00008028 <software_interrupt_addr>:
    8028:	000091e8 	andeq	r9, r0, r8, ror #3

0000802c <prefetch_abort_addr>:
    802c:	00008808 	andeq	r8, r0, r8, lsl #16

00008030 <data_abort_addr>:
    8030:	0000881c 	andeq	r8, r0, ip, lsl r8

00008034 <unused_handler_addr>:
    8034:	00008040 	andeq	r8, r0, r0, asr #32

00008038 <interrupt_addr>:
    8038:	0000875c 	andeq	r8, r0, ip, asr r7

0000803c <fast_interrupt_addr>:
    803c:	00008830 	andeq	r8, r0, r0, lsr r8

00008040 <reset>:
    8040:	e59f3070 	ldr	r3, [pc, #112]	; 80b8 <reset_count>
    8044:	e3530000 	cmp	r3, #0
    8048:	0a000001 	beq	8054 <first_boot>
    804c:	e51ff004 	ldr	pc, [pc, #-4]	; 8050 <reset_error_addr>

00008050 <reset_error_addr>:
    8050:	00008844 	andeq	r8, r0, r4, asr #16

00008054 <first_boot>:
    8054:	e2833001 	add	r3, r3, #1
    8058:	e58f3058 	str	r3, [pc, #88]	; 80b8 <reset_count>
    805c:	e3a0d902 	mov	sp, #32768	; 0x8000
    8060:	e3a030d2 	mov	r3, #210	; 0xd2
    8064:	e121f003 	msr	CPSR_c, r3
    8068:	e3a0d901 	mov	sp, #16384	; 0x4000
    806c:	e3a030d3 	mov	r3, #211	; 0xd3
    8070:	e121f003 	msr	CPSR_c, r3
    8074:	e59f3040 	ldr	r3, [pc, #64]	; 80bc <reset_count+0x4>
    8078:	e3a04000 	mov	r4, #0
    807c:	e8b31fe0 	ldm	r3!, {r5, r6, r7, r8, r9, sl, fp, ip}
    8080:	e8a41fe0 	stmia	r4!, {r5, r6, r7, r8, r9, sl, fp, ip}
    8084:	e8b31fe0 	ldm	r3!, {r5, r6, r7, r8, r9, sl, fp, ip}
    8088:	e8a41fe0 	stmia	r4!, {r5, r6, r7, r8, r9, sl, fp, ip}
    808c:	e59f402c 	ldr	r4, [pc, #44]	; 80c0 <reset_count+0x8>
    8090:	e59f902c 	ldr	r9, [pc, #44]	; 80c4 <reset_count+0xc>
    8094:	e3a05000 	mov	r5, #0

00008098 <clear_bss>:
    8098:	e5845000 	str	r5, [r4]
    809c:	e2844004 	add	r4, r4, #4
    80a0:	e1540009 	cmp	r4, r9
    80a4:	dafffffb 	ble	8098 <clear_bss>
    80a8:	e59f3018 	ldr	r3, [pc, #24]	; 80c8 <reset_count+0x10>
    80ac:	e12fff33 	blx	r3

000080b0 <wait_forever>:
    80b0:	e320f002 	wfe
    80b4:	eafffffd 	b	80b0 <wait_forever>

000080b8 <reset_count>:
    80b8:	00000000 	andeq	r0, r0, r0
    80bc:	00008000 	andeq	r8, r0, r0
    80c0:	0000c000 	andeq	ip, r0, r0
    80c4:	0000d000 	andeq	sp, r0, r0
    80c8:	000080cc 	andeq	r8, r0, ip, asr #1

000080cc <kernel_main>:
    80cc:	e92d4070 	push	{r4, r5, r6, lr}
    80d0:	e24dd018 	sub	sp, sp, #24
    80d4:	e1a00002 	mov	r0, r2
    80d8:	e1a06001 	mov	r6, r1
    80dc:	e28d1004 	add	r1, sp, #4
    80e0:	e1a04002 	mov	r4, r2
    80e4:	e59f5138 	ldr	r5, [pc, #312]	; 8224 <__delay_23+0x114>
    80e8:	eb00011f 	bl	856c <atags_detect>
    80ec:	e59d300c 	ldr	r3, [sp, #12]
    80f0:	e5853000 	str	r3, [r5]
    80f4:	eb00036b 	bl	8ea8 <uart_init>
    80f8:	eb0002da 	bl	8c68 <led_init>
    80fc:	eb00047b 	bl	92f0 <timer_init>
    8100:	e10f3000 	mrs	r3, CPSR
    8104:	e3c33080 	bic	r3, r3, #128	; 0x80
    8108:	e12ff003 	msr	CPSR_fsxc, r3
    810c:	e3a0383f 	mov	r3, #4128768	; 0x3f0000

00008110 <__delay_23>:
    8110:	e2533001 	subs	r3, r3, #1
    8114:	1afffffd 	bne	8110 <__delay_23>
    8118:	e59f0108 	ldr	r0, [pc, #264]	; 8228 <__delay_23+0x118>
    811c:	eb0002fb 	bl	8d10 <printk>
    8120:	eb000391 	bl	8f6c <uart_getc>
    8124:	e59f0100 	ldr	r0, [pc, #256]	; 822c <__delay_23+0x11c>
    8128:	eb0002f8 	bl	8d10 <printk>
    812c:	e59f00fc 	ldr	r0, [pc, #252]	; 8230 <__delay_23+0x120>
    8130:	eb0002f6 	bl	8d10 <printk>
    8134:	e1a01006 	mov	r1, r6
    8138:	e59f00f4 	ldr	r0, [pc, #244]	; 8234 <__delay_23+0x124>
    813c:	eb0002f3 	bl	8d10 <printk>
    8140:	e59f30f0 	ldr	r3, [pc, #240]	; 8238 <__delay_23+0x128>
    8144:	e1560003 	cmp	r6, r3
    8148:	059f00ec 	ldreq	r0, [pc, #236]	; 823c <__delay_23+0x12c>
    814c:	159f00ec 	ldrne	r0, [pc, #236]	; 8240 <__delay_23+0x130>
    8150:	eb0002ee 	bl	8d10 <printk>
    8154:	e59f00e8 	ldr	r0, [pc, #232]	; 8244 <__delay_23+0x134>
    8158:	eb0002ec 	bl	8d10 <printk>
    815c:	e59f00e4 	ldr	r0, [pc, #228]	; 8248 <__delay_23+0x138>
    8160:	eb0002ea 	bl	8d10 <printk>
    8164:	e5951000 	ldr	r1, [r5]
    8168:	e2413001 	sub	r3, r1, #1
    816c:	e3530005 	cmp	r3, #5
    8170:	979ff103 	ldrls	pc, [pc, r3, lsl #2]
    8174:	ea000027 	b	8218 <__delay_23+0x108>
    8178:	000081dc 	ldrdeq	r8, [r0], -ip
    817c:	000081e8 	andeq	r8, r0, r8, ror #3
    8180:	000081f4 	strdeq	r8, [r0], -r4
    8184:	00008200 	andeq	r8, r0, r0, lsl #4
    8188:	0000820c 	andeq	r8, r0, ip, lsl #4
    818c:	00008190 	muleq	r0, r0, r1
    8190:	e59f00b4 	ldr	r0, [pc, #180]	; 824c <__delay_23+0x13c>
    8194:	eb0002dd 	bl	8d10 <printk>
    8198:	e59f00a4 	ldr	r0, [pc, #164]	; 8244 <__delay_23+0x134>
    819c:	eb0002db 	bl	8d10 <printk>
    81a0:	e1a00004 	mov	r0, r4
    81a4:	eb000076 	bl	8384 <atags_dump>
    81a8:	e59f00a0 	ldr	r0, [pc, #160]	; 8250 <__delay_23+0x140>
    81ac:	eb0002d7 	bl	8d10 <printk>
    81b0:	e321f0df 	msr	CPSR_c, #223	; 0xdf
    81b4:	e3a0da02 	mov	sp, #8192	; 0x2000
    81b8:	e321f0d3 	msr	CPSR_c, #211	; 0xd3
    81bc:	e59f3090 	ldr	r3, [pc, #144]	; 8254 <__delay_23+0x144>
    81c0:	e3a00010 	mov	r0, #16
    81c4:	e169f000 	msr	SPSR_fc, r0
    81c8:	e1a0e003 	mov	lr, r3
    81cc:	e1b0f00e 	movs	pc, lr
    81d0:	eb000458 	bl	9338 <shell>
    81d4:	e28dd018 	add	sp, sp, #24
    81d8:	e8bd8070 	pop	{r4, r5, r6, pc}
    81dc:	e59f0074 	ldr	r0, [pc, #116]	; 8258 <__delay_23+0x148>
    81e0:	eb0002ca 	bl	8d10 <printk>
    81e4:	eaffffeb 	b	8198 <__delay_23+0x88>
    81e8:	e59f006c 	ldr	r0, [pc, #108]	; 825c <__delay_23+0x14c>
    81ec:	eb0002c7 	bl	8d10 <printk>
    81f0:	eaffffe8 	b	8198 <__delay_23+0x88>
    81f4:	e59f0064 	ldr	r0, [pc, #100]	; 8260 <__delay_23+0x150>
    81f8:	eb0002c4 	bl	8d10 <printk>
    81fc:	eaffffe5 	b	8198 <__delay_23+0x88>
    8200:	e59f005c 	ldr	r0, [pc, #92]	; 8264 <__delay_23+0x154>
    8204:	eb0002c1 	bl	8d10 <printk>
    8208:	eaffffe2 	b	8198 <__delay_23+0x88>
    820c:	e59f0054 	ldr	r0, [pc, #84]	; 8268 <__delay_23+0x158>
    8210:	eb0002be 	bl	8d10 <printk>
    8214:	eaffffdf 	b	8198 <__delay_23+0x88>
    8218:	e59f004c 	ldr	r0, [pc, #76]	; 826c <__delay_23+0x15c>
    821c:	eb0002bb 	bl	8d10 <printk>
    8220:	eaffffdc 	b	8198 <__delay_23+0x88>
    8224:	0000b000 	andeq	fp, r0, r0
    8228:	0000a000 	andeq	sl, r0, r0
    822c:	0000a038 	andeq	sl, r0, r8, lsr r0
    8230:	0000a134 	andeq	sl, r0, r4, lsr r1
    8234:	0000a1e4 	andeq	sl, r0, r4, ror #3
    8238:	00000c42 	andeq	r0, r0, r2, asr #24
    823c:	0000a1fc 	strdeq	sl, [r0], -ip
    8240:	0000a20c 	andeq	sl, r0, ip, lsl #4
    8244:	0000a130 	andeq	sl, r0, r0, lsr r1
    8248:	0000a220 	andeq	sl, r0, r0, lsr #4
    824c:	0000a244 	andeq	sl, r0, r4, asr #4
    8250:	0000a260 	andeq	sl, r0, r0, ror #4
    8254:	00009338 	andeq	r9, r0, r8, lsr r3
    8258:	0000a230 	andeq	sl, r0, r0, lsr r2
    825c:	0000a238 	andeq	sl, r0, r8, lsr r2
    8260:	0000a234 	andeq	sl, r0, r4, lsr r2
    8264:	0000a23c 	andeq	sl, r0, ip, lsr r2
    8268:	0000a240 	andeq	sl, r0, r0, asr #4
    826c:	0000a254 	andeq	sl, r0, r4, asr r2

00008270 <parse_cmdline_int>:
    8270:	e92d47f0 	push	{r4, r5, r6, r7, r8, r9, sl, lr}
    8274:	e1a08001 	mov	r8, r1
    8278:	e1a0a000 	mov	sl, r0
    827c:	eb0003bb 	bl	9170 <strlen>
    8280:	e1a06000 	mov	r6, r0
    8284:	e1a00008 	mov	r0, r8
    8288:	eb0003b8 	bl	9170 <strlen>
    828c:	e5da3000 	ldrb	r3, [sl]
    8290:	e1a07000 	mov	r7, r0
    8294:	e3530000 	cmp	r3, #0
    8298:	0a000030 	beq	8360 <parse_cmdline_int+0xf0>
    829c:	e1560000 	cmp	r6, r0
    82a0:	3a00002e 	bcc	8360 <parse_cmdline_int+0xf0>
    82a4:	e1e0900a 	mvn	r9, sl
    82a8:	e0809009 	add	r9, r0, r9
    82ac:	e28a4001 	add	r4, sl, #1
    82b0:	e1a05000 	mov	r5, r0
    82b4:	e1a0100a 	mov	r1, sl
    82b8:	ea000006 	b	82d8 <parse_cmdline_int+0x68>
    82bc:	e5d43000 	ldrb	r3, [r4]
    82c0:	e2844001 	add	r4, r4, #1
    82c4:	e3530000 	cmp	r3, #0
    82c8:	e0895004 	add	r5, r9, r4
    82cc:	0a000023 	beq	8360 <parse_cmdline_int+0xf0>
    82d0:	e1560005 	cmp	r6, r5
    82d4:	3a000021 	bcc	8360 <parse_cmdline_int+0xf0>
    82d8:	e1a00008 	mov	r0, r8
    82dc:	e1a02007 	mov	r2, r7
    82e0:	eb000352 	bl	9030 <strncmp>
    82e4:	e3500000 	cmp	r0, #0
    82e8:	e1a01004 	mov	r1, r4
    82ec:	1afffff2 	bne	82bc <parse_cmdline_int+0x4c>
    82f0:	e2852001 	add	r2, r5, #1
    82f4:	e7da3002 	ldrb	r3, [sl, r2]
    82f8:	e3530030 	cmp	r3, #48	; 0x30
    82fc:	0a000019 	beq	8368 <parse_cmdline_int+0xf8>
    8300:	e3a0100a 	mov	r1, #10
    8304:	e0823007 	add	r3, r2, r7
    8308:	e1560003 	cmp	r6, r3
    830c:	3a000013 	bcc	8360 <parse_cmdline_int+0xf0>
    8310:	e7da3002 	ldrb	r3, [sl, r2]
    8314:	e08a2002 	add	r2, sl, r2
    8318:	e31300df 	tst	r3, #223	; 0xdf
    831c:	0a00000f 	beq	8360 <parse_cmdline_int+0xf0>
    8320:	e26aa001 	rsb	sl, sl, #1
    8324:	e087700a 	add	r7, r7, sl
    8328:	e3a00000 	mov	r0, #0
    832c:	ea000002 	b	833c <parse_cmdline_int+0xcc>
    8330:	e5f23001 	ldrb	r3, [r2, #1]!
    8334:	e31300df 	tst	r3, #223	; 0xdf
    8338:	08bd87f0 	popeq	{r4, r5, r6, r7, r8, r9, sl, pc}
    833c:	e0000190 	mul	r0, r0, r1
    8340:	e3530039 	cmp	r3, #57	; 0x39
    8344:	92400030 	subls	r0, r0, #48	; 0x30
    8348:	82400057 	subhi	r0, r0, #87	; 0x57
    834c:	e0800003 	add	r0, r0, r3
    8350:	e0873002 	add	r3, r7, r2
    8354:	e1560003 	cmp	r6, r3
    8358:	2afffff4 	bcs	8330 <parse_cmdline_int+0xc0>
    835c:	e8bd87f0 	pop	{r4, r5, r6, r7, r8, r9, sl, pc}
    8360:	e3a00000 	mov	r0, #0
    8364:	e8bd87f0 	pop	{r4, r5, r6, r7, r8, r9, sl, pc}
    8368:	e08a3005 	add	r3, sl, r5
    836c:	e5d33002 	ldrb	r3, [r3, #2]
    8370:	e3530078 	cmp	r3, #120	; 0x78
    8374:	02852003 	addeq	r2, r5, #3
    8378:	03a01010 	moveq	r1, #16
    837c:	1affffdf 	bne	8300 <parse_cmdline_int+0x90>
    8380:	eaffffdf 	b	8304 <parse_cmdline_int+0x94>

00008384 <atags_dump>:
    8384:	e92d47f0 	push	{r4, r5, r6, r7, r8, r9, sl, lr}
    8388:	e1a04000 	mov	r4, r0
    838c:	e59f018c 	ldr	r0, [pc, #396]	; 8520 <atags_dump+0x19c>
    8390:	eb00025e 	bl	8d10 <printk>
    8394:	e59f8188 	ldr	r8, [pc, #392]	; 8524 <atags_dump+0x1a0>
    8398:	e59f9188 	ldr	r9, [pc, #392]	; 8528 <atags_dump+0x1a4>
    839c:	e59fa188 	ldr	sl, [pc, #392]	; 852c <atags_dump+0x1a8>
    83a0:	e5941004 	ldr	r1, [r4, #4]
    83a4:	e5947000 	ldr	r7, [r4]
    83a8:	e1510008 	cmp	r1, r8
    83ac:	0a000011 	beq	83f8 <atags_dump+0x74>
    83b0:	9a000016 	bls	8410 <atags_dump+0x8c>
    83b4:	e1510009 	cmp	r1, r9
    83b8:	0a00003a 	beq	84a8 <atags_dump+0x124>
    83bc:	8a000021 	bhi	8448 <atags_dump+0xc4>
    83c0:	e59f3168 	ldr	r3, [pc, #360]	; 8530 <atags_dump+0x1ac>
    83c4:	e1510003 	cmp	r1, r3
    83c8:	0a00002e 	beq	8488 <atags_dump+0x104>
    83cc:	e2833001 	add	r3, r3, #1
    83d0:	e1510003 	cmp	r1, r3
    83d4:	1a000018 	bne	843c <atags_dump+0xb8>
    83d8:	e5941008 	ldr	r1, [r4, #8]
    83dc:	e59f0150 	ldr	r0, [pc, #336]	; 8534 <atags_dump+0x1b0>
    83e0:	e0844107 	add	r4, r4, r7, lsl #2
    83e4:	eb000249 	bl	8d10 <printk>
    83e8:	e5941004 	ldr	r1, [r4, #4]
    83ec:	e5947000 	ldr	r7, [r4]
    83f0:	e1510008 	cmp	r1, r8
    83f4:	1affffed 	bne	83b0 <atags_dump+0x2c>
    83f8:	e59f0138 	ldr	r0, [pc, #312]	; 8538 <atags_dump+0x1b4>
    83fc:	e2841008 	add	r1, r4, #8
    8400:	e891000e 	ldm	r1, {r1, r2, r3}
    8404:	eb000241 	bl	8d10 <printk>
    8408:	e0844107 	add	r4, r4, r7, lsl #2
    840c:	eaffffe3 	b	83a0 <atags_dump+0x1c>
    8410:	e59f3124 	ldr	r3, [pc, #292]	; 853c <atags_dump+0x1b8>
    8414:	e1510003 	cmp	r1, r3
    8418:	0a000020 	beq	84a0 <atags_dump+0x11c>
    841c:	9a000014 	bls	8474 <atags_dump+0xf0>
    8420:	e59f3118 	ldr	r3, [pc, #280]	; 8540 <atags_dump+0x1bc>
    8424:	e1510003 	cmp	r1, r3
    8428:	0a000022 	beq	84b8 <atags_dump+0x134>
    842c:	e2833001 	add	r3, r3, #1
    8430:	e1510003 	cmp	r1, r3
    8434:	059f0108 	ldreq	r0, [pc, #264]	; 8544 <atags_dump+0x1c0>
    8438:	0affffef 	beq	83fc <atags_dump+0x78>
    843c:	e59f0104 	ldr	r0, [pc, #260]	; 8548 <atags_dump+0x1c4>
    8440:	eb000232 	bl	8d10 <printk>
    8444:	eaffffd5 	b	83a0 <atags_dump+0x1c>
    8448:	e151000a 	cmp	r1, sl
    844c:	0a000020 	beq	84d4 <atags_dump+0x150>
    8450:	e59f30f4 	ldr	r3, [pc, #244]	; 854c <atags_dump+0x1c8>
    8454:	e1510003 	cmp	r1, r3
    8458:	1afffff7 	bne	843c <atags_dump+0xb8>
    845c:	e594100c 	ldr	r1, [r4, #12]
    8460:	e5942008 	ldr	r2, [r4, #8]
    8464:	e59f00e4 	ldr	r0, [pc, #228]	; 8550 <atags_dump+0x1cc>
    8468:	eb000228 	bl	8d10 <printk>
    846c:	e0844107 	add	r4, r4, r7, lsl #2
    8470:	eaffffca 	b	83a0 <atags_dump+0x1c>
    8474:	e3510000 	cmp	r1, #0
    8478:	1affffef 	bne	843c <atags_dump+0xb8>
    847c:	e8bd47f0 	pop	{r4, r5, r6, r7, r8, r9, sl, lr}
    8480:	e59f00cc 	ldr	r0, [pc, #204]	; 8554 <atags_dump+0x1d0>
    8484:	ea000221 	b	8d10 <printk>
    8488:	e5941008 	ldr	r1, [r4, #8]
    848c:	e594200c 	ldr	r2, [r4, #12]
    8490:	e59f00c0 	ldr	r0, [pc, #192]	; 8558 <atags_dump+0x1d4>
    8494:	eb00021d 	bl	8d10 <printk>
    8498:	e0844107 	add	r4, r4, r7, lsl #2
    849c:	eaffffbf 	b	83a0 <atags_dump+0x1c>
    84a0:	e59f00b4 	ldr	r0, [pc, #180]	; 855c <atags_dump+0x1d8>
    84a4:	eaffffd4 	b	83fc <atags_dump+0x78>
    84a8:	e59f00b0 	ldr	r0, [pc, #176]	; 8560 <atags_dump+0x1dc>
    84ac:	e0844107 	add	r4, r4, r7, lsl #2
    84b0:	eb000216 	bl	8d10 <printk>
    84b4:	eaffffb9 	b	83a0 <atags_dump+0x1c>
    84b8:	e5941008 	ldr	r1, [r4, #8]
    84bc:	e594300c 	ldr	r3, [r4, #12]
    84c0:	e59f009c 	ldr	r0, [pc, #156]	; 8564 <atags_dump+0x1e0>
    84c4:	e1a02a21 	lsr	r2, r1, #20
    84c8:	eb000210 	bl	8d10 <printk>
    84cc:	e0844107 	add	r4, r4, r7, lsl #2
    84d0:	eaffffb2 	b	83a0 <atags_dump+0x1c>
    84d4:	e2846008 	add	r6, r4, #8
    84d8:	e1a00006 	mov	r0, r6
    84dc:	eb000323 	bl	9170 <strlen>
    84e0:	e1a05000 	mov	r5, r0
    84e4:	e1a01000 	mov	r1, r0
    84e8:	e59f0078 	ldr	r0, [pc, #120]	; 8568 <atags_dump+0x1e4>
    84ec:	eb000207 	bl	8d10 <printk>
    84f0:	e3550000 	cmp	r5, #0
    84f4:	da000005 	ble	8510 <atags_dump+0x18c>
    84f8:	e1a00006 	mov	r0, r6
    84fc:	e2455c01 	sub	r5, r5, #256	; 0x100
    8500:	eb000202 	bl	8d10 <printk>
    8504:	e3550000 	cmp	r5, #0
    8508:	e2866c01 	add	r6, r6, #256	; 0x100
    850c:	cafffff9 	bgt	84f8 <atags_dump+0x174>
    8510:	e59f003c 	ldr	r0, [pc, #60]	; 8554 <atags_dump+0x1d0>
    8514:	e0844107 	add	r4, r4, r7, lsl #2
    8518:	eb0001fc 	bl	8d10 <printk>
    851c:	eaffff9f 	b	83a0 <atags_dump+0x1c>
    8520:	0000a274 	andeq	sl, r0, r4, ror r2
    8524:	54410004 	strbpl	r0, [r1], #-4
    8528:	54410008 	strbpl	r0, [r1], #-8
    852c:	54410009 	strbpl	r0, [r1], #-9
    8530:	54410006 	strbpl	r0, [r1], #-6
    8534:	0000a3ac 	andeq	sl, r0, ip, lsr #7
    8538:	0000a33c 	andeq	sl, r0, ip, lsr r3
    853c:	54410001 	strbpl	r0, [r1], #-1
    8540:	54410002 	strbpl	r0, [r1], #-2
    8544:	0000a2f4 	strdeq	sl, [r0], -r4
    8548:	0000a3f0 	strdeq	sl, [r0], -r0
    854c:	54420005 	strbpl	r0, [r2], #-5
    8550:	0000a368 	andeq	sl, r0, r8, ror #6
    8554:	0000a4e8 	andeq	sl, r0, r8, ror #9
    8558:	0000a388 	andeq	sl, r0, r8, lsl #7
    855c:	0000a29c 	muleq	r0, ip, r2
    8560:	0000a3c4 	andeq	sl, r0, r4, asr #7
    8564:	0000a2cc 	andeq	sl, r0, ip, asr #5
    8568:	0000a3d8 	ldrdeq	sl, [r0], -r8

0000856c <atags_detect>:
    856c:	e92d47f0 	push	{r4, r5, r6, r7, r8, r9, sl, lr}
    8570:	e1a07001 	mov	r7, r1
    8574:	e1a04000 	mov	r4, r0
    8578:	e3a01000 	mov	r1, #0
    857c:	e1a00007 	mov	r0, r7
    8580:	e3a02014 	mov	r2, #20
    8584:	eb000305 	bl	91a0 <memset>
    8588:	e59f619c 	ldr	r6, [pc, #412]	; 872c <atags_detect+0x1c0>
    858c:	e59f819c 	ldr	r8, [pc, #412]	; 8730 <atags_detect+0x1c4>
    8590:	e59f919c 	ldr	r9, [pc, #412]	; 8734 <atags_detect+0x1c8>
    8594:	e5943004 	ldr	r3, [r4, #4]
    8598:	e5945000 	ldr	r5, [r4]
    859c:	e1530006 	cmp	r3, r6
    85a0:	0a000009 	beq	85cc <atags_detect+0x60>
    85a4:	9a00000e 	bls	85e4 <atags_detect+0x78>
    85a8:	e1530008 	cmp	r3, r8
    85ac:	0a000006 	beq	85cc <atags_detect+0x60>
    85b0:	8a000019 	bhi	861c <atags_detect+0xb0>
    85b4:	e59f217c 	ldr	r2, [pc, #380]	; 8738 <atags_detect+0x1cc>
    85b8:	e1530002 	cmp	r3, r2
    85bc:	0a000002 	beq	85cc <atags_detect+0x60>
    85c0:	e2822001 	add	r2, r2, #1
    85c4:	e1530002 	cmp	r3, r2
    85c8:	1a000018 	bne	8630 <atags_detect+0xc4>
    85cc:	e0844105 	add	r4, r4, r5, lsl #2
    85d0:	e5943004 	ldr	r3, [r4, #4]
    85d4:	e5945000 	ldr	r5, [r4]
    85d8:	e1530006 	cmp	r3, r6
    85dc:	0afffffa 	beq	85cc <atags_detect+0x60>
    85e0:	8afffff0 	bhi	85a8 <atags_detect+0x3c>
    85e4:	e59f2150 	ldr	r2, [pc, #336]	; 873c <atags_detect+0x1d0>
    85e8:	e1530002 	cmp	r3, r2
    85ec:	0afffff6 	beq	85cc <atags_detect+0x60>
    85f0:	9a000011 	bls	863c <atags_detect+0xd0>
    85f4:	e59f2144 	ldr	r2, [pc, #324]	; 8740 <atags_detect+0x1d4>
    85f8:	e1530002 	cmp	r3, r2
    85fc:	1affffef 	bne	85c0 <atags_detect+0x54>
    8600:	e594300c 	ldr	r3, [r4, #12]
    8604:	e594a008 	ldr	sl, [r4, #8]
    8608:	e3530000 	cmp	r3, #0
    860c:	1a000031 	bne	86d8 <atags_detect+0x16c>
    8610:	e587a004 	str	sl, [r7, #4]
    8614:	e0844105 	add	r4, r4, r5, lsl #2
    8618:	eaffffdd 	b	8594 <atags_detect+0x28>
    861c:	e1530009 	cmp	r3, r9
    8620:	0a00000a 	beq	8650 <atags_detect+0xe4>
    8624:	e59f2118 	ldr	r2, [pc, #280]	; 8744 <atags_detect+0x1d8>
    8628:	e1530002 	cmp	r3, r2
    862c:	0affffe6 	beq	85cc <atags_detect+0x60>
    8630:	e59f0110 	ldr	r0, [pc, #272]	; 8748 <atags_detect+0x1dc>
    8634:	eb0001b5 	bl	8d10 <printk>
    8638:	eaffffd5 	b	8594 <atags_detect+0x28>
    863c:	e3530000 	cmp	r3, #0
    8640:	08bd87f0 	popeq	{r4, r5, r6, r7, r8, r9, sl, pc}
    8644:	e59f00fc 	ldr	r0, [pc, #252]	; 8748 <atags_detect+0x1dc>
    8648:	eb0001b0 	bl	8d10 <printk>
    864c:	eaffffd0 	b	8594 <atags_detect+0x28>
    8650:	e284a008 	add	sl, r4, #8
    8654:	e59f10f0 	ldr	r1, [pc, #240]	; 874c <atags_detect+0x1e0>
    8658:	e1a0000a 	mov	r0, sl
    865c:	ebffff03 	bl	8270 <parse_cmdline_int>
    8660:	e59f10e8 	ldr	r1, [pc, #232]	; 8750 <atags_detect+0x1e4>
    8664:	e587000c 	str	r0, [r7, #12]
    8668:	e1a0000a 	mov	r0, sl
    866c:	ebfffeff 	bl	8270 <parse_cmdline_int>
    8670:	e59f10dc 	ldr	r1, [pc, #220]	; 8754 <atags_detect+0x1e8>
    8674:	e5870010 	str	r0, [r7, #16]
    8678:	e1a0000a 	mov	r0, sl
    867c:	ebfffefb 	bl	8270 <parse_cmdline_int>
    8680:	e2403002 	sub	r3, r0, #2
    8684:	e5870000 	str	r0, [r7]
    8688:	e3530010 	cmp	r3, #16
    868c:	979ff103 	ldrls	pc, [pc, r3, lsl #2]
    8690:	ea000022 	b	8720 <atags_detect+0x1b4>
    8694:	000086f0 	strdeq	r8, [r0], -r0
    8698:	000086f0 	strdeq	r8, [r0], -r0
    869c:	000086f0 	strdeq	r8, [r0], -r0
    86a0:	000086f0 	strdeq	r8, [r0], -r0
    86a4:	000086f0 	strdeq	r8, [r0], -r0
    86a8:	000086fc 	strdeq	r8, [r0], -ip
    86ac:	000086fc 	strdeq	r8, [r0], -ip
    86b0:	000086fc 	strdeq	r8, [r0], -ip
    86b4:	00008720 	andeq	r8, r0, r0, lsr #14
    86b8:	00008720 	andeq	r8, r0, r0, lsr #14
    86bc:	00008720 	andeq	r8, r0, r0, lsr #14
    86c0:	000086f0 	strdeq	r8, [r0], -r0
    86c4:	000086f0 	strdeq	r8, [r0], -r0
    86c8:	000086f0 	strdeq	r8, [r0], -r0
    86cc:	00008708 	andeq	r8, r0, r8, lsl #14
    86d0:	00008714 	andeq	r8, r0, r4, lsl r7
    86d4:	000086e4 	andeq	r8, r0, r4, ror #13
    86d8:	e59f0078 	ldr	r0, [pc, #120]	; 8758 <atags_detect+0x1ec>
    86dc:	eb00018b 	bl	8d10 <printk>
    86e0:	eaffffca 	b	8610 <atags_detect+0xa4>
    86e4:	e3a03003 	mov	r3, #3
    86e8:	e5873008 	str	r3, [r7, #8]
    86ec:	eaffffb6 	b	85cc <atags_detect+0x60>
    86f0:	e3a03002 	mov	r3, #2
    86f4:	e5873008 	str	r3, [r7, #8]
    86f8:	eaffffb3 	b	85cc <atags_detect+0x60>
    86fc:	e3a03001 	mov	r3, #1
    8700:	e5873008 	str	r3, [r7, #8]
    8704:	eaffffb0 	b	85cc <atags_detect+0x60>
    8708:	e3a03004 	mov	r3, #4
    870c:	e5873008 	str	r3, [r7, #8]
    8710:	eaffffad 	b	85cc <atags_detect+0x60>
    8714:	e3a03006 	mov	r3, #6
    8718:	e5873008 	str	r3, [r7, #8]
    871c:	eaffffaa 	b	85cc <atags_detect+0x60>
    8720:	e3a03000 	mov	r3, #0
    8724:	e5873008 	str	r3, [r7, #8]
    8728:	eaffffa7 	b	85cc <atags_detect+0x60>
    872c:	54410004 	strbpl	r0, [r1], #-4
    8730:	54410008 	strbpl	r0, [r1], #-8
    8734:	54410009 	strbpl	r0, [r1], #-9
    8738:	54410006 	strbpl	r0, [r1], #-6
    873c:	54410001 	strbpl	r0, [r1], #-1
    8740:	54410002 	strbpl	r0, [r1], #-2
    8744:	54420005 	strbpl	r0, [r2], #-5
    8748:	0000a45c 	andeq	sl, r0, ip, asr r4
    874c:	0000a444 	andeq	sl, r0, r4, asr #8
    8750:	0000a44c 	andeq	sl, r0, ip, asr #8
    8754:	0000a458 	andeq	sl, r0, r8, asr r4
    8758:	0000a408 	andeq	sl, r0, r8, lsl #8

0000875c <interrupt_handler>:
    875c:	e24ee004 	sub	lr, lr, #4
    8760:	e92d503f 	push	{r0, r1, r2, r3, r4, r5, ip, lr}
    8764:	e59f1070 	ldr	r1, [pc, #112]	; 87dc <interrupt_handler+0x80>
    8768:	e5911000 	ldr	r1, [r1]
    876c:	e3110001 	tst	r1, #1
    8770:	0a000012 	beq	87c0 <interrupt_handler+0x64>
    8774:	e59f3064 	ldr	r3, [pc, #100]	; 87e0 <interrupt_handler+0x84>
    8778:	e3a02001 	mov	r2, #1
    877c:	e5832000 	str	r2, [r3]
    8780:	e59f305c 	ldr	r3, [pc, #92]	; 87e4 <interrupt_handler+0x88>
    8784:	e59f105c 	ldr	r1, [pc, #92]	; 87e8 <interrupt_handler+0x8c>
    8788:	e5932000 	ldr	r2, [r3]
    878c:	e5911000 	ldr	r1, [r1]
    8790:	e2822001 	add	r2, r2, #1
    8794:	e3510000 	cmp	r1, #0
    8798:	e5832000 	str	r2, [r3]
    879c:	08fd903f 	ldmeq	sp!, {r0, r1, r2, r3, r4, r5, ip, pc}^
    87a0:	e59f4044 	ldr	r4, [pc, #68]	; 87ec <interrupt_handler+0x90>
    87a4:	e5943000 	ldr	r3, [r4]
    87a8:	e3530000 	cmp	r3, #0
    87ac:	1a000006 	bne	87cc <interrupt_handler+0x70>
    87b0:	eb000143 	bl	8cc4 <led_on>
    87b4:	e3a03001 	mov	r3, #1
    87b8:	e5843000 	str	r3, [r4]
    87bc:	e8fd903f 	ldm	sp!, {r0, r1, r2, r3, r4, r5, ip, pc}^
    87c0:	e59f0028 	ldr	r0, [pc, #40]	; 87f0 <interrupt_handler+0x94>
    87c4:	eb000151 	bl	8d10 <printk>
    87c8:	e8fd903f 	ldm	sp!, {r0, r1, r2, r3, r4, r5, ip, pc}^
    87cc:	eb000146 	bl	8cec <led_off>
    87d0:	e3a03000 	mov	r3, #0
    87d4:	e5843000 	str	r3, [r4]
    87d8:	e8fd903f 	ldm	sp!, {r0, r1, r2, r3, r4, r5, ip, pc}^
    87dc:	2000b200 	andcs	fp, r0, r0, lsl #4
    87e0:	2000b40c 	andcs	fp, r0, ip, lsl #8
    87e4:	0000c010 	andeq	ip, r0, r0, lsl r0
    87e8:	0000b004 	andeq	fp, r0, r4
    87ec:	0000c000 	andeq	ip, r0, r0
    87f0:	0000a474 	andeq	sl, r0, r4, ror r4

000087f4 <undefined_handler>:
    87f4:	e92d500f 	push	{r0, r1, r2, r3, ip, lr}
    87f8:	e59f0004 	ldr	r0, [pc, #4]	; 8804 <undefined_handler+0x10>
    87fc:	eb000143 	bl	8d10 <printk>
    8800:	eafffffe 	b	8800 <undefined_handler+0xc>
    8804:	0000a48c 	andeq	sl, r0, ip, lsl #9

00008808 <prefetch_handler>:
    8808:	e92d500f 	push	{r0, r1, r2, r3, ip, lr}
    880c:	e59f0004 	ldr	r0, [pc, #4]	; 8818 <prefetch_handler+0x10>
    8810:	eb00013e 	bl	8d10 <printk>
    8814:	eafffffe 	b	8814 <prefetch_handler+0xc>
    8818:	0000a4a4 	andeq	sl, r0, r4, lsr #9

0000881c <data_handler>:
    881c:	e92d500f 	push	{r0, r1, r2, r3, ip, lr}
    8820:	e59f0004 	ldr	r0, [pc, #4]	; 882c <data_handler+0x10>
    8824:	eb000139 	bl	8d10 <printk>
    8828:	eafffffe 	b	8828 <data_handler+0xc>
    882c:	0000a4b8 			; <UNDEFINED> instruction: 0x0000a4b8

00008830 <fiq_handler>:
    8830:	e92d401f 	push	{r0, r1, r2, r3, r4, lr}
    8834:	e59f0004 	ldr	r0, [pc, #4]	; 8840 <fiq_handler+0x10>
    8838:	eb000134 	bl	8d10 <printk>
    883c:	eafffffe 	b	883c <fiq_handler+0xc>
    8840:	0000a4c8 	andeq	sl, r0, r8, asr #9

00008844 <reset_error>:
    8844:	e92d4008 	push	{r3, lr}
    8848:	e59f0004 	ldr	r0, [pc, #4]	; 8854 <reset_error+0x10>
    884c:	eb00012f 	bl	8d10 <printk>
    8850:	eafffffe 	b	8850 <reset_error+0xc>
    8854:	0000a4d8 	ldrdeq	sl, [r0], -r8

00008858 <console_write>:
    8858:	ea0001d9 	b	8fc4 <uart_write>

0000885c <console_read>:
    885c:	e92d40f8 	push	{r3, r4, r5, r6, r7, lr}
    8860:	e2517000 	subs	r7, r1, #0
    8864:	e1a06000 	mov	r6, r0
    8868:	0a00000d 	beq	88a4 <console_read+0x48>
    886c:	e3a05000 	mov	r5, #0
    8870:	e1a04005 	mov	r4, r5
    8874:	ea000003 	b	8888 <console_read+0x2c>
    8878:	e2844001 	add	r4, r4, #1
    887c:	e1540007 	cmp	r4, r7
    8880:	e1a05004 	mov	r5, r4
    8884:	0a000004 	beq	889c <console_read+0x40>
    8888:	eb0001c1 	bl	8f94 <uart_getc_noblock>
    888c:	e6ef0070 	uxtb	r0, r0
    8890:	e3500000 	cmp	r0, #0
    8894:	e7c60005 	strb	r0, [r6, r5]
    8898:	1afffff6 	bne	8878 <console_read+0x1c>
    889c:	e1a00004 	mov	r0, r4
    88a0:	e8bd80f8 	pop	{r3, r4, r5, r6, r7, pc}
    88a4:	e1a04007 	mov	r4, r7
    88a8:	eafffffb 	b	889c <console_read+0x40>

000088ac <gpio_request>:
    88ac:	e3500036 	cmp	r0, #54	; 0x36
    88b0:	e92d41f0 	push	{r4, r5, r6, r7, r8, lr}
    88b4:	e1a08001 	mov	r8, r1
    88b8:	ca00001a 	bgt	8928 <gpio_request+0x7c>
    88bc:	e59fc08c 	ldr	ip, [pc, #140]	; 8950 <gpio_request+0xa4>
    88c0:	e2601020 	rsb	r1, r0, #32
    88c4:	e1cc40d0 	ldrd	r4, [ip]
    88c8:	e1a02034 	lsr	r2, r4, r0
    88cc:	e1822115 	orr	r2, r2, r5, lsl r1
    88d0:	e240e020 	sub	lr, r0, #32
    88d4:	e1822e35 	orr	r2, r2, r5, lsr lr
    88d8:	e1a03035 	lsr	r3, r5, r0
    88dc:	e3a06001 	mov	r6, #1
    88e0:	e3a07000 	mov	r7, #0
    88e4:	e0022006 	and	r2, r2, r6
    88e8:	e0033007 	and	r3, r3, r7
    88ec:	e1926003 	orrs	r6, r2, r3
    88f0:	1a000011 	bne	893c <gpio_request+0x90>
    88f4:	e3a03001 	mov	r3, #1
    88f8:	e1a07e13 	lsl	r7, r3, lr
    88fc:	e1a06013 	lsl	r6, r3, r0
    8900:	e1877133 	orr	r7, r7, r3, lsr r1
    8904:	e1a02008 	mov	r2, r8
    8908:	e1a01000 	mov	r1, r0
    890c:	e1844006 	orr	r4, r4, r6
    8910:	e1855007 	orr	r5, r5, r7
    8914:	e59f0038 	ldr	r0, [pc, #56]	; 8954 <gpio_request+0xa8>
    8918:	e1cc40f0 	strd	r4, [ip]
    891c:	eb0000fb 	bl	8d10 <printk>
    8920:	e3a00000 	mov	r0, #0
    8924:	e8bd81f0 	pop	{r4, r5, r6, r7, r8, pc}
    8928:	e1a01000 	mov	r1, r0
    892c:	e59f0024 	ldr	r0, [pc, #36]	; 8958 <gpio_request+0xac>
    8930:	eb0000f6 	bl	8d10 <printk>
    8934:	e3e00000 	mvn	r0, #0
    8938:	e8bd81f0 	pop	{r4, r5, r6, r7, r8, pc}
    893c:	e1a01000 	mov	r1, r0
    8940:	e59f0014 	ldr	r0, [pc, #20]	; 895c <gpio_request+0xb0>
    8944:	eb0000f1 	bl	8d10 <printk>
    8948:	e3e00000 	mvn	r0, #0
    894c:	e8bd81f0 	pop	{r4, r5, r6, r7, r8, pc}
    8950:	0000c008 	andeq	ip, r0, r8
    8954:	0000a514 	andeq	sl, r0, r4, lsl r5
    8958:	0000a4ec 	andeq	sl, r0, ip, ror #9
    895c:	0000a4fc 	strdeq	sl, [r0], -ip

00008960 <gpio_free>:
    8960:	e3500036 	cmp	r0, #54	; 0x36
    8964:	e92d4038 	push	{r3, r4, r5, lr}
    8968:	ca00000f 	bgt	89ac <gpio_free+0x4c>
    896c:	e3a01001 	mov	r1, #1
    8970:	e240c020 	sub	ip, r0, #32
    8974:	e1a03c11 	lsl	r3, r1, ip
    8978:	e260c020 	rsb	ip, r0, #32
    897c:	e1833c31 	orr	r3, r3, r1, lsr ip
    8980:	e1a02011 	lsl	r2, r1, r0
    8984:	e59fc034 	ldr	ip, [pc, #52]	; 89c0 <gpio_free+0x60>
    8988:	e1a01000 	mov	r1, r0
    898c:	e1cc40d0 	ldrd	r4, [ip]
    8990:	e59f002c 	ldr	r0, [pc, #44]	; 89c4 <gpio_free+0x64>
    8994:	e1c42002 	bic	r2, r4, r2
    8998:	e1c53003 	bic	r3, r5, r3
    899c:	e1cc20f0 	strd	r2, [ip]
    89a0:	eb0000da 	bl	8d10 <printk>
    89a4:	e3a00000 	mov	r0, #0
    89a8:	e8bd8038 	pop	{r3, r4, r5, pc}
    89ac:	e1a01000 	mov	r1, r0
    89b0:	e59f0010 	ldr	r0, [pc, #16]	; 89c8 <gpio_free+0x68>
    89b4:	eb0000d5 	bl	8d10 <printk>
    89b8:	e3e00000 	mvn	r0, #0
    89bc:	e8bd8038 	pop	{r3, r4, r5, pc}
    89c0:	0000c008 	andeq	ip, r0, r8
    89c4:	0000a530 	andeq	sl, r0, r0, lsr r5
    89c8:	0000a4ec 	andeq	sl, r0, ip, ror #9

000089cc <gpio_direction_input>:
    89cc:	e3500036 	cmp	r0, #54	; 0x36
    89d0:	e92d4010 	push	{r4, lr}
    89d4:	ca000011 	bgt	8a20 <gpio_direction_input+0x54>
    89d8:	e59f3054 	ldr	r3, [pc, #84]	; 8a34 <gpio_direction_input+0x68>
    89dc:	e1a02fc0 	asr	r2, r0, #31
    89e0:	e0c31093 	smull	r1, r3, r3, r0
    89e4:	e0623143 	rsb	r3, r2, r3, asr #2
    89e8:	e1a03103 	lsl	r3, r3, #2
    89ec:	e2833202 	add	r3, r3, #536870912	; 0x20000000
    89f0:	e2833602 	add	r3, r3, #2097152	; 0x200000
    89f4:	e5931000 	ldr	r1, [r3]
    89f8:	e59f2034 	ldr	r2, [pc, #52]	; 8a34 <gpio_direction_input+0x68>
    89fc:	e1a0cfc0 	asr	ip, r0, #31
    8a00:	e0c24092 	smull	r4, r2, r2, r0
    8a04:	e06c2142 	rsb	r2, ip, r2, asr #2
    8a08:	e0822102 	add	r2, r2, r2, lsl #2
    8a0c:	e0400082 	sub	r0, r0, r2, lsl #1
    8a10:	e1c10180 	bic	r0, r1, r0, lsl #3
    8a14:	e5830000 	str	r0, [r3]
    8a18:	e3a00000 	mov	r0, #0
    8a1c:	e8bd8010 	pop	{r4, pc}
    8a20:	e1a01000 	mov	r1, r0
    8a24:	e59f000c 	ldr	r0, [pc, #12]	; 8a38 <gpio_direction_input+0x6c>
    8a28:	eb0000b8 	bl	8d10 <printk>
    8a2c:	e3e00000 	mvn	r0, #0
    8a30:	e8bd8010 	pop	{r4, pc}
    8a34:	66666667 	strbtvs	r6, [r6], -r7, ror #12
    8a38:	0000a4ec 	andeq	sl, r0, ip, ror #9

00008a3c <gpio_direction_output>:
    8a3c:	e3500036 	cmp	r0, #54	; 0x36
    8a40:	e92d4010 	push	{r4, lr}
    8a44:	ca000011 	bgt	8a90 <gpio_direction_output+0x54>
    8a48:	e59f3054 	ldr	r3, [pc, #84]	; 8aa4 <gpio_direction_output+0x68>
    8a4c:	e1a02fc0 	asr	r2, r0, #31
    8a50:	e0c31093 	smull	r1, r3, r3, r0
    8a54:	e0623143 	rsb	r3, r2, r3, asr #2
    8a58:	e1a03103 	lsl	r3, r3, #2
    8a5c:	e2833202 	add	r3, r3, #536870912	; 0x20000000
    8a60:	e2833602 	add	r3, r3, #2097152	; 0x200000
    8a64:	e5931000 	ldr	r1, [r3]
    8a68:	e59f2034 	ldr	r2, [pc, #52]	; 8aa4 <gpio_direction_output+0x68>
    8a6c:	e1a0cfc0 	asr	ip, r0, #31
    8a70:	e0c24092 	smull	r4, r2, r2, r0
    8a74:	e06c2142 	rsb	r2, ip, r2, asr #2
    8a78:	e0822102 	add	r2, r2, r2, lsl #2
    8a7c:	e0400082 	sub	r0, r0, r2, lsl #1
    8a80:	e1810180 	orr	r0, r1, r0, lsl #3
    8a84:	e5830000 	str	r0, [r3]
    8a88:	e3a00000 	mov	r0, #0
    8a8c:	e8bd8010 	pop	{r4, pc}
    8a90:	e1a01000 	mov	r1, r0
    8a94:	e59f000c 	ldr	r0, [pc, #12]	; 8aa8 <gpio_direction_output+0x6c>
    8a98:	eb00009c 	bl	8d10 <printk>
    8a9c:	e3e00000 	mvn	r0, #0
    8aa0:	e8bd8010 	pop	{r4, pc}
    8aa4:	66666667 	strbtvs	r6, [r6], -r7, ror #12
    8aa8:	0000a4ec 	andeq	sl, r0, ip, ror #9

00008aac <gpio_to_irq>:
    8aac:	e3a00031 	mov	r0, #49	; 0x31
    8ab0:	e12fff1e 	bx	lr

00008ab4 <gpio_get_value>:
    8ab4:	e3500036 	cmp	r0, #54	; 0x36
    8ab8:	e92d4008 	push	{r3, lr}
    8abc:	ca00000d 	bgt	8af8 <gpio_get_value+0x44>
    8ac0:	e3500000 	cmp	r0, #0
    8ac4:	e280201f 	add	r2, r0, #31
    8ac8:	a1a02000 	movge	r2, r0
    8acc:	e1a022c2 	asr	r2, r2, #5
    8ad0:	e59f3034 	ldr	r3, [pc, #52]	; 8b0c <gpio_get_value+0x58>
    8ad4:	e1a02102 	lsl	r2, r2, #2
    8ad8:	e0823003 	add	r3, r2, r3
    8adc:	e5933000 	ldr	r3, [r3]
    8ae0:	e3a02001 	mov	r2, #1
    8ae4:	e200001f 	and	r0, r0, #31
    8ae8:	e0132012 	ands	r2, r3, r2, lsl r0
    8aec:	03a00000 	moveq	r0, #0
    8af0:	13a00001 	movne	r0, #1
    8af4:	e8bd8008 	pop	{r3, pc}
    8af8:	e1a01000 	mov	r1, r0
    8afc:	e59f000c 	ldr	r0, [pc, #12]	; 8b10 <gpio_get_value+0x5c>
    8b00:	eb000082 	bl	8d10 <printk>
    8b04:	e3e00000 	mvn	r0, #0
    8b08:	e8bd8008 	pop	{r3, pc}
    8b0c:	20200034 	eorcs	r0, r0, r4, lsr r0
    8b10:	0000a540 	andeq	sl, r0, r0, asr #10

00008b14 <gpio_set_value>:
    8b14:	e3500036 	cmp	r0, #54	; 0x36
    8b18:	e92d4008 	push	{r3, lr}
    8b1c:	ca000019 	bgt	8b88 <gpio_set_value+0x74>
    8b20:	e3500000 	cmp	r0, #0
    8b24:	e280c01f 	add	ip, r0, #31
    8b28:	a1a0c000 	movge	ip, r0
    8b2c:	e1a0c2cc 	asr	ip, ip, #5
    8b30:	e200001f 	and	r0, r0, #31
    8b34:	e3a02001 	mov	r2, #1
    8b38:	e3510000 	cmp	r1, #0
    8b3c:	e1a0c10c 	lsl	ip, ip, #2
    8b40:	e1a00012 	lsl	r0, r2, r0
    8b44:	0a00000a 	beq	8b74 <gpio_set_value+0x60>
    8b48:	e3510001 	cmp	r1, #1
    8b4c:	0a000003 	beq	8b60 <gpio_set_value+0x4c>
    8b50:	e59f0044 	ldr	r0, [pc, #68]	; 8b9c <gpio_set_value+0x88>
    8b54:	eb00006d 	bl	8d10 <printk>
    8b58:	e3a00000 	mov	r0, #0
    8b5c:	e8bd8008 	pop	{r3, pc}
    8b60:	e59f3038 	ldr	r3, [pc, #56]	; 8ba0 <gpio_set_value+0x8c>
    8b64:	e08c3003 	add	r3, ip, r3
    8b68:	e5830000 	str	r0, [r3]
    8b6c:	e3a00000 	mov	r0, #0
    8b70:	e8bd8008 	pop	{r3, pc}
    8b74:	e59f3028 	ldr	r3, [pc, #40]	; 8ba4 <gpio_set_value+0x90>
    8b78:	e08c3003 	add	r3, ip, r3
    8b7c:	e5830000 	str	r0, [r3]
    8b80:	e3a00000 	mov	r0, #0
    8b84:	e8bd8008 	pop	{r3, pc}
    8b88:	e1a01000 	mov	r1, r0
    8b8c:	e59f0014 	ldr	r0, [pc, #20]	; 8ba8 <gpio_set_value+0x94>
    8b90:	eb00005e 	bl	8d10 <printk>
    8b94:	e3e00000 	mvn	r0, #0
    8b98:	e8bd8008 	pop	{r3, pc}
    8b9c:	0000a550 	andeq	sl, r0, r0, asr r5
    8ba0:	20200028 	eorcs	r0, r0, r8, lsr #32
    8ba4:	2020001c 	eorcs	r0, r0, ip, lsl r0
    8ba8:	0000a540 	andeq	sl, r0, r0, asr #10

00008bac <gpio_set_falling>:
    8bac:	e3500036 	cmp	r0, #54	; 0x36
    8bb0:	e92d4008 	push	{r3, lr}
    8bb4:	ca00000d 	bgt	8bf0 <gpio_set_falling+0x44>
    8bb8:	e3500000 	cmp	r0, #0
    8bbc:	e280201f 	add	r2, r0, #31
    8bc0:	a1a02000 	movge	r2, r0
    8bc4:	e1a022c2 	asr	r2, r2, #5
    8bc8:	e59f3034 	ldr	r3, [pc, #52]	; 8c04 <gpio_set_falling+0x58>
    8bcc:	e1a02102 	lsl	r2, r2, #2
    8bd0:	e0823003 	add	r3, r2, r3
    8bd4:	e5932000 	ldr	r2, [r3]
    8bd8:	e3a01001 	mov	r1, #1
    8bdc:	e200001f 	and	r0, r0, #31
    8be0:	e1820011 	orr	r0, r2, r1, lsl r0
    8be4:	e5830000 	str	r0, [r3]
    8be8:	e3a00000 	mov	r0, #0
    8bec:	e8bd8008 	pop	{r3, pc}
    8bf0:	e1a01000 	mov	r1, r0
    8bf4:	e59f000c 	ldr	r0, [pc, #12]	; 8c08 <gpio_set_falling+0x5c>
    8bf8:	eb000044 	bl	8d10 <printk>
    8bfc:	e3e00000 	mvn	r0, #0
    8c00:	e8bd8008 	pop	{r3, pc}
    8c04:	20200058 	eorcs	r0, r0, r8, asr r0
    8c08:	0000a540 	andeq	sl, r0, r0, asr #10

00008c0c <gpio_clear_interrupt>:
    8c0c:	e3500036 	cmp	r0, #54	; 0x36
    8c10:	e92d4008 	push	{r3, lr}
    8c14:	ca00000c 	bgt	8c4c <gpio_clear_interrupt+0x40>
    8c18:	e3500000 	cmp	r0, #0
    8c1c:	e280101f 	add	r1, r0, #31
    8c20:	a1a01000 	movge	r1, r0
    8c24:	e1a012c1 	asr	r1, r1, #5
    8c28:	e59f3030 	ldr	r3, [pc, #48]	; 8c60 <gpio_clear_interrupt+0x54>
    8c2c:	e1a01101 	lsl	r1, r1, #2
    8c30:	e3a02001 	mov	r2, #1
    8c34:	e200001f 	and	r0, r0, #31
    8c38:	e0813003 	add	r3, r1, r3
    8c3c:	e1a00012 	lsl	r0, r2, r0
    8c40:	e5830000 	str	r0, [r3]
    8c44:	e3a00000 	mov	r0, #0
    8c48:	e8bd8008 	pop	{r3, pc}
    8c4c:	e1a01000 	mov	r1, r0
    8c50:	e59f000c 	ldr	r0, [pc, #12]	; 8c64 <gpio_clear_interrupt+0x58>
    8c54:	eb00002d 	bl	8d10 <printk>
    8c58:	e3e00000 	mvn	r0, #0
    8c5c:	e8bd8008 	pop	{r3, pc}
    8c60:	20200040 	eorcs	r0, r0, r0, asr #32
    8c64:	0000a540 	andeq	sl, r0, r0, asr #10

00008c68 <led_init>:
    8c68:	e59f3044 	ldr	r3, [pc, #68]	; 8cb4 <led_init+0x4c>
    8c6c:	e92d4010 	push	{r4, lr}
    8c70:	e5933000 	ldr	r3, [r3]
    8c74:	e59f403c 	ldr	r4, [pc, #60]	; 8cb8 <led_init+0x50>
    8c78:	e2433003 	sub	r3, r3, #3
    8c7c:	e3530001 	cmp	r3, #1
    8c80:	93a0002f 	movls	r0, #47	; 0x2f
    8c84:	93a03000 	movls	r3, #0
    8c88:	85940000 	ldrhi	r0, [r4]
    8c8c:	e59f1028 	ldr	r1, [pc, #40]	; 8cbc <led_init+0x54>
    8c90:	98840009 	stmls	r4, {r0, r3}
    8c94:	ebffff04 	bl	88ac <gpio_request>
    8c98:	e5940000 	ldr	r0, [r4]
    8c9c:	ebffff66 	bl	8a3c <gpio_direction_output>
    8ca0:	e5941000 	ldr	r1, [r4]
    8ca4:	e59f0014 	ldr	r0, [pc, #20]	; 8cc0 <led_init+0x58>
    8ca8:	eb000018 	bl	8d10 <printk>
    8cac:	e3a00000 	mov	r0, #0
    8cb0:	e8bd8010 	pop	{r4, pc}
    8cb4:	0000b000 	andeq	fp, r0, r0
    8cb8:	0000b008 	andeq	fp, r0, r8
    8cbc:	0000a568 	andeq	sl, r0, r8, ror #10
    8cc0:	0000a570 	andeq	sl, r0, r0, ror r5

00008cc4 <led_on>:
    8cc4:	e92d4008 	push	{r3, lr}
    8cc8:	e59f3018 	ldr	r3, [pc, #24]	; 8ce8 <led_on+0x24>
    8ccc:	e8930005 	ldm	r3, {r0, r2}
    8cd0:	e3520000 	cmp	r2, #0
    8cd4:	13a01000 	movne	r1, #0
    8cd8:	03a01001 	moveq	r1, #1
    8cdc:	ebffff8c 	bl	8b14 <gpio_set_value>
    8ce0:	e3a00000 	mov	r0, #0
    8ce4:	e8bd8008 	pop	{r3, pc}
    8ce8:	0000b008 	andeq	fp, r0, r8

00008cec <led_off>:
    8cec:	e92d4008 	push	{r3, lr}
    8cf0:	e59f3014 	ldr	r3, [pc, #20]	; 8d0c <led_off+0x20>
    8cf4:	e8930003 	ldm	r3, {r0, r1}
    8cf8:	e3510000 	cmp	r1, #0
    8cfc:	13a01001 	movne	r1, #1
    8d00:	ebffff83 	bl	8b14 <gpio_set_value>
    8d04:	e3a00000 	mov	r0, #0
    8d08:	e8bd8008 	pop	{r3, pc}
    8d0c:	0000b008 	andeq	fp, r0, r8

00008d10 <printk>:
    8d10:	e92d000f 	push	{r0, r1, r2, r3}
    8d14:	e92d4070 	push	{r4, r5, r6, lr}
    8d18:	e24dde11 	sub	sp, sp, #272	; 0x110
    8d1c:	e28d6f49 	add	r6, sp, #292	; 0x124
    8d20:	e59d1120 	ldr	r1, [sp, #288]	; 0x120
    8d24:	e59f5178 	ldr	r5, [pc, #376]	; 8ea4 <printk+0x194>
    8d28:	e58d6000 	str	r6, [sp]
    8d2c:	e3a04000 	mov	r4, #0
    8d30:	ea000006 	b	8d50 <printk+0x40>
    8d34:	e28d0e11 	add	r0, sp, #272	; 0x110
    8d38:	e0802004 	add	r2, r0, r4
    8d3c:	e2811001 	add	r1, r1, #1
    8d40:	e5423100 	strb	r3, [r2, #-256]	; 0x100
    8d44:	e2844001 	add	r4, r4, #1
    8d48:	e35400ff 	cmp	r4, #255	; 0xff
    8d4c:	0a00002d 	beq	8e08 <printk+0xf8>
    8d50:	e5d13000 	ldrb	r3, [r1]
    8d54:	e3530000 	cmp	r3, #0
    8d58:	0a00002a 	beq	8e08 <printk+0xf8>
    8d5c:	e3530025 	cmp	r3, #37	; 0x25
    8d60:	1afffff3 	bne	8d34 <printk+0x24>
    8d64:	e5d13001 	ldrb	r3, [r1, #1]
    8d68:	e3530064 	cmp	r3, #100	; 0x64
    8d6c:	0a00002d 	beq	8e28 <printk+0x118>
    8d70:	e3530078 	cmp	r3, #120	; 0x78
    8d74:	12811001 	addne	r1, r1, #1
    8d78:	1afffff2 	bne	8d48 <printk+0x38>
    8d7c:	e5962000 	ldr	r2, [r6]
    8d80:	e2811002 	add	r1, r1, #2
    8d84:	e2866004 	add	r6, r6, #4
    8d88:	e3a03009 	mov	r3, #9
    8d8c:	e28de004 	add	lr, sp, #4
    8d90:	ea000000 	b	8d98 <printk+0x88>
    8d94:	e1a03000 	mov	r3, r0
    8d98:	e1a00fc2 	asr	r0, r2, #31
    8d9c:	e1a00e20 	lsr	r0, r0, #28
    8da0:	e082c000 	add	ip, r2, r0
    8da4:	e20cc00f 	and	ip, ip, #15
    8da8:	e060000c 	rsb	r0, r0, ip
    8dac:	e3500009 	cmp	r0, #9
    8db0:	d2800030 	addle	r0, r0, #48	; 0x30
    8db4:	c2800057 	addgt	r0, r0, #87	; 0x57
    8db8:	e7ce0003 	strb	r0, [lr, r3]
    8dbc:	e3520000 	cmp	r2, #0
    8dc0:	e282000f 	add	r0, r2, #15
    8dc4:	b1a02000 	movlt	r2, r0
    8dc8:	e1b02242 	asrs	r2, r2, #4
    8dcc:	e2430001 	sub	r0, r3, #1
    8dd0:	1affffef 	bne	8d94 <printk+0x84>
    8dd4:	e0630004 	rsb	r0, r3, r4
    8dd8:	e28d2010 	add	r2, sp, #16
    8ddc:	e0820000 	add	r0, r2, r0
    8de0:	e1a0c003 	mov	ip, r3
    8de4:	e7de2003 	ldrb	r2, [lr, r3]
    8de8:	e7c02003 	strb	r2, [r0, r3]
    8dec:	e2833001 	add	r3, r3, #1
    8df0:	e353000a 	cmp	r3, #10
    8df4:	1afffffa 	bne	8de4 <printk+0xd4>
    8df8:	e284400a 	add	r4, r4, #10
    8dfc:	e06c4004 	rsb	r4, ip, r4
    8e00:	e35400ff 	cmp	r4, #255	; 0xff
    8e04:	1affffd1 	bne	8d50 <printk+0x40>
    8e08:	e28d0010 	add	r0, sp, #16
    8e0c:	e1a01004 	mov	r1, r4
    8e10:	ebfffe90 	bl	8858 <console_write>
    8e14:	e1a00004 	mov	r0, r4
    8e18:	e28dde11 	add	sp, sp, #272	; 0x110
    8e1c:	e8bd4070 	pop	{r4, r5, r6, lr}
    8e20:	e28dd010 	add	sp, sp, #16
    8e24:	e12fff1e 	bx	lr
    8e28:	e5960000 	ldr	r0, [r6]
    8e2c:	e2811002 	add	r1, r1, #2
    8e30:	e2866004 	add	r6, r6, #4
    8e34:	e3a03009 	mov	r3, #9
    8e38:	e28de004 	add	lr, sp, #4
    8e3c:	ea000000 	b	8e44 <printk+0x134>
    8e40:	e1a03002 	mov	r3, r2
    8e44:	e0cc2095 	smull	r2, ip, r5, r0
    8e48:	e1a02fc0 	asr	r2, r0, #31
    8e4c:	e062214c 	rsb	r2, r2, ip, asr #2
    8e50:	e082c102 	add	ip, r2, r2, lsl #2
    8e54:	e040c08c 	sub	ip, r0, ip, lsl #1
    8e58:	e28cc030 	add	ip, ip, #48	; 0x30
    8e5c:	e6efc07c 	uxtb	ip, ip
    8e60:	e2520000 	subs	r0, r2, #0
    8e64:	e7cec003 	strb	ip, [lr, r3]
    8e68:	e2432001 	sub	r2, r3, #1
    8e6c:	1afffff3 	bne	8e40 <printk+0x130>
    8e70:	e28d0010 	add	r0, sp, #16
    8e74:	e0632004 	rsb	r2, r3, r4
    8e78:	e0802002 	add	r2, r0, r2
    8e7c:	e1a00003 	mov	r0, r3
    8e80:	ea000000 	b	8e88 <printk+0x178>
    8e84:	e7dec003 	ldrb	ip, [lr, r3]
    8e88:	e7c2c003 	strb	ip, [r2, r3]
    8e8c:	e2833001 	add	r3, r3, #1
    8e90:	e353000a 	cmp	r3, #10
    8e94:	1afffffa 	bne	8e84 <printk+0x174>
    8e98:	e284400a 	add	r4, r4, #10
    8e9c:	e0604004 	rsb	r4, r0, r4
    8ea0:	eaffffa8 	b	8d48 <printk+0x38>
    8ea4:	66666667 	strbtvs	r6, [r6], -r7, ror #12

00008ea8 <uart_init>:
    8ea8:	e59f3084 	ldr	r3, [pc, #132]	; 8f34 <__delay_16+0x5c>
    8eac:	e3a02000 	mov	r2, #0
    8eb0:	e5832000 	str	r2, [r3]
    8eb4:	e59f307c 	ldr	r3, [pc, #124]	; 8f38 <__delay_16+0x60>
    8eb8:	e5832000 	str	r2, [r3]
    8ebc:	e3a03096 	mov	r3, #150	; 0x96

00008ec0 <__delay_11>:
    8ec0:	e2533001 	subs	r3, r3, #1
    8ec4:	1afffffd 	bne	8ec0 <__delay_11>
    8ec8:	e59f306c 	ldr	r3, [pc, #108]	; 8f3c <__delay_16+0x64>
    8ecc:	e3a02903 	mov	r2, #49152	; 0xc000
    8ed0:	e5832000 	str	r2, [r3]
    8ed4:	e3a03096 	mov	r3, #150	; 0x96

00008ed8 <__delay_16>:
    8ed8:	e2533001 	subs	r3, r3, #1
    8edc:	1afffffd 	bne	8ed8 <__delay_16>
    8ee0:	e59f3054 	ldr	r3, [pc, #84]	; 8f3c <__delay_16+0x64>
    8ee4:	e3a02000 	mov	r2, #0
    8ee8:	e5832000 	str	r2, [r3]
    8eec:	e2833efa 	add	r3, r3, #4000	; 0xfa0
    8ef0:	e5832000 	str	r2, [r3]
    8ef4:	e59f2044 	ldr	r2, [pc, #68]	; 8f40 <__delay_16+0x68>
    8ef8:	e283300c 	add	r3, r3, #12
    8efc:	e5832000 	str	r2, [r3]
    8f00:	e3a02001 	mov	r2, #1
    8f04:	e2433020 	sub	r3, r3, #32
    8f08:	e5832000 	str	r2, [r3]
    8f0c:	e3a02028 	mov	r2, #40	; 0x28
    8f10:	e2833004 	add	r3, r3, #4
    8f14:	e5832000 	str	r2, [r3]
    8f18:	e3a02070 	mov	r2, #112	; 0x70
    8f1c:	e2833004 	add	r3, r3, #4
    8f20:	e5832000 	str	r2, [r3]
    8f24:	e59f2018 	ldr	r2, [pc, #24]	; 8f44 <__delay_16+0x6c>
    8f28:	e2833004 	add	r3, r3, #4
    8f2c:	e5832000 	str	r2, [r3]
    8f30:	e12fff1e 	bx	lr
    8f34:	20201030 	eorcs	r1, r0, r0, lsr r0
    8f38:	20200094 	mlacs	r0, r4, r0, r0
    8f3c:	20200098 	mlacs	r0, r8, r0, r0
    8f40:	000007ff 	strdeq	r0, [r0], -pc	; <UNPREDICTABLE>
    8f44:	00000301 	andeq	r0, r0, r1, lsl #6

00008f48 <uart_putc>:
    8f48:	e59f2014 	ldr	r2, [pc, #20]	; 8f64 <uart_putc+0x1c>
    8f4c:	e5923000 	ldr	r3, [r2]
    8f50:	e3130020 	tst	r3, #32
    8f54:	1afffffc 	bne	8f4c <uart_putc+0x4>
    8f58:	e59f3008 	ldr	r3, [pc, #8]	; 8f68 <uart_putc+0x20>
    8f5c:	e5830000 	str	r0, [r3]
    8f60:	e12fff1e 	bx	lr
    8f64:	20201018 	eorcs	r1, r0, r8, lsl r0
    8f68:	20201000 	eorcs	r1, r0, r0

00008f6c <uart_getc>:
    8f6c:	e59f2018 	ldr	r2, [pc, #24]	; 8f8c <uart_getc+0x20>
    8f70:	e5923000 	ldr	r3, [r2]
    8f74:	e3130010 	tst	r3, #16
    8f78:	1afffffc 	bne	8f70 <uart_getc+0x4>
    8f7c:	e59f000c 	ldr	r0, [pc, #12]	; 8f90 <uart_getc+0x24>
    8f80:	e5900000 	ldr	r0, [r0]
    8f84:	e6ef0070 	uxtb	r0, r0
    8f88:	e12fff1e 	bx	lr
    8f8c:	20201018 	eorcs	r1, r0, r8, lsl r0
    8f90:	20201000 	eorcs	r1, r0, r0

00008f94 <uart_getc_noblock>:
    8f94:	e59f3020 	ldr	r3, [pc, #32]	; 8fbc <uart_getc_noblock+0x28>
    8f98:	e5933000 	ldr	r3, [r3]
    8f9c:	e3130010 	tst	r3, #16
    8fa0:	1a000003 	bne	8fb4 <uart_getc_noblock+0x20>
    8fa4:	e59f0014 	ldr	r0, [pc, #20]	; 8fc0 <uart_getc_noblock+0x2c>
    8fa8:	e5900000 	ldr	r0, [r0]
    8fac:	e6ef0070 	uxtb	r0, r0
    8fb0:	e12fff1e 	bx	lr
    8fb4:	e3a00000 	mov	r0, #0
    8fb8:	e12fff1e 	bx	lr
    8fbc:	20201018 	eorcs	r1, r0, r8, lsl r0
    8fc0:	20201000 	eorcs	r1, r0, r0

00008fc4 <uart_write>:
    8fc4:	e3510000 	cmp	r1, #0
    8fc8:	e92d00f0 	push	{r4, r5, r6, r7}
    8fcc:	0a00000d 	beq	9008 <uart_write+0x44>
    8fd0:	e59f2050 	ldr	r2, [pc, #80]	; 9028 <uart_write+0x64>
    8fd4:	e59f5050 	ldr	r5, [pc, #80]	; 902c <uart_write+0x68>
    8fd8:	e1a0c000 	mov	ip, r0
    8fdc:	e0806001 	add	r6, r0, r1
    8fe0:	e3a0700d 	mov	r7, #13
    8fe4:	e4dc4001 	ldrb	r4, [ip], #1
    8fe8:	e5923000 	ldr	r3, [r2]
    8fec:	e3130020 	tst	r3, #32
    8ff0:	1afffffc 	bne	8fe8 <uart_write+0x24>
    8ff4:	e5854000 	str	r4, [r5]
    8ff8:	e354000a 	cmp	r4, #10
    8ffc:	0a000004 	beq	9014 <uart_write+0x50>
    9000:	e15c0006 	cmp	ip, r6
    9004:	1afffff6 	bne	8fe4 <uart_write+0x20>
    9008:	e1a00001 	mov	r0, r1
    900c:	e8bd00f0 	pop	{r4, r5, r6, r7}
    9010:	e12fff1e 	bx	lr
    9014:	e5923000 	ldr	r3, [r2]
    9018:	e3130020 	tst	r3, #32
    901c:	1afffffc 	bne	9014 <uart_write+0x50>
    9020:	e5857000 	str	r7, [r5]
    9024:	eafffff5 	b	9000 <uart_write+0x3c>
    9028:	20201018 	eorcs	r1, r0, r8, lsl r0
    902c:	20201000 	eorcs	r1, r0, r0

00009030 <strncmp>:
    9030:	e3520000 	cmp	r2, #0
    9034:	e92d0030 	push	{r4, r5}
    9038:	0a00000c 	beq	9070 <strncmp+0x40>
    903c:	e5d05000 	ldrb	r5, [r0]
    9040:	e5d14000 	ldrb	r4, [r1]
    9044:	e0554004 	subs	r4, r5, r4
    9048:	1a00000e 	bne	9088 <strncmp+0x58>
    904c:	e080c002 	add	ip, r0, r2
    9050:	e24cc001 	sub	ip, ip, #1
    9054:	ea000003 	b	9068 <strncmp+0x38>
    9058:	e5f02001 	ldrb	r2, [r0, #1]!
    905c:	e5f13001 	ldrb	r3, [r1, #1]!
    9060:	e0523003 	subs	r3, r2, r3
    9064:	1a000004 	bne	907c <strncmp+0x4c>
    9068:	e150000c 	cmp	r0, ip
    906c:	1afffff9 	bne	9058 <strncmp+0x28>
    9070:	e3a00000 	mov	r0, #0
    9074:	e8bd0030 	pop	{r4, r5}
    9078:	e12fff1e 	bx	lr
    907c:	e1a00003 	mov	r0, r3
    9080:	e8bd0030 	pop	{r4, r5}
    9084:	e12fff1e 	bx	lr
    9088:	e1a00004 	mov	r0, r4
    908c:	eafffff8 	b	9074 <strncmp+0x44>

00009090 <memcmp>:
    9090:	e3520000 	cmp	r2, #0
    9094:	e92d0030 	push	{r4, r5}
    9098:	0a00000c 	beq	90d0 <memcmp+0x40>
    909c:	e5d05000 	ldrb	r5, [r0]
    90a0:	e5d14000 	ldrb	r4, [r1]
    90a4:	e0554004 	subs	r4, r5, r4
    90a8:	1a00000e 	bne	90e8 <memcmp+0x58>
    90ac:	e080c002 	add	ip, r0, r2
    90b0:	e24cc001 	sub	ip, ip, #1
    90b4:	ea000003 	b	90c8 <memcmp+0x38>
    90b8:	e5f02001 	ldrb	r2, [r0, #1]!
    90bc:	e5f13001 	ldrb	r3, [r1, #1]!
    90c0:	e0523003 	subs	r3, r2, r3
    90c4:	1a000004 	bne	90dc <memcmp+0x4c>
    90c8:	e150000c 	cmp	r0, ip
    90cc:	1afffff9 	bne	90b8 <memcmp+0x28>
    90d0:	e3a00000 	mov	r0, #0
    90d4:	e8bd0030 	pop	{r4, r5}
    90d8:	e12fff1e 	bx	lr
    90dc:	e1a00003 	mov	r0, r3
    90e0:	e8bd0030 	pop	{r4, r5}
    90e4:	e12fff1e 	bx	lr
    90e8:	e1a00004 	mov	r0, r4
    90ec:	eafffff8 	b	90d4 <memcmp+0x44>

000090f0 <memcpy>:
    90f0:	e3520000 	cmp	r2, #0
    90f4:	012fff1e 	bxeq	lr
    90f8:	e2411001 	sub	r1, r1, #1
    90fc:	e080c002 	add	ip, r0, r2
    9100:	e1a03000 	mov	r3, r0
    9104:	e5f12001 	ldrb	r2, [r1, #1]!
    9108:	e4c32001 	strb	r2, [r3], #1
    910c:	e153000c 	cmp	r3, ip
    9110:	1afffffb 	bne	9104 <memcpy+0x14>
    9114:	e12fff1e 	bx	lr

00009118 <strncpy>:
    9118:	e3520000 	cmp	r2, #0
    911c:	e52d4004 	push	{r4}		; (str r4, [sp, #-4]!)
    9120:	0a000010 	beq	9168 <strncpy+0x50>
    9124:	e5d13000 	ldrb	r3, [r1]
    9128:	e5c03000 	strb	r3, [r0]
    912c:	e5d13000 	ldrb	r3, [r1]
    9130:	e3530000 	cmp	r3, #0
    9134:	0a00000b 	beq	9168 <strncpy+0x50>
    9138:	e0804002 	add	r4, r0, r2
    913c:	e2444001 	sub	r4, r4, #1
    9140:	e1a03000 	mov	r3, r0
    9144:	ea000004 	b	915c <strncpy+0x44>
    9148:	e5f1c001 	ldrb	ip, [r1, #1]!
    914c:	e5e3c001 	strb	ip, [r3, #1]!
    9150:	e5d22001 	ldrb	r2, [r2, #1]
    9154:	e3520000 	cmp	r2, #0
    9158:	0a000002 	beq	9168 <strncpy+0x50>
    915c:	e1530004 	cmp	r3, r4
    9160:	e1a02001 	mov	r2, r1
    9164:	1afffff7 	bne	9148 <strncpy+0x30>
    9168:	e49d4004 	pop	{r4}		; (ldr r4, [sp], #4)
    916c:	e12fff1e 	bx	lr

00009170 <strlen>:
    9170:	e5d03000 	ldrb	r3, [r0]
    9174:	e3530000 	cmp	r3, #0
    9178:	0a000006 	beq	9198 <strlen+0x28>
    917c:	e1a03000 	mov	r3, r0
    9180:	e3a00000 	mov	r0, #0
    9184:	e5f32001 	ldrb	r2, [r3, #1]!
    9188:	e2800001 	add	r0, r0, #1
    918c:	e3520000 	cmp	r2, #0
    9190:	1afffffb 	bne	9184 <strlen+0x14>
    9194:	e12fff1e 	bx	lr
    9198:	e1a00003 	mov	r0, r3
    919c:	e12fff1e 	bx	lr

000091a0 <memset>:
    91a0:	e3520000 	cmp	r2, #0
    91a4:	0a000004 	beq	91bc <memset+0x1c>
    91a8:	e0803002 	add	r3, r0, r2
    91ac:	e6ef1071 	uxtb	r1, r1
    91b0:	e4c01001 	strb	r1, [r0], #1
    91b4:	e1500003 	cmp	r0, r3
    91b8:	1afffffc 	bne	91b0 <memset+0x10>
    91bc:	e3a00000 	mov	r0, #0
    91c0:	e12fff1e 	bx	lr

000091c4 <memset32>:
    91c4:	e3520000 	cmp	r2, #0
    91c8:	0a000004 	beq	91e0 <memset32+0x1c>
    91cc:	e0803002 	add	r3, r0, r2
    91d0:	e6ef1071 	uxtb	r1, r1
    91d4:	e4c01001 	strb	r1, [r0], #1
    91d8:	e1500003 	cmp	r0, r3
    91dc:	1afffffc 	bne	91d4 <memset32+0x10>
    91e0:	e3a00000 	mov	r0, #0
    91e4:	e12fff1e 	bx	lr

000091e8 <swi_handler>:
    91e8:	e3570004 	cmp	r7, #4
    91ec:	e92d509f 	push	{r0, r1, r2, r3, r4, r7, ip, lr}
    91f0:	e1a04000 	mov	r4, r0
    91f4:	0a00001f 	beq	9278 <swi_handler+0x90>
    91f8:	da000010 	ble	9240 <swi_handler+0x58>
    91fc:	e357000d 	cmp	r7, #13
    9200:	0a000009 	beq	922c <swi_handler+0x44>
    9204:	e3570a02 	cmp	r7, #8192	; 0x2000
    9208:	1a000015 	bne	9264 <swi_handler+0x7c>
    920c:	e3500000 	cmp	r0, #0
    9210:	1a000020 	bne	9298 <swi_handler+0xb0>
    9214:	e59f00b8 	ldr	r0, [pc, #184]	; 92d4 <swi_handler+0xec>
    9218:	ebfffebc 	bl	8d10 <printk>
    921c:	e59f30b4 	ldr	r3, [pc, #180]	; 92d8 <swi_handler+0xf0>
    9220:	e1a00004 	mov	r0, r4
    9224:	e5834000 	str	r4, [r3]
    9228:	e8fd909f 	ldm	sp!, {r0, r1, r2, r3, r4, r7, ip, pc}^
    922c:	e5902000 	ldr	r2, [r0]
    9230:	e59f30a4 	ldr	r3, [pc, #164]	; 92dc <swi_handler+0xf4>
    9234:	e3a00000 	mov	r0, #0
    9238:	e5832000 	str	r2, [r3]
    923c:	e8fd909f 	ldm	sp!, {r0, r1, r2, r3, r4, r7, ip, pc}^
    9240:	e3570003 	cmp	r7, #3
    9244:	1a000006 	bne	9264 <swi_handler+0x7c>
    9248:	e3500000 	cmp	r0, #0
    924c:	0a000018 	beq	92b4 <swi_handler+0xcc>
    9250:	e1a01000 	mov	r1, r0
    9254:	e59f0084 	ldr	r0, [pc, #132]	; 92e0 <swi_handler+0xf8>
    9258:	ebfffeac 	bl	8d10 <printk>
    925c:	e3e00000 	mvn	r0, #0
    9260:	e8fd909f 	ldm	sp!, {r0, r1, r2, r3, r4, r7, ip, pc}^
    9264:	e1a01007 	mov	r1, r7
    9268:	e59f0074 	ldr	r0, [pc, #116]	; 92e4 <swi_handler+0xfc>
    926c:	ebfffea7 	bl	8d10 <printk>
    9270:	e3a00000 	mov	r0, #0
    9274:	e8fd909f 	ldm	sp!, {r0, r1, r2, r3, r4, r7, ip, pc}^
    9278:	e2403001 	sub	r3, r0, #1
    927c:	e3530001 	cmp	r3, #1
    9280:	9a00000f 	bls	92c4 <swi_handler+0xdc>
    9284:	e1a01000 	mov	r1, r0
    9288:	e59f0058 	ldr	r0, [pc, #88]	; 92e8 <swi_handler+0x100>
    928c:	ebfffe9f 	bl	8d10 <printk>
    9290:	e3e00000 	mvn	r0, #0
    9294:	e8fd909f 	ldm	sp!, {r0, r1, r2, r3, r4, r7, ip, pc}^
    9298:	e59f004c 	ldr	r0, [pc, #76]	; 92ec <swi_handler+0x104>
    929c:	ebfffe9b 	bl	8d10 <printk>
    92a0:	e59f3030 	ldr	r3, [pc, #48]	; 92d8 <swi_handler+0xf0>
    92a4:	e3a02001 	mov	r2, #1
    92a8:	e5832000 	str	r2, [r3]
    92ac:	e3a00000 	mov	r0, #0
    92b0:	e8fd909f 	ldm	sp!, {r0, r1, r2, r3, r4, r7, ip, pc}^
    92b4:	e1a00001 	mov	r0, r1
    92b8:	e1a01002 	mov	r1, r2
    92bc:	ebfffd66 	bl	885c <console_read>
    92c0:	e8fd909f 	ldm	sp!, {r0, r1, r2, r3, r4, r7, ip, pc}^
    92c4:	e1a00001 	mov	r0, r1
    92c8:	e1a01002 	mov	r1, r2
    92cc:	ebfffd61 	bl	8858 <console_write>
    92d0:	e8fd909f 	ldm	sp!, {r0, r1, r2, r3, r4, r7, ip, pc}^
    92d4:	0000a5e8 	andeq	sl, r0, r8, ror #11
    92d8:	0000b004 	andeq	fp, r0, r4
    92dc:	0000c010 	andeq	ip, r0, r0, lsl r0
    92e0:	0000a594 	muleq	r0, r4, r5
    92e4:	0000a60c 	andeq	sl, r0, ip, lsl #12
    92e8:	0000a5c0 	andeq	sl, r0, r0, asr #11
    92ec:	0000a5fc 	strdeq	sl, [r0], -ip

000092f0 <timer_init>:
    92f0:	e59f3038 	ldr	r3, [pc, #56]	; 9330 <timer_init+0x40>
    92f4:	e5933000 	ldr	r3, [r3]
    92f8:	e59f3034 	ldr	r3, [pc, #52]	; 9334 <timer_init+0x44>
    92fc:	e3a020f9 	mov	r2, #249	; 0xf9
    9300:	e5832000 	str	r2, [r3]
    9304:	e3a02d3d 	mov	r2, #3904	; 0xf40
    9308:	e243301c 	sub	r3, r3, #28
    930c:	e5832000 	str	r2, [r3]
    9310:	e3a020aa 	mov	r2, #170	; 0xaa
    9314:	e2833008 	add	r3, r3, #8
    9318:	e5832000 	str	r2, [r3]
    931c:	e3a02001 	mov	r2, #1
    9320:	e2433e1f 	sub	r3, r3, #496	; 0x1f0
    9324:	e5832000 	str	r2, [r3]
    9328:	e3a00000 	mov	r0, #0
    932c:	e12fff1e 	bx	lr
    9330:	2000b408 	andcs	fp, r0, r8, lsl #8
    9334:	2000b41c 	andcs	fp, r0, ip, lsl r4

00009338 <shell>:
    9338:	e92d40b0 	push	{r4, r5, r7, lr}
    933c:	e24dda01 	sub	sp, sp, #4096	; 0x1000
    9340:	e24dd008 	sub	sp, sp, #8
    9344:	e28d5008 	add	r5, sp, #8
    9348:	e1a00005 	mov	r0, r5
    934c:	e3a01000 	mov	r1, #0
    9350:	e3a02a01 	mov	r2, #4096	; 0x1000
    9354:	ebffff91 	bl	91a0 <memset>
    9358:	e3a04000 	mov	r4, #0
    935c:	eb000053 	bl	94b0 <getchar>
    9360:	e1a07000 	mov	r7, r0
    9364:	eb000044 	bl	947c <putchar>
    9368:	e357000d 	cmp	r7, #13
    936c:	0a000004 	beq	9384 <shell+0x4c>
    9370:	e3540a01 	cmp	r4, #4096	; 0x1000
    9374:	2a000016 	bcs	93d4 <shell+0x9c>
    9378:	e7c57004 	strb	r7, [r5, r4]
    937c:	e2844001 	add	r4, r4, #1
    9380:	eafffff5 	b	935c <shell+0x24>
    9384:	e3a03000 	mov	r3, #0
    9388:	e3540005 	cmp	r4, #5
    938c:	e7c53004 	strb	r3, [r5, r4]
    9390:	0a000015 	beq	93ec <shell+0xb4>
    9394:	e3540004 	cmp	r4, #4
    9398:	1a00000f 	bne	93dc <shell+0xa4>
    939c:	e1a02004 	mov	r2, r4
    93a0:	e59f008c 	ldr	r0, [pc, #140]	; 9434 <shell+0xfc>
    93a4:	e1a01005 	mov	r1, r5
    93a8:	ebffff20 	bl	9030 <strncmp>
    93ac:	e3500000 	cmp	r0, #0
    93b0:	0a000016 	beq	9410 <shell+0xd8>
    93b4:	e59f007c 	ldr	r0, [pc, #124]	; 9438 <shell+0x100>
    93b8:	e1a01005 	mov	r1, r5
    93bc:	e3a02004 	mov	r2, #4
    93c0:	ebffff1a 	bl	9030 <strncmp>
    93c4:	e2504000 	subs	r4, r0, #0
    93c8:	1a000003 	bne	93dc <shell+0xa4>
    93cc:	eb0000ab 	bl	9680 <nyan>
    93d0:	eaffffe1 	b	935c <shell+0x24>
    93d4:	e59f0060 	ldr	r0, [pc, #96]	; 943c <shell+0x104>
    93d8:	eb000041 	bl	94e4 <printf>
    93dc:	e59f005c 	ldr	r0, [pc, #92]	; 9440 <shell+0x108>
    93e0:	eb00003f 	bl	94e4 <printf>
    93e4:	e3a04000 	mov	r4, #0
    93e8:	eaffffdb 	b	935c <shell+0x24>
    93ec:	e1a02004 	mov	r2, r4
    93f0:	e59f004c 	ldr	r0, [pc, #76]	; 9444 <shell+0x10c>
    93f4:	e1a01005 	mov	r1, r5
    93f8:	ebffff0c 	bl	9030 <strncmp>
    93fc:	e2504000 	subs	r4, r0, #0
    9400:	1afffff5 	bne	93dc <shell+0xa4>
    9404:	e59f003c 	ldr	r0, [pc, #60]	; 9448 <shell+0x110>
    9408:	eb000035 	bl	94e4 <printf>
    940c:	eaffffd2 	b	935c <shell+0x24>
    9410:	e2450004 	sub	r0, r5, #4
    9414:	ef000000 	svc	0x00000000
    9418:	e59f302c 	ldr	r3, [pc, #44]	; 944c <shell+0x114>
    941c:	e28d2a01 	add	r2, sp, #4096	; 0x1000
    9420:	e2822008 	add	r2, r2, #8
    9424:	e7921003 	ldr	r1, [r2, r3]
    9428:	e59f0020 	ldr	r0, [pc, #32]	; 9450 <shell+0x118>
    942c:	eb00002c 	bl	94e4 <printf>
    9430:	eaffffdf 	b	93b4 <shell+0x7c>
    9434:	0000a66c 	andeq	sl, r0, ip, ror #12
    9438:	0000a680 	andeq	sl, r0, r0, lsl #13
    943c:	0000a620 	andeq	sl, r0, r0, lsr #12
    9440:	0000a650 	andeq	sl, r0, r0, asr r6
    9444:	0000a638 	andeq	sl, r0, r8, lsr r6
    9448:	0000a640 	andeq	sl, r0, r0, asr #12
    944c:	ffffeffc 			; <UNDEFINED> instruction: 0xffffeffc
    9450:	0000a674 	andeq	sl, r0, r4, ror r6

00009454 <print_err>:
    9454:	e59f0000 	ldr	r0, [pc]	; 945c <print_err+0x8>
    9458:	ea000021 	b	94e4 <printf>
    945c:	0000a650 	andeq	sl, r0, r0, asr r6

00009460 <write>:
    9460:	e52d7004 	push	{r7}		; (str r7, [sp, #-4]!)
    9464:	e3a07004 	mov	r7, #4
    9468:	ef000000 	svc	0x00000000
    946c:	e3700a01 	cmn	r0, #4096	; 0x1000
    9470:	83e00000 	mvnhi	r0, #0
    9474:	e49d7004 	pop	{r7}		; (ldr r7, [sp], #4)
    9478:	e12fff1e 	bx	lr

0000947c <putchar>:
    947c:	e52d7004 	push	{r7}		; (str r7, [sp, #-4]!)
    9480:	e24dd00c 	sub	sp, sp, #12
    9484:	e28d1008 	add	r1, sp, #8
    9488:	e5610004 	strb	r0, [r1, #-4]!
    948c:	e3a00001 	mov	r0, #1
    9490:	e1a02000 	mov	r2, r0
    9494:	e3a07004 	mov	r7, #4
    9498:	ef000000 	svc	0x00000000
    949c:	e3700a01 	cmn	r0, #4096	; 0x1000
    94a0:	83e00000 	mvnhi	r0, #0
    94a4:	e28dd00c 	add	sp, sp, #12
    94a8:	e49d7004 	pop	{r7}		; (ldr r7, [sp], #4)
    94ac:	e12fff1e 	bx	lr

000094b0 <getchar>:
    94b0:	e52d7004 	push	{r7}		; (str r7, [sp, #-4]!)
    94b4:	e24dd00c 	sub	sp, sp, #12
    94b8:	e3a00000 	mov	r0, #0
    94bc:	e28d1004 	add	r1, sp, #4
    94c0:	e3a02001 	mov	r2, #1
    94c4:	e3a07003 	mov	r7, #3
    94c8:	ef000000 	svc	0x00000000
    94cc:	e5dd0004 	ldrb	r0, [sp, #4]
    94d0:	e3500000 	cmp	r0, #0
    94d4:	0afffff7 	beq	94b8 <getchar+0x8>
    94d8:	e28dd00c 	add	sp, sp, #12
    94dc:	e49d7004 	pop	{r7}		; (ldr r7, [sp], #4)
    94e0:	e12fff1e 	bx	lr

000094e4 <printf>:
    94e4:	e92d000f 	push	{r0, r1, r2, r3}
    94e8:	e92d00f0 	push	{r4, r5, r6, r7}
    94ec:	e24dde11 	sub	sp, sp, #272	; 0x110
    94f0:	e28d7f49 	add	r7, sp, #292	; 0x124
    94f4:	e59d0120 	ldr	r0, [sp, #288]	; 0x120
    94f8:	e59f617c 	ldr	r6, [pc, #380]	; 967c <printf+0x198>
    94fc:	e58d7000 	str	r7, [sp]
    9500:	e3a02000 	mov	r2, #0
    9504:	ea000006 	b	9524 <printf+0x40>
    9508:	e28dce11 	add	ip, sp, #272	; 0x110
    950c:	e08c1002 	add	r1, ip, r2
    9510:	e2800001 	add	r0, r0, #1
    9514:	e5413100 	strb	r3, [r1, #-256]	; 0x100
    9518:	e2822001 	add	r2, r2, #1
    951c:	e35200ff 	cmp	r2, #255	; 0xff
    9520:	0a00002d 	beq	95dc <printf+0xf8>
    9524:	e5d03000 	ldrb	r3, [r0]
    9528:	e3530000 	cmp	r3, #0
    952c:	0a00002a 	beq	95dc <printf+0xf8>
    9530:	e3530025 	cmp	r3, #37	; 0x25
    9534:	1afffff3 	bne	9508 <printf+0x24>
    9538:	e5d03001 	ldrb	r3, [r0, #1]
    953c:	e3530064 	cmp	r3, #100	; 0x64
    9540:	0a00002e 	beq	9600 <printf+0x11c>
    9544:	e3530078 	cmp	r3, #120	; 0x78
    9548:	12800001 	addne	r0, r0, #1
    954c:	1afffff2 	bne	951c <printf+0x38>
    9550:	e5971000 	ldr	r1, [r7]
    9554:	e2800002 	add	r0, r0, #2
    9558:	e2877004 	add	r7, r7, #4
    955c:	e3a03009 	mov	r3, #9
    9560:	e28d5004 	add	r5, sp, #4
    9564:	ea000000 	b	956c <printf+0x88>
    9568:	e1a0300c 	mov	r3, ip
    956c:	e1a0cfc1 	asr	ip, r1, #31
    9570:	e1a0ce2c 	lsr	ip, ip, #28
    9574:	e081400c 	add	r4, r1, ip
    9578:	e204400f 	and	r4, r4, #15
    957c:	e06cc004 	rsb	ip, ip, r4
    9580:	e35c0009 	cmp	ip, #9
    9584:	d28cc030 	addle	ip, ip, #48	; 0x30
    9588:	c28cc057 	addgt	ip, ip, #87	; 0x57
    958c:	e7c5c003 	strb	ip, [r5, r3]
    9590:	e3510000 	cmp	r1, #0
    9594:	e281c00f 	add	ip, r1, #15
    9598:	b1a0100c 	movlt	r1, ip
    959c:	e1b01241 	asrs	r1, r1, #4
    95a0:	e243c001 	sub	ip, r3, #1
    95a4:	1affffef 	bne	9568 <printf+0x84>
    95a8:	e063c002 	rsb	ip, r3, r2
    95ac:	e28d1010 	add	r1, sp, #16
    95b0:	e081c00c 	add	ip, r1, ip
    95b4:	e1a04003 	mov	r4, r3
    95b8:	e7d51003 	ldrb	r1, [r5, r3]
    95bc:	e7cc1003 	strb	r1, [ip, r3]
    95c0:	e2833001 	add	r3, r3, #1
    95c4:	e353000a 	cmp	r3, #10
    95c8:	1afffffa 	bne	95b8 <printf+0xd4>
    95cc:	e282200a 	add	r2, r2, #10
    95d0:	e0642002 	rsb	r2, r4, r2
    95d4:	e35200ff 	cmp	r2, #255	; 0xff
    95d8:	1affffd1 	bne	9524 <printf+0x40>
    95dc:	e3a00001 	mov	r0, #1
    95e0:	e28d1010 	add	r1, sp, #16
    95e4:	e3a07004 	mov	r7, #4
    95e8:	ef000000 	svc	0x00000000
    95ec:	e1a00002 	mov	r0, r2
    95f0:	e28dde11 	add	sp, sp, #272	; 0x110
    95f4:	e8bd00f0 	pop	{r4, r5, r6, r7}
    95f8:	e28dd010 	add	sp, sp, #16
    95fc:	e12fff1e 	bx	lr
    9600:	e597c000 	ldr	ip, [r7]
    9604:	e2800002 	add	r0, r0, #2
    9608:	e2877004 	add	r7, r7, #4
    960c:	e3a03009 	mov	r3, #9
    9610:	e28d5004 	add	r5, sp, #4
    9614:	ea000000 	b	961c <printf+0x138>
    9618:	e1a03001 	mov	r3, r1
    961c:	e0c41c96 	smull	r1, r4, r6, ip
    9620:	e1a01fcc 	asr	r1, ip, #31
    9624:	e0611144 	rsb	r1, r1, r4, asr #2
    9628:	e0814101 	add	r4, r1, r1, lsl #2
    962c:	e04c4084 	sub	r4, ip, r4, lsl #1
    9630:	e2844030 	add	r4, r4, #48	; 0x30
    9634:	e6ef4074 	uxtb	r4, r4
    9638:	e251c000 	subs	ip, r1, #0
    963c:	e7c54003 	strb	r4, [r5, r3]
    9640:	e2431001 	sub	r1, r3, #1
    9644:	1afffff3 	bne	9618 <printf+0x134>
    9648:	e28dc010 	add	ip, sp, #16
    964c:	e0631002 	rsb	r1, r3, r2
    9650:	e08c1001 	add	r1, ip, r1
    9654:	e1a0c003 	mov	ip, r3
    9658:	ea000000 	b	9660 <printf+0x17c>
    965c:	e7d54003 	ldrb	r4, [r5, r3]
    9660:	e7c14003 	strb	r4, [r1, r3]
    9664:	e2833001 	add	r3, r3, #1
    9668:	e353000a 	cmp	r3, #10
    966c:	1afffffa 	bne	965c <printf+0x178>
    9670:	e282200a 	add	r2, r2, #10
    9674:	e06c2002 	rsb	r2, ip, r2
    9678:	eaffffa7 	b	951c <printf+0x38>
    967c:	66666667 	strbtvs	r6, [r6], -r7, ror #12

00009680 <nyan>:
    9680:	e92d4008 	push	{r3, lr}
    9684:	e59f000c 	ldr	r0, [pc, #12]	; 9698 <nyan+0x18>
    9688:	ebfffda0 	bl	8d10 <printk>
    968c:	e8bd4008 	pop	{r3, lr}
    9690:	e59f0004 	ldr	r0, [pc, #4]	; 969c <nyan+0x1c>
    9694:	eafffd9d 	b	8d10 <printk>
    9698:	0000a038 	andeq	sl, r0, r8, lsr r0
    969c:	0000a134 	andeq	sl, r0, r4, lsr r1
